
MXT_EXAMPLE_USART1.elf:     file format elf32-littlearm

Sections:
Idx Name          Size      VMA       LMA       File off  Algn
  0 .text         0002595c  00400000  00400000  00010000  2**2
                  CONTENTS, ALLOC, LOAD, READONLY, CODE
  1 .relocate     0000084c  20400000  0042595c  00040000  2**3
                  CONTENTS, ALLOC, LOAD, DATA
  2 .bss          000004bc  2040084c  004261a8  0004084c  2**2
                  ALLOC
  3 .stack        00002000  20400d08  00426664  0004084c  2**0
                  ALLOC
  4 .heap         00000200  20402d08  00428664  0004084c  2**0
                  ALLOC
  5 .ARM.attributes 0000002e  00000000  00000000  0004084c  2**0
                  CONTENTS, READONLY
  6 .comment      00000059  00000000  00000000  0004087a  2**0
                  CONTENTS, READONLY
  7 .debug_info   000127d2  00000000  00000000  000408d3  2**0
                  CONTENTS, READONLY, DEBUGGING
  8 .debug_abbrev 000027d0  00000000  00000000  000530a5  2**0
                  CONTENTS, READONLY, DEBUGGING
  9 .debug_loc    00005020  00000000  00000000  00055875  2**0
                  CONTENTS, READONLY, DEBUGGING
 10 .debug_aranges 000007d0  00000000  00000000  0005a895  2**0
                  CONTENTS, READONLY, DEBUGGING
 11 .debug_ranges 000008a0  00000000  00000000  0005b065  2**0
                  CONTENTS, READONLY, DEBUGGING
 12 .debug_macro  0000636a  00000000  00000000  0005b905  2**0
                  CONTENTS, READONLY, DEBUGGING
 13 .debug_line   00009d31  00000000  00000000  00061c6f  2**0
                  CONTENTS, READONLY, DEBUGGING
 14 .debug_str    00093914  00000000  00000000  0006b9a0  2**0
                  CONTENTS, READONLY, DEBUGGING
 15 .debug_frame  000015a0  00000000  00000000  000ff2b4  2**2
                  CONTENTS, READONLY, DEBUGGING

Disassembly of section .text:

00400000 <exception_table>:
  400000:	08 2d 40 20 a1 12 40 00 9f 12 40 00 9f 12 40 00     .-@ ..@...@...@.
  400010:	9f 12 40 00 9f 12 40 00 9f 12 40 00 00 00 00 00     ..@...@...@.....
	...
  40002c:	9f 12 40 00 9f 12 40 00 00 00 00 00 9f 12 40 00     ..@...@.......@.
  40003c:	9f 12 40 00 9f 12 40 00 9f 12 40 00 9f 12 40 00     ..@...@...@...@.
  40004c:	9f 12 40 00 9f 12 40 00 9f 12 40 00 9f 12 40 00     ..@...@...@...@.
  40005c:	9f 12 40 00 9f 12 40 00 00 00 00 00 81 0f 40 00     ..@...@.......@.
  40006c:	95 0f 40 00 a9 0f 40 00 9f 12 40 00 9f 12 40 00     ..@...@...@...@.
  40007c:	9f 12 40 00 bd 0f 40 00 d1 0f 40 00 9f 12 40 00     ..@...@...@...@.
  40008c:	9f 12 40 00 9f 12 40 00 9f 12 40 00 9f 12 40 00     ..@...@...@...@.
  40009c:	9f 12 40 00 9f 12 40 00 9f 12 40 00 9f 12 40 00     ..@...@...@...@.
  4000ac:	9f 12 40 00 9f 12 40 00 9f 12 40 00 9f 12 40 00     ..@...@...@...@.
  4000bc:	9f 12 40 00 9f 12 40 00 9f 12 40 00 9f 12 40 00     ..@...@...@...@.
  4000cc:	9f 12 40 00 9f 12 40 00 9f 12 40 00 9f 12 40 00     ..@...@...@...@.
  4000dc:	9f 12 40 00 9f 12 40 00 9f 12 40 00 9f 12 40 00     ..@...@...@...@.
  4000ec:	9f 12 40 00 9f 12 40 00 9f 12 40 00 9f 12 40 00     ..@...@...@...@.
  4000fc:	9f 12 40 00 9f 12 40 00 9f 12 40 00 9f 12 40 00     ..@...@...@...@.
  40010c:	9f 12 40 00 9f 12 40 00 00 00 00 00 00 00 00 00     ..@...@.........
  40011c:	00 00 00 00 9f 12 40 00 9f 12 40 00 9f 12 40 00     ......@...@...@.
  40012c:	9f 12 40 00 9f 12 40 00 9f 12 40 00 9f 12 40 00     ..@...@...@...@.
  40013c:	9f 12 40 00 9f 12 40 00 9f 12 40 00 9f 12 40 00     ..@...@...@...@.
  40014c:	9f 12 40 00 9f 12 40 00 9f 12 40 00 9f 12 40 00     ..@...@...@...@.
  40015c:	9f 12 40 00 9f 12 40 00 9f 12 40 00                 ..@...@...@.

00400168 <__do_global_dtors_aux>:
  400168:	b510      	push	{r4, lr}
  40016a:	4c05      	ldr	r4, [pc, #20]	; (400180 <__do_global_dtors_aux+0x18>)
  40016c:	7823      	ldrb	r3, [r4, #0]
  40016e:	b933      	cbnz	r3, 40017e <__do_global_dtors_aux+0x16>
  400170:	4b04      	ldr	r3, [pc, #16]	; (400184 <__do_global_dtors_aux+0x1c>)
  400172:	b113      	cbz	r3, 40017a <__do_global_dtors_aux+0x12>
  400174:	4804      	ldr	r0, [pc, #16]	; (400188 <__do_global_dtors_aux+0x20>)
  400176:	f3af 8000 	nop.w
  40017a:	2301      	movs	r3, #1
  40017c:	7023      	strb	r3, [r4, #0]
  40017e:	bd10      	pop	{r4, pc}
  400180:	2040084c 	.word	0x2040084c
  400184:	00000000 	.word	0x00000000
  400188:	0042595c 	.word	0x0042595c

0040018c <frame_dummy>:
  40018c:	4b0c      	ldr	r3, [pc, #48]	; (4001c0 <frame_dummy+0x34>)
  40018e:	b143      	cbz	r3, 4001a2 <frame_dummy+0x16>
  400190:	480c      	ldr	r0, [pc, #48]	; (4001c4 <frame_dummy+0x38>)
  400192:	490d      	ldr	r1, [pc, #52]	; (4001c8 <frame_dummy+0x3c>)
  400194:	b510      	push	{r4, lr}
  400196:	f3af 8000 	nop.w
  40019a:	480c      	ldr	r0, [pc, #48]	; (4001cc <frame_dummy+0x40>)
  40019c:	6803      	ldr	r3, [r0, #0]
  40019e:	b923      	cbnz	r3, 4001aa <frame_dummy+0x1e>
  4001a0:	bd10      	pop	{r4, pc}
  4001a2:	480a      	ldr	r0, [pc, #40]	; (4001cc <frame_dummy+0x40>)
  4001a4:	6803      	ldr	r3, [r0, #0]
  4001a6:	b933      	cbnz	r3, 4001b6 <frame_dummy+0x2a>
  4001a8:	4770      	bx	lr
  4001aa:	4b09      	ldr	r3, [pc, #36]	; (4001d0 <frame_dummy+0x44>)
  4001ac:	2b00      	cmp	r3, #0
  4001ae:	d0f7      	beq.n	4001a0 <frame_dummy+0x14>
  4001b0:	e8bd 4010 	ldmia.w	sp!, {r4, lr}
  4001b4:	4718      	bx	r3
  4001b6:	4b06      	ldr	r3, [pc, #24]	; (4001d0 <frame_dummy+0x44>)
  4001b8:	2b00      	cmp	r3, #0
  4001ba:	d0f5      	beq.n	4001a8 <frame_dummy+0x1c>
  4001bc:	4718      	bx	r3
  4001be:	bf00      	nop
  4001c0:	00000000 	.word	0x00000000
  4001c4:	0042595c 	.word	0x0042595c
  4001c8:	20400850 	.word	0x20400850
  4001cc:	0042595c 	.word	0x0042595c
  4001d0:	00000000 	.word	0x00000000

004001d4 <sysclk_init>:
	pmc_disable_udpck();
}
#endif // CONFIG_USBCLK_SOURCE

void sysclk_init(void)
{
  4001d4:	b510      	push	{r4, lr}
	struct pll_config pllcfg;

	/* Set flash wait state to max in case the below clock switching. */
	system_init_flash(CHIP_FREQ_CPU_MAX);
  4001d6:	4810      	ldr	r0, [pc, #64]	; (400218 <sysclk_init+0x44>)
  4001d8:	4b10      	ldr	r3, [pc, #64]	; (40021c <sysclk_init+0x48>)
  4001da:	4798      	blx	r3
		pmc_switch_mainck_to_fastrc(CKGR_MOR_MOSCRCF_12_MHz);
		break;


	case OSC_MAINCK_XTAL:
		pmc_switch_mainck_to_xtal(PMC_OSC_XTAL,
  4001dc:	213e      	movs	r1, #62	; 0x3e
  4001de:	2000      	movs	r0, #0
  4001e0:	4b0f      	ldr	r3, [pc, #60]	; (400220 <sysclk_init+0x4c>)
  4001e2:	4798      	blx	r3
	case OSC_MAINCK_4M_RC:
	case OSC_MAINCK_8M_RC:
	case OSC_MAINCK_12M_RC:
	case OSC_MAINCK_XTAL:
	case OSC_MAINCK_BYPASS:
		return pmc_osc_is_ready_mainck();
  4001e4:	4c0f      	ldr	r4, [pc, #60]	; (400224 <sysclk_init+0x50>)
  4001e6:	47a0      	blx	r4
 *
 * \param id A number identifying the oscillator to wait for.
 */
static inline void osc_wait_ready(uint8_t id)
{
	while (!osc_is_ready(id)) {
  4001e8:	2800      	cmp	r0, #0
  4001ea:	d0fc      	beq.n	4001e6 <sysclk_init+0x12>
static inline void pll_enable(const struct pll_config *p_cfg, uint32_t ul_pll_id)
{
	Assert(ul_pll_id < NR_PLLS);

	if (ul_pll_id == PLLA_ID) {
		pmc_disable_pllack(); // Always stop PLL first!
  4001ec:	4b0e      	ldr	r3, [pc, #56]	; (400228 <sysclk_init+0x54>)
  4001ee:	4798      	blx	r3
		PMC->CKGR_PLLAR = CKGR_PLLAR_ONE | p_cfg->ctrl;
  4001f0:	4a0e      	ldr	r2, [pc, #56]	; (40022c <sysclk_init+0x58>)
  4001f2:	4b0f      	ldr	r3, [pc, #60]	; (400230 <sysclk_init+0x5c>)
  4001f4:	629a      	str	r2, [r3, #40]	; 0x28
static inline uint32_t pll_is_locked(uint32_t ul_pll_id)
{
	Assert(ul_pll_id < NR_PLLS);

	if (ul_pll_id == PLLA_ID) {
	return pmc_is_locked_pllack();
  4001f6:	4c0f      	ldr	r4, [pc, #60]	; (400234 <sysclk_init+0x60>)
  4001f8:	47a0      	blx	r4
 */
static inline int pll_wait_for_lock(unsigned int pll_id)
{
	Assert(pll_id < NR_PLLS);

	while (!pll_is_locked(pll_id)) {
  4001fa:	2800      	cmp	r0, #0
  4001fc:	d0fc      	beq.n	4001f8 <sysclk_init+0x24>
	else if (CONFIG_SYSCLK_SOURCE == SYSCLK_SRC_PLLACK) {
		pll_enable_source(CONFIG_PLL0_SOURCE);
		pll_config_defaults(&pllcfg, 0);
		pll_enable(&pllcfg, 0);
		pll_wait_for_lock(0);
		pmc_mck_set_division(CONFIG_SYSCLK_DIV);
  4001fe:	2002      	movs	r0, #2
  400200:	4b0d      	ldr	r3, [pc, #52]	; (400238 <sysclk_init+0x64>)
  400202:	4798      	blx	r3
		pmc_switch_mck_to_pllack(CONFIG_SYSCLK_PRES);
  400204:	2000      	movs	r0, #0
  400206:	4b0d      	ldr	r3, [pc, #52]	; (40023c <sysclk_init+0x68>)
  400208:	4798      	blx	r3
		pll_wait_for_lock(1);
		pmc_mck_set_division(CONFIG_SYSCLK_DIV);
		pmc_switch_mck_to_upllck(CONFIG_SYSCLK_PRES);
	}
	/* Update the SystemFrequency variable */
	SystemCoreClockUpdate();
  40020a:	4b0d      	ldr	r3, [pc, #52]	; (400240 <sysclk_init+0x6c>)
  40020c:	4798      	blx	r3

	/* Set a flash wait state depending on the new cpu frequency */
	system_init_flash(sysclk_get_cpu_hz());
  40020e:	480d      	ldr	r0, [pc, #52]	; (400244 <sysclk_init+0x70>)
  400210:	4b02      	ldr	r3, [pc, #8]	; (40021c <sysclk_init+0x48>)
  400212:	4798      	blx	r3
  400214:	bd10      	pop	{r4, pc}
  400216:	bf00      	nop
  400218:	07270e00 	.word	0x07270e00
  40021c:	00401475 	.word	0x00401475
  400220:	00401081 	.word	0x00401081
  400224:	004010d5 	.word	0x004010d5
  400228:	004010e5 	.word	0x004010e5
  40022c:	20183f01 	.word	0x20183f01
  400230:	400e0600 	.word	0x400e0600
  400234:	004010f5 	.word	0x004010f5
  400238:	00400fe5 	.word	0x00400fe5
  40023c:	0040101d 	.word	0x0040101d
  400240:	00401369 	.word	0x00401369
  400244:	11e1a300 	.word	0x11e1a300

00400248 <spi_master_init>:
 *
 * \param p_spi  Base address of the SPI instance.
 *
 */
void spi_master_init(Spi *p_spi)
{
  400248:	b510      	push	{r4, lr}
  40024a:	4604      	mov	r4, r0
#if SAMG55
	flexcom_enable(BOARD_FLEXCOM_SPI);
	flexcom_set_opmode(BOARD_FLEXCOM_SPI, FLEXCOM_SPI);
#else
	spi_enable_clock(p_spi);
  40024c:	4b10      	ldr	r3, [pc, #64]	; (400290 <spi_master_init+0x48>)
  40024e:	4798      	blx	r3
 *
 * \param p_spi Pointer to an SPI instance.
 */
static inline void spi_reset(Spi *p_spi)
{
	p_spi->SPI_CR = SPI_CR_SWRST;
  400250:	2380      	movs	r3, #128	; 0x80
  400252:	6023      	str	r3, [r4, #0]
 *
 * \param p_spi Pointer to an SPI instance.
 */
static inline void spi_set_master_mode(Spi *p_spi)
{
	p_spi->SPI_MR |= SPI_MR_MSTR;
  400254:	6863      	ldr	r3, [r4, #4]
  400256:	f043 0301 	orr.w	r3, r3, #1
  40025a:	6063      	str	r3, [r4, #4]
 *
 * \param p_spi Pointer to an SPI instance.
 */
static inline void spi_disable_mode_fault_detect(Spi *p_spi)
{
	p_spi->SPI_MR |= SPI_MR_MODFDIS;
  40025c:	6863      	ldr	r3, [r4, #4]
  40025e:	f043 0310 	orr.w	r3, r3, #16
  400262:	6063      	str	r3, [r4, #4]
 *
 * \param p_spi Pointer to an SPI instance.
 */
static inline void spi_disable_loopback(Spi *p_spi)
{
	p_spi->SPI_MR &= (~SPI_MR_LLB);
  400264:	6863      	ldr	r3, [r4, #4]
  400266:	f023 0380 	bic.w	r3, r3, #128	; 0x80
  40026a:	6063      	str	r3, [r4, #4]
#endif
	spi_reset(p_spi);
	spi_set_master_mode(p_spi);
	spi_disable_mode_fault_detect(p_spi);
	spi_disable_loopback(p_spi);
	spi_set_peripheral_chip_select_value(p_spi, DEFAULT_CHIP_ID);
  40026c:	2100      	movs	r1, #0
  40026e:	4620      	mov	r0, r4
  400270:	4b08      	ldr	r3, [pc, #32]	; (400294 <spi_master_init+0x4c>)
  400272:	4798      	blx	r3
	p_spi->SPI_MR &= (~SPI_MR_PS);
  400274:	6863      	ldr	r3, [r4, #4]
  400276:	f023 0302 	bic.w	r3, r3, #2
  40027a:	6063      	str	r3, [r4, #4]
	p_spi->SPI_MR &= (~SPI_MR_PCSDEC);
  40027c:	6863      	ldr	r3, [r4, #4]
  40027e:	f023 0304 	bic.w	r3, r3, #4
  400282:	6063      	str	r3, [r4, #4]
	spi_set_fixed_peripheral_select(p_spi);
	spi_disable_peripheral_select_decode(p_spi);
	spi_set_delay_between_chip_select(p_spi, CONFIG_SPI_MASTER_DELAY_BCS);
  400284:	2100      	movs	r1, #0
  400286:	4620      	mov	r0, r4
  400288:	4b03      	ldr	r3, [pc, #12]	; (400298 <spi_master_init+0x50>)
  40028a:	4798      	blx	r3
  40028c:	bd10      	pop	{r4, pc}
  40028e:	bf00      	nop
  400290:	00401125 	.word	0x00401125
  400294:	00401151 	.word	0x00401151
  400298:	00401167 	.word	0x00401167

0040029c <spi_master_setup_device>:
 * \param baud_rate Baud rate for communication with slave device in Hz.
 * \param sel_id    Board specific select id.
 */
void spi_master_setup_device(Spi *p_spi, struct spi_device *device,
		spi_flags_t flags, uint32_t baud_rate, board_spi_select_id_t sel_id)
{
  40029c:	e92d 41f0 	stmdb	sp!, {r4, r5, r6, r7, r8, lr}
  4002a0:	4604      	mov	r4, r0
  4002a2:	460d      	mov	r5, r1
  4002a4:	4616      	mov	r6, r2
#if (SAM4L)
    int16_t baud_div = spi_calc_baudrate_div(baud_rate, sysclk_get_pba_hz());
#else
	int16_t baud_div = spi_calc_baudrate_div(baud_rate, sysclk_get_peripheral_hz());
  4002a6:	4915      	ldr	r1, [pc, #84]	; (4002fc <spi_master_setup_device+0x60>)
  4002a8:	4618      	mov	r0, r3
  4002aa:	4b15      	ldr	r3, [pc, #84]	; (400300 <spi_master_setup_device+0x64>)
  4002ac:	4798      	blx	r3
  4002ae:	4607      	mov	r7, r0
	/* avoid Cppcheck Warning */
	UNUSED(sel_id);
	if (-1 == baud_div) {
		Assert(0 == "Failed to find baudrate divider");
	}
	spi_set_transfer_delay(p_spi, device->id, CONFIG_SPI_MASTER_DELAY_BS,
  4002b0:	2300      	movs	r3, #0
  4002b2:	461a      	mov	r2, r3
  4002b4:	6829      	ldr	r1, [r5, #0]
  4002b6:	4620      	mov	r0, r4
  4002b8:	f8df 805c 	ldr.w	r8, [pc, #92]	; 400318 <spi_master_setup_device+0x7c>
  4002bc:	47c0      	blx	r8
			CONFIG_SPI_MASTER_DELAY_BCT);
	spi_set_bits_per_transfer(p_spi, device->id,
  4002be:	2208      	movs	r2, #8
  4002c0:	6829      	ldr	r1, [r5, #0]
  4002c2:	4620      	mov	r0, r4
  4002c4:	4b0f      	ldr	r3, [pc, #60]	; (400304 <spi_master_setup_device+0x68>)
  4002c6:	4798      	blx	r3
			CONFIG_SPI_MASTER_BITS_PER_TRANSFER);
	spi_set_baudrate_div(p_spi, device->id, baud_div);
  4002c8:	b2fa      	uxtb	r2, r7
  4002ca:	6829      	ldr	r1, [r5, #0]
  4002cc:	4620      	mov	r0, r4
  4002ce:	4b0e      	ldr	r3, [pc, #56]	; (400308 <spi_master_setup_device+0x6c>)
  4002d0:	4798      	blx	r3
	spi_configure_cs_behavior(p_spi, device->id, SPI_CS_KEEP_LOW);
  4002d2:	2208      	movs	r2, #8
  4002d4:	6829      	ldr	r1, [r5, #0]
  4002d6:	4620      	mov	r0, r4
  4002d8:	4b0c      	ldr	r3, [pc, #48]	; (40030c <spi_master_setup_device+0x70>)
  4002da:	4798      	blx	r3
	spi_set_clock_polarity(p_spi, device->id, flags >> 1);
  4002dc:	0872      	lsrs	r2, r6, #1
  4002de:	6829      	ldr	r1, [r5, #0]
  4002e0:	4620      	mov	r0, r4
  4002e2:	4b0b      	ldr	r3, [pc, #44]	; (400310 <spi_master_setup_device+0x74>)
  4002e4:	4798      	blx	r3
	spi_set_clock_phase(p_spi, device->id, ((flags & 0x1) ^ 0x1));
  4002e6:	f086 0201 	eor.w	r2, r6, #1
  4002ea:	f002 0201 	and.w	r2, r2, #1
  4002ee:	6829      	ldr	r1, [r5, #0]
  4002f0:	4620      	mov	r0, r4
  4002f2:	4b08      	ldr	r3, [pc, #32]	; (400314 <spi_master_setup_device+0x78>)
  4002f4:	4798      	blx	r3
  4002f6:	e8bd 81f0 	ldmia.w	sp!, {r4, r5, r6, r7, r8, pc}
  4002fa:	bf00      	nop
  4002fc:	08f0d180 	.word	0x08f0d180
  400300:	00401243 	.word	0x00401243
  400304:	0040122f 	.word	0x0040122f
  400308:	00401259 	.word	0x00401259
  40030c:	004011e9 	.word	0x004011e9
  400310:	004011ad 	.word	0x004011ad
  400314:	004011cb 	.word	0x004011cb
  400318:	00401281 	.word	0x00401281

0040031c <spi_select_device>:
 * \param p_spi   Base address of the SPI instance.
 * \param device  SPI device.
 *
 */
void spi_select_device(Spi *p_spi, struct spi_device *device)
{
  40031c:	b508      	push	{r3, lr}
	if (p_spi->SPI_MR & SPI_MR_PCSDEC) {
  40031e:	6843      	ldr	r3, [r0, #4]
	if (spi_get_peripheral_select_decode_setting(p_spi)) {
  400320:	f013 0f04 	tst.w	r3, #4
  400324:	d006      	beq.n	400334 <spi_select_device+0x18>
		if (device->id < MAX_NUM_WITH_DECODER) {
  400326:	6809      	ldr	r1, [r1, #0]
  400328:	290f      	cmp	r1, #15
  40032a:	d900      	bls.n	40032e <spi_select_device+0x12>
  40032c:	bd08      	pop	{r3, pc}
			spi_set_peripheral_chip_select_value(p_spi, device->id);
  40032e:	4b06      	ldr	r3, [pc, #24]	; (400348 <spi_select_device+0x2c>)
  400330:	4798      	blx	r3
  400332:	bd08      	pop	{r3, pc}
		}
	} else {
		if (device->id < MAX_NUM_WITHOUT_DECODER) {
  400334:	6809      	ldr	r1, [r1, #0]
  400336:	2903      	cmp	r1, #3
  400338:	d8f8      	bhi.n	40032c <spi_select_device+0x10>
			spi_set_peripheral_chip_select_value(p_spi, (~(1 << device->id)));
  40033a:	2301      	movs	r3, #1
  40033c:	fa03 f101 	lsl.w	r1, r3, r1
  400340:	43c9      	mvns	r1, r1
  400342:	4b01      	ldr	r3, [pc, #4]	; (400348 <spi_select_device+0x2c>)
  400344:	4798      	blx	r3
		}
	}
}
  400346:	e7f1      	b.n	40032c <spi_select_device+0x10>
  400348:	00401151 	.word	0x00401151

0040034c <spi_write_packet>:
{
	uint32_t timeout = SPI_TIMEOUT;
	uint32_t i = 0;
	uint8_t val;

	while (len) {
  40034c:	b11a      	cbz	r2, 400356 <spi_write_packet+0xa>
{
  40034e:	b410      	push	{r4}
  400350:	460c      	mov	r4, r1
  400352:	4411      	add	r1, r2
  400354:	e006      	b.n	400364 <spi_write_packet+0x18>
		spi_write_single(p_spi, val);
		i++;
		len--;
	}

	return STATUS_OK;
  400356:	2000      	movs	r0, #0
  400358:	4770      	bx	lr
		val = data[i];
  40035a:	f814 3b01 	ldrb.w	r3, [r4], #1
 * \param data The data byte to be loaded
 *
 */
static inline void spi_put(Spi *p_spi, uint16_t data)
{
	p_spi->SPI_TDR = SPI_TDR_TD(data);
  40035e:	60c3      	str	r3, [r0, #12]
	while (len) {
  400360:	42a1      	cmp	r1, r4
  400362:	d00c      	beq.n	40037e <spi_write_packet+0x32>
{
  400364:	f643 2399 	movw	r3, #15001	; 0x3a99
 * \retval 1 if transmissions are complete.
 * \retval 0 if transmissions are not complete.
 */
static inline uint32_t spi_is_tx_ready(Spi *p_spi)
{
	if (p_spi->SPI_SR & SPI_SR_TDRE) {
  400368:	6902      	ldr	r2, [r0, #16]
		while (!spi_is_tx_ready(p_spi)) {
  40036a:	f012 0f02 	tst.w	r2, #2
  40036e:	d1f4      	bne.n	40035a <spi_write_packet+0xe>
			if (!timeout--) {
  400370:	3b01      	subs	r3, #1
  400372:	d1f9      	bne.n	400368 <spi_write_packet+0x1c>
				return ERR_TIMEOUT;
  400374:	f06f 0002 	mvn.w	r0, #2
}
  400378:	f85d 4b04 	ldr.w	r4, [sp], #4
  40037c:	4770      	bx	lr
	return STATUS_OK;
  40037e:	2000      	movs	r0, #0
  400380:	e7fa      	b.n	400378 <spi_write_packet+0x2c>

00400382 <spi_read_packet>:
{
	uint32_t timeout = SPI_TIMEOUT;
	uint8_t val;
	uint32_t i = 0;

	while (len) {
  400382:	b13a      	cbz	r2, 400394 <spi_read_packet+0x12>
{
  400384:	b470      	push	{r4, r5, r6}
  400386:	4615      	mov	r5, r2
  400388:	460c      	mov	r4, r1
  40038a:	440d      	add	r5, r1
	p_spi->SPI_TDR = SPI_TDR_TD(data);
  40038c:	26ff      	movs	r6, #255	; 0xff
 *
 * \return 1 if the SPI Receiver is ready, otherwise 0.
 */
static inline uint32_t spi_is_rx_ready(Spi *p_spi)
{
	if ((p_spi->SPI_SR & (SPI_SR_RDRF | SPI_SR_TXEMPTY))
  40038e:	f240 2101 	movw	r1, #513	; 0x201
  400392:	e012      	b.n	4003ba <spi_read_packet+0x38>
		data[i] = val;
		i++;
		len--;
	}

	return STATUS_OK;
  400394:	2000      	movs	r0, #0
  400396:	4770      	bx	lr
	p_spi->SPI_TDR = SPI_TDR_TD(data);
  400398:	60c6      	str	r6, [r0, #12]
		while (!spi_is_rx_ready(p_spi)) {
  40039a:	f643 2399 	movw	r3, #15001	; 0x3a99
	if ((p_spi->SPI_SR & (SPI_SR_RDRF | SPI_SR_TXEMPTY))
  40039e:	6902      	ldr	r2, [r0, #16]
  4003a0:	ea31 0202 	bics.w	r2, r1, r2
  4003a4:	d004      	beq.n	4003b0 <spi_read_packet+0x2e>
			if (!timeout--) {
  4003a6:	3b01      	subs	r3, #1
  4003a8:	d1f9      	bne.n	40039e <spi_read_packet+0x1c>
				return ERR_TIMEOUT;
  4003aa:	f06f 0002 	mvn.w	r0, #2
  4003ae:	e00e      	b.n	4003ce <spi_read_packet+0x4c>
	return (p_spi->SPI_RDR & SPI_RDR_RD_Msk);
  4003b0:	6883      	ldr	r3, [r0, #8]
 * \param data      Data to read.
 *
 */
static inline void spi_read_single(Spi *p_spi, uint8_t *data)
{
	*data = (uint8_t)spi_get(p_spi);
  4003b2:	f804 3b01 	strb.w	r3, [r4], #1
	while (len) {
  4003b6:	42a5      	cmp	r5, r4
  4003b8:	d00b      	beq.n	4003d2 <spi_read_packet+0x50>
{
  4003ba:	f643 2399 	movw	r3, #15001	; 0x3a99
	if (p_spi->SPI_SR & SPI_SR_TDRE) {
  4003be:	6902      	ldr	r2, [r0, #16]
		while (!spi_is_tx_ready(p_spi)) {
  4003c0:	f012 0f02 	tst.w	r2, #2
  4003c4:	d1e8      	bne.n	400398 <spi_read_packet+0x16>
			if (!timeout--) {
  4003c6:	3b01      	subs	r3, #1
  4003c8:	d1f9      	bne.n	4003be <spi_read_packet+0x3c>
				return ERR_TIMEOUT;
  4003ca:	f06f 0002 	mvn.w	r0, #2
}
  4003ce:	bc70      	pop	{r4, r5, r6}
  4003d0:	4770      	bx	lr
	return STATUS_OK;
  4003d2:	2000      	movs	r0, #0
  4003d4:	e7fb      	b.n	4003ce <spi_read_packet+0x4c>
	...

004003d8 <board_init>:
	__ISB();
}
#endif

void board_init(void)
{
  4003d8:	e92d 41f0 	stmdb	sp!, {r4, r5, r6, r7, r8, lr}
#ifndef CONF_BOARD_KEEP_WATCHDOG_AT_INIT
	/* Disable the watchdog */
	WDT->WDT_MR = WDT_MR_WDDIS;
  4003dc:	f44f 4200 	mov.w	r2, #32768	; 0x8000
  4003e0:	4b9e      	ldr	r3, [pc, #632]	; (40065c <board_init+0x284>)
  4003e2:	605a      	str	r2, [r3, #4]
    This function acts as a special kind of Data Memory Barrier.
    It completes when all explicit memory accesses before this instruction complete.
 */
__attribute__( ( always_inline ) ) __STATIC_INLINE void __DSB(void)
{
  __ASM volatile ("dsb");
  4003e4:	f3bf 8f4f 	dsb	sy
  __ASM volatile ("isb");
  4003e8:	f3bf 8f6f 	isb	sy
__STATIC_INLINE void SCB_EnableICache(void)
{
  #if (__ICACHE_PRESENT == 1)
    __DSB();
    __ISB();
    SCB->ICIALLU = 0;                       // invalidate I-Cache
  4003ec:	4b9c      	ldr	r3, [pc, #624]	; (400660 <board_init+0x288>)
  4003ee:	2200      	movs	r2, #0
  4003f0:	f8c3 2250 	str.w	r2, [r3, #592]	; 0x250
    SCB->CCR |=  SCB_CCR_IC_Msk;            // enable I-Cache
  4003f4:	695a      	ldr	r2, [r3, #20]
  4003f6:	f442 3200 	orr.w	r2, r2, #131072	; 0x20000
  4003fa:	615a      	str	r2, [r3, #20]
  __ASM volatile ("dsb");
  4003fc:	f3bf 8f4f 	dsb	sy
  __ASM volatile ("isb");
  400400:	f3bf 8f6f 	isb	sy
{
  #if (__DCACHE_PRESENT == 1)
    uint32_t ccsidr, sshift, wshift, sw;
    uint32_t sets, ways;

    ccsidr  = SCB->CCSIDR;
  400404:	f8d3 7080 	ldr.w	r7, [r3, #128]	; 0x80
    sets    = CCSIDR_SETS(ccsidr);
  400408:	f3c7 364e 	ubfx	r6, r7, #13, #15
    sshift  = CCSIDR_LSSHIFT(ccsidr) + 4;
  40040c:	f007 0007 	and.w	r0, r7, #7
  400410:	3004      	adds	r0, #4
    ways    = CCSIDR_WAYS(ccsidr);
  400412:	f3c7 07c9 	ubfx	r7, r7, #3, #10
 */
__attribute__( ( always_inline ) ) __STATIC_INLINE uint8_t __CLZ(uint32_t value)
{
  uint32_t result;

  __ASM volatile ("clz %0, %1" : "=r" (result) : "r" (value) );
  400416:	fab7 fe87 	clz	lr, r7
    wshift  = __CLZ(ways) & 0x1f;
  40041a:	f00e 0e1f 	and.w	lr, lr, #31
  __ASM volatile ("dsb");
  40041e:	f3bf 8f4f 	dsb	sy
  400422:	f04f 34ff 	mov.w	r4, #4294967295
  400426:	fa04 fc00 	lsl.w	ip, r4, r0
  40042a:	fa06 f000 	lsl.w	r0, r6, r0
  40042e:	fa04 f40e 	lsl.w	r4, r4, lr
  400432:	fa07 fe0e 	lsl.w	lr, r7, lr

    do {                                    // invalidate D-Cache
         int32_t tmpways = ways;
         do {
              sw = ((tmpways << wshift) | (sets << sshift));
              SCB->DCISW = sw;
  400436:	461d      	mov	r5, r3
         int32_t tmpways = ways;
  400438:	463a      	mov	r2, r7
  40043a:	4673      	mov	r3, lr
              sw = ((tmpways << wshift) | (sets << sshift));
  40043c:	ea40 0103 	orr.w	r1, r0, r3
              SCB->DCISW = sw;
  400440:	f8c5 1260 	str.w	r1, [r5, #608]	; 0x260
            } while(tmpways--);
  400444:	3a01      	subs	r2, #1
  400446:	4423      	add	r3, r4
  400448:	f1b2 3fff 	cmp.w	r2, #4294967295
  40044c:	d1f6      	bne.n	40043c <board_init+0x64>
        } while(sets--);
  40044e:	3e01      	subs	r6, #1
  400450:	4460      	add	r0, ip
  400452:	f1b6 3fff 	cmp.w	r6, #4294967295
  400456:	d1ef      	bne.n	400438 <board_init+0x60>
  400458:	f3bf 8f4f 	dsb	sy
    __DSB();

    SCB->CCR |=  SCB_CCR_DC_Msk;            // enable D-Cache
  40045c:	4b80      	ldr	r3, [pc, #512]	; (400660 <board_init+0x288>)
  40045e:	695a      	ldr	r2, [r3, #20]
  400460:	f442 3280 	orr.w	r2, r2, #65536	; 0x10000
  400464:	615a      	str	r2, [r3, #20]
  400466:	f3bf 8f4f 	dsb	sy
  __ASM volatile ("isb");
  40046a:	f3bf 8f6f 	isb	sy
		*dst++ = *src++;
	}
#endif
#else
	/* TCM Configuration */
	EFC->EEFC_FCR = (EEFC_FCR_FKEY_PASSWD | EEFC_FCR_FCMD_CGPB 
  40046e:	4a7d      	ldr	r2, [pc, #500]	; (400664 <board_init+0x28c>)
  400470:	497d      	ldr	r1, [pc, #500]	; (400668 <board_init+0x290>)
  400472:	6051      	str	r1, [r2, #4]
					| EEFC_FCR_FARG(8));
	EFC->EEFC_FCR = (EEFC_FCR_FKEY_PASSWD | EEFC_FCR_FCMD_CGPB 
  400474:	f5a1 7180 	sub.w	r1, r1, #256	; 0x100
  400478:	6051      	str	r1, [r2, #4]
  __ASM volatile ("dsb");
  40047a:	f3bf 8f4f 	dsb	sy
  __ASM volatile ("isb");
  40047e:	f3bf 8f6f 	isb	sy
	SCB->ITCMCR &= ~(uint32_t)(1UL);
  400482:	f8d3 2290 	ldr.w	r2, [r3, #656]	; 0x290
  400486:	f022 0201 	bic.w	r2, r2, #1
  40048a:	f8c3 2290 	str.w	r2, [r3, #656]	; 0x290
	SCB->DTCMCR &= ~(uint32_t)SCB_DTCMCR_EN_Msk;
  40048e:	f8d3 2294 	ldr.w	r2, [r3, #660]	; 0x294
  400492:	f022 0201 	bic.w	r2, r2, #1
  400496:	f8c3 2294 	str.w	r2, [r3, #660]	; 0x294
  __ASM volatile ("dsb");
  40049a:	f3bf 8f4f 	dsb	sy
  __ASM volatile ("isb");
  40049e:	f3bf 8f6f 	isb	sy
 *
 * \param ul_id Id (number) of the peripheral clock.
 */
static inline void sysclk_enable_peripheral_clock(uint32_t ul_id)
{
	pmc_enable_periph_clk(ul_id);
  4004a2:	200a      	movs	r0, #10
  4004a4:	4c71      	ldr	r4, [pc, #452]	; (40066c <board_init+0x294>)
  4004a6:	47a0      	blx	r4
  4004a8:	200b      	movs	r0, #11
  4004aa:	47a0      	blx	r4
  4004ac:	200c      	movs	r0, #12
  4004ae:	47a0      	blx	r4
  4004b0:	2010      	movs	r0, #16
  4004b2:	47a0      	blx	r4
  4004b4:	2011      	movs	r0, #17
  4004b6:	47a0      	blx	r4
		enum ioport_direction dir)
{
	Pio *base = arch_ioport_pin_to_base(pin);

	if (dir == IOPORT_DIR_OUTPUT) {
		base->PIO_OER = arch_ioport_pin_to_mask(pin);
  4004b8:	4e6d      	ldr	r6, [pc, #436]	; (400670 <board_init+0x298>)
  4004ba:	f44f 7880 	mov.w	r8, #256	; 0x100
  4004be:	f8c6 8010 	str.w	r8, [r6, #16]
	} else if (dir == IOPORT_DIR_INPUT) {
		base->PIO_ODR = arch_ioport_pin_to_mask(pin);
	}

	base->PIO_OWER = arch_ioport_pin_to_mask(pin);
  4004c2:	f8c6 80a0 	str.w	r8, [r6, #160]	; 0xa0
		bool level)
{
	Pio *base = arch_ioport_pin_to_base(pin);

	if (level) {
		base->PIO_SODR = arch_ioport_pin_to_mask(pin);
  4004c6:	f8c6 8030 	str.w	r8, [r6, #48]	; 0x30
		base->PIO_ODR = arch_ioport_pin_to_mask(pin);
  4004ca:	4c6a      	ldr	r4, [pc, #424]	; (400674 <board_init+0x29c>)
  4004cc:	f44f 6500 	mov.w	r5, #2048	; 0x800
  4004d0:	6165      	str	r5, [r4, #20]
	base->PIO_OWER = arch_ioport_pin_to_mask(pin);
  4004d2:	f8c4 50a0 	str.w	r5, [r4, #160]	; 0xa0
		base->PIO_PUER = mask;
  4004d6:	6665      	str	r5, [r4, #100]	; 0x64
		base->PIO_PPDDR = mask;
  4004d8:	f8c4 5090 	str.w	r5, [r4, #144]	; 0x90
		base->PIO_MDDR = mask;
  4004dc:	6565      	str	r5, [r4, #84]	; 0x54
		base->PIO_IFER = mask;
  4004de:	6225      	str	r5, [r4, #32]
		base->PIO_IFSCER = mask;
  4004e0:	f8c4 5084 	str.w	r5, [r4, #132]	; 0x84
		base->PIO_ABCDSR[0] &= ~mask;
  4004e4:	6f23      	ldr	r3, [r4, #112]	; 0x70
  4004e6:	f423 6300 	bic.w	r3, r3, #2048	; 0x800
  4004ea:	6723      	str	r3, [r4, #112]	; 0x70
		base->PIO_ABCDSR[1] &= ~mask;
  4004ec:	6f63      	ldr	r3, [r4, #116]	; 0x74
  4004ee:	f423 6300 	bic.w	r3, r3, #2048	; 0x800
  4004f2:	6763      	str	r3, [r4, #116]	; 0x74
	case IOPORT_SENSE_FALLING:
		base->PIO_ESR = mask;
		base->PIO_FELLSR = mask;
		break;
	case IOPORT_SENSE_RISING:
		base->PIO_ESR = mask;
  4004f4:	f8c4 50c0 	str.w	r5, [r4, #192]	; 0xc0
		base->PIO_REHLSR = mask;
  4004f8:	f8c4 50d4 	str.w	r5, [r4, #212]	; 0xd4
		break;
	default:
		base->PIO_AIMDR = mask;
		return;
	}
	base->PIO_AIMER = mask;
  4004fc:	f8c4 50b0 	str.w	r5, [r4, #176]	; 0xb0
		base->PIO_PUDR = mask;
  400500:	f44f 1300 	mov.w	r3, #2097152	; 0x200000
  400504:	6623      	str	r3, [r4, #96]	; 0x60
		base->PIO_PPDDR = mask;
  400506:	f8c4 3090 	str.w	r3, [r4, #144]	; 0x90
		base->PIO_MDDR = mask;
  40050a:	6563      	str	r3, [r4, #84]	; 0x54
		base->PIO_IFDR = mask;
  40050c:	6263      	str	r3, [r4, #36]	; 0x24
		base->PIO_IFSCDR = mask;
  40050e:	f8c4 3080 	str.w	r3, [r4, #128]	; 0x80
		base->PIO_ABCDSR[0] &= ~mask;
  400512:	6f22      	ldr	r2, [r4, #112]	; 0x70
  400514:	f422 1200 	bic.w	r2, r2, #2097152	; 0x200000
  400518:	6722      	str	r2, [r4, #112]	; 0x70
		base->PIO_ABCDSR[1] &= ~mask;
  40051a:	6f62      	ldr	r2, [r4, #116]	; 0x74
  40051c:	f422 1200 	bic.w	r2, r2, #2097152	; 0x200000
  400520:	6762      	str	r2, [r4, #116]	; 0x74
	arch_ioport_port_to_base(port)->PIO_PDR = mask;
  400522:	6063      	str	r3, [r4, #4]
			GPIO_PUSH_BUTTON_1_SENSE);

#ifdef CONF_BOARD_UART_CONSOLE
	/* Configure UART pins */
	ioport_set_pin_peripheral_mode(USART1_RXD_GPIO, USART1_RXD_FLAGS);
	MATRIX->CCFG_SYSIO |= CCFG_SYSIO_SYSIO4;
  400524:	4a54      	ldr	r2, [pc, #336]	; (400678 <board_init+0x2a0>)
  400526:	f8d2 3114 	ldr.w	r3, [r2, #276]	; 0x114
  40052a:	f043 0310 	orr.w	r3, r3, #16
  40052e:	f8c2 3114 	str.w	r3, [r2, #276]	; 0x114
		base->PIO_PUDR = mask;
  400532:	f502 22b2 	add.w	r2, r2, #364544	; 0x59000
  400536:	2310      	movs	r3, #16
  400538:	6613      	str	r3, [r2, #96]	; 0x60
		base->PIO_PPDDR = mask;
  40053a:	f8c2 3090 	str.w	r3, [r2, #144]	; 0x90
		base->PIO_MDDR = mask;
  40053e:	6553      	str	r3, [r2, #84]	; 0x54
		base->PIO_IFDR = mask;
  400540:	6253      	str	r3, [r2, #36]	; 0x24
		base->PIO_IFSCDR = mask;
  400542:	f8c2 3080 	str.w	r3, [r2, #128]	; 0x80
		base->PIO_ABCDSR[0] |= mask;
  400546:	6f11      	ldr	r1, [r2, #112]	; 0x70
  400548:	4319      	orrs	r1, r3
  40054a:	6711      	str	r1, [r2, #112]	; 0x70
		base->PIO_ABCDSR[1] |= mask;
  40054c:	6f51      	ldr	r1, [r2, #116]	; 0x74
  40054e:	4319      	orrs	r1, r3
  400550:	6751      	str	r1, [r2, #116]	; 0x74
	arch_ioport_port_to_base(port)->PIO_PDR = mask;
  400552:	6053      	str	r3, [r2, #4]
		base->PIO_PUDR = mask;
  400554:	2208      	movs	r2, #8
  400556:	6622      	str	r2, [r4, #96]	; 0x60
		base->PIO_PPDDR = mask;
  400558:	f8c4 2090 	str.w	r2, [r4, #144]	; 0x90
		base->PIO_MDDR = mask;
  40055c:	6562      	str	r2, [r4, #84]	; 0x54
		base->PIO_IFDR = mask;
  40055e:	6262      	str	r2, [r4, #36]	; 0x24
		base->PIO_IFSCDR = mask;
  400560:	f8c4 2080 	str.w	r2, [r4, #128]	; 0x80
		base->PIO_ABCDSR[0] &= ~mask;
  400564:	6f21      	ldr	r1, [r4, #112]	; 0x70
  400566:	f021 0108 	bic.w	r1, r1, #8
  40056a:	6721      	str	r1, [r4, #112]	; 0x70
		base->PIO_ABCDSR[1] &= ~mask;
  40056c:	6f61      	ldr	r1, [r4, #116]	; 0x74
  40056e:	f021 0108 	bic.w	r1, r1, #8
  400572:	6761      	str	r1, [r4, #116]	; 0x74
	arch_ioport_port_to_base(port)->PIO_PDR = mask;
  400574:	6062      	str	r2, [r4, #4]
		base->PIO_PUDR = mask;
  400576:	6623      	str	r3, [r4, #96]	; 0x60
		base->PIO_PPDDR = mask;
  400578:	f8c4 3090 	str.w	r3, [r4, #144]	; 0x90
		base->PIO_MDDR = mask;
  40057c:	6563      	str	r3, [r4, #84]	; 0x54
		base->PIO_IFDR = mask;
  40057e:	6263      	str	r3, [r4, #36]	; 0x24
		base->PIO_IFSCDR = mask;
  400580:	f8c4 3080 	str.w	r3, [r4, #128]	; 0x80
		base->PIO_ABCDSR[0] &= ~mask;
  400584:	6f22      	ldr	r2, [r4, #112]	; 0x70
  400586:	f022 0210 	bic.w	r2, r2, #16
  40058a:	6722      	str	r2, [r4, #112]	; 0x70
		base->PIO_ABCDSR[1] &= ~mask;
  40058c:	6f62      	ldr	r2, [r4, #116]	; 0x74
  40058e:	f022 0210 	bic.w	r2, r2, #16
  400592:	6762      	str	r2, [r4, #116]	; 0x74
	arch_ioport_port_to_base(port)->PIO_PDR = mask;
  400594:	6063      	str	r3, [r4, #4]
	ioport_set_pin_mode(SD_MMC_0_CD_GPIO, SD_MMC_0_CD_FLAGS);
#endif

#ifdef CONF_BOARD_ILI9488
	/**LCD pin configure on EBI*/
	pio_configure(PIN_EBI_RESET_PIO, PIN_EBI_RESET_TYPE, PIN_EBI_RESET_MASK, PIN_EBI_RESET_ATTRI);
  400596:	2300      	movs	r3, #0
  400598:	f44f 5200 	mov.w	r2, #8192	; 0x2000
  40059c:	f04f 5160 	mov.w	r1, #939524096	; 0x38000000
  4005a0:	4630      	mov	r0, r6
  4005a2:	4f36      	ldr	r7, [pc, #216]	; (40067c <board_init+0x2a4>)
  4005a4:	47b8      	blx	r7
	pio_configure(PIN_EBI_CDS_PIO, PIN_EBI_CDS_TYPE, PIN_EBI_CDS_MASK, PIN_EBI_CDS_ATTRI);
  4005a6:	2300      	movs	r3, #0
  4005a8:	f04f 4280 	mov.w	r2, #1073741824	; 0x40000000
  4005ac:	f04f 5160 	mov.w	r1, #939524096	; 0x38000000
  4005b0:	4630      	mov	r0, r6
  4005b2:	47b8      	blx	r7
	pio_configure(PIN_EBI_DATAL_PIO, PIN_EBI_DATAL_TYPE, PIN_EBI_DATAL_MASK, PIN_EBI_DATAL_ATTRI);
  4005b4:	2301      	movs	r3, #1
  4005b6:	22ff      	movs	r2, #255	; 0xff
  4005b8:	f04f 6100 	mov.w	r1, #134217728	; 0x8000000
  4005bc:	4630      	mov	r0, r6
  4005be:	47b8      	blx	r7
	pio_configure(PIN_EBI_DATAH_0_PIO, PIN_EBI_DATAH_0_TYPE, PIN_EBI_DATAH_0_MASK, PIN_EBI_DATAH_0_ATTRI);
  4005c0:	2301      	movs	r3, #1
  4005c2:	223f      	movs	r2, #63	; 0x3f
  4005c4:	f04f 6100 	mov.w	r1, #134217728	; 0x8000000
  4005c8:	482d      	ldr	r0, [pc, #180]	; (400680 <board_init+0x2a8>)
  4005ca:	47b8      	blx	r7
	pio_configure(PIN_EBI_DATAH_1_PIO, PIN_EBI_DATAH_1_TYPE, PIN_EBI_DATAH_1_MASK, PIN_EBI_DATAH_1_ATTRI);
  4005cc:	2301      	movs	r3, #1
  4005ce:	f44f 32c0 	mov.w	r2, #98304	; 0x18000
  4005d2:	f04f 6100 	mov.w	r1, #134217728	; 0x8000000
  4005d6:	4620      	mov	r0, r4
  4005d8:	47b8      	blx	r7
	pio_configure(PIN_EBI_NWE_PIO, PIN_EBI_NWE_TYPE, PIN_EBI_NWE_MASK, PIN_EBI_NWE_ATTRI);
  4005da:	2301      	movs	r3, #1
  4005dc:	4642      	mov	r2, r8
  4005de:	f04f 6100 	mov.w	r1, #134217728	; 0x8000000
  4005e2:	4630      	mov	r0, r6
  4005e4:	47b8      	blx	r7
	pio_configure(PIN_EBI_NRD_PIO, PIN_EBI_NRD_TYPE, PIN_EBI_NRD_MASK, PIN_EBI_NRD_ATTRI);
  4005e6:	2301      	movs	r3, #1
  4005e8:	462a      	mov	r2, r5
  4005ea:	f04f 6100 	mov.w	r1, #134217728	; 0x8000000
  4005ee:	4630      	mov	r0, r6
  4005f0:	47b8      	blx	r7
	pio_configure(PIN_EBI_CS_PIO, PIN_EBI_CS_TYPE, PIN_EBI_CS_MASK, PIN_EBI_CS_ATTRI);
  4005f2:	2301      	movs	r3, #1
  4005f4:	f44f 2200 	mov.w	r2, #524288	; 0x80000
  4005f8:	f04f 6100 	mov.w	r1, #134217728	; 0x8000000
  4005fc:	4821      	ldr	r0, [pc, #132]	; (400684 <board_init+0x2ac>)
  4005fe:	47b8      	blx	r7
	pio_configure(PIN_EBI_BACKLIGHT_PIO, PIN_EBI_BACKLIGHT_TYPE, PIN_EBI_BACKLIGHT_MASK, PIN_EBI_BACKLIGHT_ATTRI);
  400600:	2300      	movs	r3, #0
  400602:	f44f 7200 	mov.w	r2, #512	; 0x200
  400606:	f04f 5180 	mov.w	r1, #268435456	; 0x10000000
  40060a:	4630      	mov	r0, r6
  40060c:	47b8      	blx	r7
	pio_set(PIN_EBI_BACKLIGHT_PIO, PIN_EBI_BACKLIGHT_MASK);
  40060e:	f44f 7100 	mov.w	r1, #512	; 0x200
  400612:	4630      	mov	r0, r6
  400614:	4b1c      	ldr	r3, [pc, #112]	; (400688 <board_init+0x2b0>)
  400616:	4798      	blx	r3
	MATRIX->CCFG_SMCNFCS = CCFG_SMCNFCS_SDRAMEN;
#endif

#ifdef CONF_BOARD_ILI9488
	/**LCD pin configure on SPI*/
	pio_configure_pin(LCD_SPI_MISO_PIO, LCD_SPI_MISO_FLAGS);
  400618:	f04f 5180 	mov.w	r1, #268435456	; 0x10000000
  40061c:	2074      	movs	r0, #116	; 0x74
  40061e:	4c1b      	ldr	r4, [pc, #108]	; (40068c <board_init+0x2b4>)
  400620:	47a0      	blx	r4
	pio_configure_pin(LCD_SPI_MOSI_PIO, LCD_SPI_MOSI_FLAGS);
  400622:	f04f 5180 	mov.w	r1, #268435456	; 0x10000000
  400626:	2075      	movs	r0, #117	; 0x75
  400628:	47a0      	blx	r4
	pio_configure_pin(LCD_SPI_SPCK_PIO, LCD_SPI_SPCK_FLAGS);
  40062a:	f04f 5180 	mov.w	r1, #268435456	; 0x10000000
  40062e:	2076      	movs	r0, #118	; 0x76
  400630:	47a0      	blx	r4
	pio_configure_pin(LCD_SPI_NPCS_PIO, LCD_SPI_NPCS_FLAGS);
  400632:	f04f 5180 	mov.w	r1, #268435456	; 0x10000000
  400636:	207b      	movs	r0, #123	; 0x7b
  400638:	47a0      	blx	r4
	pio_configure_pin(LCD_SPI_RESET_PIO, LCD_SPI_RESET_FLAGS);
  40063a:	f04f 5160 	mov.w	r1, #939524096	; 0x38000000
  40063e:	2018      	movs	r0, #24
  400640:	47a0      	blx	r4
	pio_configure_pin(LCD_SPI_CDS_PIO, LCD_SPI_CDS_FLAGS);
  400642:	f04f 5160 	mov.w	r1, #939524096	; 0x38000000
  400646:	2006      	movs	r0, #6
  400648:	47a0      	blx	r4
	pio_configure_pin(LCD_SPI_BACKLIGHT_PIO, LCD_SPI_BACKLIGHT_FLAGS);
  40064a:	f04f 5160 	mov.w	r1, #939524096	; 0x38000000
  40064e:	2053      	movs	r0, #83	; 0x53
  400650:	47a0      	blx	r4
	pio_set_pin_high(LCD_SPI_BACKLIGHT_PIO);
  400652:	2053      	movs	r0, #83	; 0x53
  400654:	4b0e      	ldr	r3, [pc, #56]	; (400690 <board_init+0x2b8>)
  400656:	4798      	blx	r3
  400658:	e8bd 81f0 	ldmia.w	sp!, {r4, r5, r6, r7, r8, pc}
  40065c:	400e1850 	.word	0x400e1850
  400660:	e000ed00 	.word	0xe000ed00
  400664:	400e0c00 	.word	0x400e0c00
  400668:	5a00080c 	.word	0x5a00080c
  40066c:	00401105 	.word	0x00401105
  400670:	400e1200 	.word	0x400e1200
  400674:	400e0e00 	.word	0x400e0e00
  400678:	40088000 	.word	0x40088000
  40067c:	00400d31 	.word	0x00400d31
  400680:	400e1600 	.word	0x400e1600
  400684:	400e1400 	.word	0x400e1400
  400688:	00400c3d 	.word	0x00400c3d
  40068c:	00400e01 	.word	0x00400e01
  400690:	00400dc9 	.word	0x00400dc9

00400694 <ili9488_check_box_coordinates>:
 * \param p_ul_x2 X coordinate of lower-right corner on LCD.
 * \param p_ul_y2 Y coordinate of lower-right corner on LCD.
 */
static void ili9488_check_box_coordinates(uint32_t *p_ul_x1, uint32_t *p_ul_y1,
		uint32_t *p_ul_x2, uint32_t *p_ul_y2)
{
  400694:	b430      	push	{r4, r5}
	uint32_t dw;

	if (*p_ul_x1 >= ILI9488_LCD_WIDTH) {
  400696:	6804      	ldr	r4, [r0, #0]
  400698:	f5b4 7fa0 	cmp.w	r4, #320	; 0x140
  40069c:	d302      	bcc.n	4006a4 <ili9488_check_box_coordinates+0x10>
		*p_ul_x1 = ILI9488_LCD_WIDTH - 1;
  40069e:	f240 143f 	movw	r4, #319	; 0x13f
  4006a2:	6004      	str	r4, [r0, #0]
	}

	if (*p_ul_x2 >= ILI9488_LCD_WIDTH) {
  4006a4:	6814      	ldr	r4, [r2, #0]
  4006a6:	f5b4 7fa0 	cmp.w	r4, #320	; 0x140
  4006aa:	d302      	bcc.n	4006b2 <ili9488_check_box_coordinates+0x1e>
		*p_ul_x2 = ILI9488_LCD_WIDTH - 1;
  4006ac:	f240 143f 	movw	r4, #319	; 0x13f
  4006b0:	6014      	str	r4, [r2, #0]
	}

	if (*p_ul_y1 >= ILI9488_LCD_HEIGHT) {
  4006b2:	680c      	ldr	r4, [r1, #0]
  4006b4:	f5b4 7ff0 	cmp.w	r4, #480	; 0x1e0
  4006b8:	d302      	bcc.n	4006c0 <ili9488_check_box_coordinates+0x2c>
		*p_ul_y1 = ILI9488_LCD_HEIGHT - 1;
  4006ba:	f240 14df 	movw	r4, #479	; 0x1df
  4006be:	600c      	str	r4, [r1, #0]
	}

	if (*p_ul_y2 >= ILI9488_LCD_HEIGHT) {
  4006c0:	681c      	ldr	r4, [r3, #0]
  4006c2:	f5b4 7ff0 	cmp.w	r4, #480	; 0x1e0
  4006c6:	d302      	bcc.n	4006ce <ili9488_check_box_coordinates+0x3a>
		*p_ul_y2 = ILI9488_LCD_HEIGHT - 1;
  4006c8:	f240 14df 	movw	r4, #479	; 0x1df
  4006cc:	601c      	str	r4, [r3, #0]
	}

	if (*p_ul_x1 > *p_ul_x2) {
  4006ce:	6804      	ldr	r4, [r0, #0]
  4006d0:	6815      	ldr	r5, [r2, #0]
  4006d2:	42ac      	cmp	r4, r5
  4006d4:	d901      	bls.n	4006da <ili9488_check_box_coordinates+0x46>
		dw = *p_ul_x1;
		*p_ul_x1 = *p_ul_x2;
  4006d6:	6005      	str	r5, [r0, #0]
		*p_ul_x2 = dw;
  4006d8:	6014      	str	r4, [r2, #0]
	}

	if (*p_ul_y1 > *p_ul_y2) {
  4006da:	680a      	ldr	r2, [r1, #0]
  4006dc:	6818      	ldr	r0, [r3, #0]
  4006de:	4282      	cmp	r2, r0
  4006e0:	d901      	bls.n	4006e6 <ili9488_check_box_coordinates+0x52>
		dw = *p_ul_y1;
		*p_ul_y1 = *p_ul_y2;
  4006e2:	6008      	str	r0, [r1, #0]
		*p_ul_y2 = dw;
  4006e4:	601a      	str	r2, [r3, #0]
	}
}
  4006e6:	bc30      	pop	{r4, r5}
  4006e8:	4770      	bx	lr
	...

004006ec <ili9488_write_ram_prepare>:
{
  4006ec:	b510      	push	{r4, lr}
  4006ee:	b082      	sub	sp, #8
	pio_set_pin_low(LCD_SPI_CDS_PIO);
  4006f0:	2006      	movs	r0, #6
  4006f2:	4b0a      	ldr	r3, [pc, #40]	; (40071c <ili9488_write_ram_prepare+0x30>)
  4006f4:	4798      	blx	r3
	spi_write(BOARD_ILI9488_SPI, ILI9488_CMD_MEMORY_WRITE, BOARD_ILI9488_SPI_NPCS, 0);
  4006f6:	2300      	movs	r3, #0
  4006f8:	2203      	movs	r2, #3
  4006fa:	212c      	movs	r1, #44	; 0x2c
  4006fc:	4808      	ldr	r0, [pc, #32]	; (400720 <ili9488_write_ram_prepare+0x34>)
  4006fe:	4c09      	ldr	r4, [pc, #36]	; (400724 <ili9488_write_ram_prepare+0x38>)
  400700:	47a0      	blx	r4
	for(i = 0; i < 0xFF; i++);
  400702:	2300      	movs	r3, #0
  400704:	9301      	str	r3, [sp, #4]
  400706:	9b01      	ldr	r3, [sp, #4]
  400708:	2bfe      	cmp	r3, #254	; 0xfe
  40070a:	d805      	bhi.n	400718 <ili9488_write_ram_prepare+0x2c>
  40070c:	9b01      	ldr	r3, [sp, #4]
  40070e:	3301      	adds	r3, #1
  400710:	9301      	str	r3, [sp, #4]
  400712:	9b01      	ldr	r3, [sp, #4]
  400714:	2bfe      	cmp	r3, #254	; 0xfe
  400716:	d9f9      	bls.n	40070c <ili9488_write_ram_prepare+0x20>
}
  400718:	b002      	add	sp, #8
  40071a:	bd10      	pop	{r4, pc}
  40071c:	00400de5 	.word	0x00400de5
  400720:	40008000 	.word	0x40008000
  400724:	00401179 	.word	0x00401179

00400728 <ili9488_write_register>:
{
  400728:	b570      	push	{r4, r5, r6, lr}
  40072a:	b082      	sub	sp, #8
  40072c:	4605      	mov	r5, r0
  40072e:	460e      	mov	r6, r1
  400730:	4614      	mov	r4, r2
	pio_set_pin_low(LCD_SPI_CDS_PIO);
  400732:	2006      	movs	r0, #6
  400734:	4b14      	ldr	r3, [pc, #80]	; (400788 <ili9488_write_register+0x60>)
  400736:	4798      	blx	r3
	spi_write(BOARD_ILI9488_SPI, uc_reg, BOARD_ILI9488_SPI_NPCS, 0);
  400738:	2300      	movs	r3, #0
  40073a:	2203      	movs	r2, #3
  40073c:	4629      	mov	r1, r5
  40073e:	4813      	ldr	r0, [pc, #76]	; (40078c <ili9488_write_register+0x64>)
  400740:	4d13      	ldr	r5, [pc, #76]	; (400790 <ili9488_write_register+0x68>)
  400742:	47a8      	blx	r5
	for(i = 0; i < 0xFF; i++);
  400744:	2300      	movs	r3, #0
  400746:	9301      	str	r3, [sp, #4]
  400748:	9b01      	ldr	r3, [sp, #4]
  40074a:	2bfe      	cmp	r3, #254	; 0xfe
  40074c:	d805      	bhi.n	40075a <ili9488_write_register+0x32>
  40074e:	9b01      	ldr	r3, [sp, #4]
  400750:	3301      	adds	r3, #1
  400752:	9301      	str	r3, [sp, #4]
  400754:	9b01      	ldr	r3, [sp, #4]
  400756:	2bfe      	cmp	r3, #254	; 0xfe
  400758:	d9f9      	bls.n	40074e <ili9488_write_register+0x26>
	if(size > 0) {
  40075a:	b90c      	cbnz	r4, 400760 <ili9488_write_register+0x38>
}
  40075c:	b002      	add	sp, #8
  40075e:	bd70      	pop	{r4, r5, r6, pc}
		pio_set_pin_high(LCD_SPI_CDS_PIO);
  400760:	2006      	movs	r0, #6
  400762:	4b0c      	ldr	r3, [pc, #48]	; (400794 <ili9488_write_register+0x6c>)
  400764:	4798      	blx	r3
		spi_write_packet(BOARD_ILI9488_SPI, us_data, size);
  400766:	4622      	mov	r2, r4
  400768:	4631      	mov	r1, r6
  40076a:	4808      	ldr	r0, [pc, #32]	; (40078c <ili9488_write_register+0x64>)
  40076c:	4b0a      	ldr	r3, [pc, #40]	; (400798 <ili9488_write_register+0x70>)
  40076e:	4798      	blx	r3
		for(i = 0; i < 0x5F; i++);
  400770:	2300      	movs	r3, #0
  400772:	9301      	str	r3, [sp, #4]
  400774:	9b01      	ldr	r3, [sp, #4]
  400776:	2b5e      	cmp	r3, #94	; 0x5e
  400778:	d8f0      	bhi.n	40075c <ili9488_write_register+0x34>
  40077a:	9b01      	ldr	r3, [sp, #4]
  40077c:	3301      	adds	r3, #1
  40077e:	9301      	str	r3, [sp, #4]
  400780:	9b01      	ldr	r3, [sp, #4]
  400782:	2b5e      	cmp	r3, #94	; 0x5e
  400784:	d9f9      	bls.n	40077a <ili9488_write_register+0x52>
  400786:	e7e9      	b.n	40075c <ili9488_write_register+0x34>
  400788:	00400de5 	.word	0x00400de5
  40078c:	40008000 	.word	0x40008000
  400790:	00401179 	.word	0x00401179
  400794:	00400dc9 	.word	0x00400dc9
  400798:	0040034d 	.word	0x0040034d

0040079c <ili9488_write_ram_buffer>:
{
  40079c:	b530      	push	{r4, r5, lr}
  40079e:	b083      	sub	sp, #12
  4007a0:	4604      	mov	r4, r0
  4007a2:	460d      	mov	r5, r1
	pio_set_pin_high(LCD_SPI_CDS_PIO);
  4007a4:	2006      	movs	r0, #6
  4007a6:	4b0a      	ldr	r3, [pc, #40]	; (4007d0 <ili9488_write_ram_buffer+0x34>)
  4007a8:	4798      	blx	r3
	spi_write_packet(BOARD_ILI9488_SPI, p_ul_buf, ul_size);
  4007aa:	462a      	mov	r2, r5
  4007ac:	4621      	mov	r1, r4
  4007ae:	4809      	ldr	r0, [pc, #36]	; (4007d4 <ili9488_write_ram_buffer+0x38>)
  4007b0:	4b09      	ldr	r3, [pc, #36]	; (4007d8 <ili9488_write_ram_buffer+0x3c>)
  4007b2:	4798      	blx	r3
	for(i = 0; i < 0xFF; i++);
  4007b4:	2300      	movs	r3, #0
  4007b6:	9301      	str	r3, [sp, #4]
  4007b8:	9b01      	ldr	r3, [sp, #4]
  4007ba:	2bfe      	cmp	r3, #254	; 0xfe
  4007bc:	d805      	bhi.n	4007ca <ili9488_write_ram_buffer+0x2e>
  4007be:	9b01      	ldr	r3, [sp, #4]
  4007c0:	3301      	adds	r3, #1
  4007c2:	9301      	str	r3, [sp, #4]
  4007c4:	9b01      	ldr	r3, [sp, #4]
  4007c6:	2bfe      	cmp	r3, #254	; 0xfe
  4007c8:	d9f9      	bls.n	4007be <ili9488_write_ram_buffer+0x22>
}
  4007ca:	b003      	add	sp, #12
  4007cc:	bd30      	pop	{r4, r5, pc}
  4007ce:	bf00      	nop
  4007d0:	00400dc9 	.word	0x00400dc9
  4007d4:	40008000 	.word	0x40008000
  4007d8:	0040034d 	.word	0x0040034d

004007dc <ili9488_delay>:
	for(i = 0; i < ul_ms; i++) {
  4007dc:	4601      	mov	r1, r0
  4007de:	b130      	cbz	r0, 4007ee <ili9488_delay+0x12>
  4007e0:	4a03      	ldr	r2, [pc, #12]	; (4007f0 <ili9488_delay+0x14>)
{
  4007e2:	4b04      	ldr	r3, [pc, #16]	; (4007f4 <ili9488_delay+0x18>)
		for(i = 0; i < 100000; i++) {
  4007e4:	3b01      	subs	r3, #1
  4007e6:	d1fd      	bne.n	4007e4 <ili9488_delay+0x8>
	for(i = 0; i < ul_ms; i++) {
  4007e8:	4291      	cmp	r1, r2
  4007ea:	d8fa      	bhi.n	4007e2 <ili9488_delay+0x6>
  4007ec:	4770      	bx	lr
  4007ee:	4770      	bx	lr
  4007f0:	000186a1 	.word	0x000186a1
  4007f4:	000186a0 	.word	0x000186a0

004007f8 <ili9488_set_display_direction>:
 * \brief ILI9488 configure landscape.
 *
 * \Param LandscaprMode Landscape Mode.
 */
void ili9488_set_display_direction(enum ili9488_display_direction direction )
{
  4007f8:	b500      	push	{lr}
  4007fa:	b083      	sub	sp, #12
	ili9488_color_t value;
	if(direction) {
  4007fc:	b958      	cbnz	r0, 400816 <ili9488_set_display_direction+0x1e>
		value = 0xE8;
	} else {
		value = 0x48;
  4007fe:	2348      	movs	r3, #72	; 0x48
  400800:	f88d 3007 	strb.w	r3, [sp, #7]
	}
	ili9488_write_register(ILI9488_CMD_MEMORY_ACCESS_CONTROL, &value, 1);
  400804:	2201      	movs	r2, #1
  400806:	f10d 0107 	add.w	r1, sp, #7
  40080a:	2036      	movs	r0, #54	; 0x36
  40080c:	4b04      	ldr	r3, [pc, #16]	; (400820 <ili9488_set_display_direction+0x28>)
  40080e:	4798      	blx	r3
}
  400810:	b003      	add	sp, #12
  400812:	f85d fb04 	ldr.w	pc, [sp], #4
		value = 0xE8;
  400816:	23e8      	movs	r3, #232	; 0xe8
  400818:	f88d 3007 	strb.w	r3, [sp, #7]
  40081c:	e7f2      	b.n	400804 <ili9488_set_display_direction+0xc>
  40081e:	bf00      	nop
  400820:	00400729 	.word	0x00400729

00400824 <ili9488_set_window>:
 * \Param y start position.
 * \Param width  Width of window.
 * \Param height Height of window.
 */
void ili9488_set_window(uint16_t x, uint16_t y, uint16_t width, uint16_t height )
{
  400824:	b510      	push	{r4, lr}
  400826:	b084      	sub	sp, #16
	uint32_t cnt = 0;
	ili9488_color_t buf[4];

	cnt = sizeof(buf)/sizeof(ili9488_color_t);

	col_start  =  x ;
  400828:	f8ad 000e 	strh.w	r0, [sp, #14]
	col_end    =  width + x - 1;
  40082c:	3a01      	subs	r2, #1
  40082e:	4402      	add	r2, r0
  400830:	f8ad 200c 	strh.w	r2, [sp, #12]

	row_start = y ;
  400834:	f8ad 100a 	strh.w	r1, [sp, #10]
	row_end   = height + y - 1;
  400838:	3b01      	subs	r3, #1
  40083a:	4419      	add	r1, r3
  40083c:	f8ad 1008 	strh.w	r1, [sp, #8]

	buf[0] = get_8b_to_16b(col_start);
  400840:	0a03      	lsrs	r3, r0, #8
  400842:	f88d 3004 	strb.w	r3, [sp, #4]
	buf[1] = get_0b_to_8b(col_start);
  400846:	f88d 0005 	strb.w	r0, [sp, #5]
	buf[2] = get_8b_to_16b(col_end);
  40084a:	f3c2 2307 	ubfx	r3, r2, #8, #8
  40084e:	f88d 3006 	strb.w	r3, [sp, #6]
	buf[3] = get_0b_to_8b(col_end);
  400852:	f88d 2007 	strb.w	r2, [sp, #7]
	ili9488_write_register(ILI9488_CMD_COLUMN_ADDRESS_SET, buf, cnt);
  400856:	2204      	movs	r2, #4
  400858:	eb0d 0102 	add.w	r1, sp, r2
  40085c:	202a      	movs	r0, #42	; 0x2a
  40085e:	4c10      	ldr	r4, [pc, #64]	; (4008a0 <ili9488_set_window+0x7c>)
  400860:	47a0      	blx	r4
	ili9488_write_register(ILI9488_CMD_NOP, 0, 0);
  400862:	2200      	movs	r2, #0
  400864:	4611      	mov	r1, r2
  400866:	4610      	mov	r0, r2
  400868:	47a0      	blx	r4

	/* Set Horizontal Address End Position */
	buf[0] = get_8b_to_16b(row_start);
  40086a:	f89d 300b 	ldrb.w	r3, [sp, #11]
  40086e:	f88d 3004 	strb.w	r3, [sp, #4]
	buf[1] = get_0b_to_8b(row_start);
  400872:	f89d 300a 	ldrb.w	r3, [sp, #10]
  400876:	f88d 3005 	strb.w	r3, [sp, #5]
	buf[2] = get_8b_to_16b(row_end);
  40087a:	f89d 3009 	ldrb.w	r3, [sp, #9]
  40087e:	f88d 3006 	strb.w	r3, [sp, #6]
	buf[3] = get_0b_to_8b(row_end);
  400882:	f89d 3008 	ldrb.w	r3, [sp, #8]
  400886:	f88d 3007 	strb.w	r3, [sp, #7]
	ili9488_write_register(ILI9488_CMD_PAGE_ADDRESS_SET, buf, cnt);
  40088a:	2204      	movs	r2, #4
  40088c:	eb0d 0102 	add.w	r1, sp, r2
  400890:	202b      	movs	r0, #43	; 0x2b
  400892:	47a0      	blx	r4
	ili9488_write_register(ILI9488_CMD_NOP, 0, 0);
  400894:	2200      	movs	r2, #0
  400896:	4611      	mov	r1, r2
  400898:	4610      	mov	r0, r2
  40089a:	47a0      	blx	r4
}
  40089c:	b004      	add	sp, #16
  40089e:	bd10      	pop	{r4, pc}
  4008a0:	00400729 	.word	0x00400729

004008a4 <ili9488_display_on>:

/**
 * \brief Turn on the LCD.
 */
void ili9488_display_on(void)
{
  4008a4:	b508      	push	{r3, lr}
	ili9488_write_register(ILI9488_CMD_DISPLAY_ON, 0, 0);
  4008a6:	2200      	movs	r2, #0
  4008a8:	4611      	mov	r1, r2
  4008aa:	2029      	movs	r0, #41	; 0x29
  4008ac:	4b01      	ldr	r3, [pc, #4]	; (4008b4 <ili9488_display_on+0x10>)
  4008ae:	4798      	blx	r3
  4008b0:	bd08      	pop	{r3, pc}
  4008b2:	bf00      	nop
  4008b4:	00400729 	.word	0x00400729

004008b8 <ili9488_set_foreground_color>:
 * \brief Set foreground color.
 *
 * \param ul_color foreground color.
 */
void ili9488_set_foreground_color(uint32_t ul_color)
{
  4008b8:	b410      	push	{r4}
		g_ul_pixel_cache[i] = ul_color;
	}
#endif
#ifdef ILI9488_SPIMODE
	for (i = 0; i < LCD_DATA_CACHE_SIZE * LCD_DATA_COLOR_UNIT; ) {
		g_ul_pixel_cache[i++] = ul_color>>16;
  4008ba:	f3c0 4407 	ubfx	r4, r0, #16, #8
		g_ul_pixel_cache[i++] = ul_color>>8;
  4008be:	f3c0 2107 	ubfx	r1, r0, #8, #8
  4008c2:	4b06      	ldr	r3, [pc, #24]	; (4008dc <ili9488_set_foreground_color+0x24>)
  4008c4:	f503 7270 	add.w	r2, r3, #960	; 0x3c0
		g_ul_pixel_cache[i++] = ul_color>>16;
  4008c8:	701c      	strb	r4, [r3, #0]
		g_ul_pixel_cache[i++] = ul_color>>8;
  4008ca:	7059      	strb	r1, [r3, #1]
		g_ul_pixel_cache[i++] = ul_color&0xFF;
  4008cc:	7098      	strb	r0, [r3, #2]
  4008ce:	3303      	adds	r3, #3
	for (i = 0; i < LCD_DATA_CACHE_SIZE * LCD_DATA_COLOR_UNIT; ) {
  4008d0:	4293      	cmp	r3, r2
  4008d2:	d1f9      	bne.n	4008c8 <ili9488_set_foreground_color+0x10>
	}
#endif
}
  4008d4:	f85d 4b04 	ldr.w	r4, [sp], #4
  4008d8:	4770      	bx	lr
  4008da:	bf00      	nop
  4008dc:	20400868 	.word	0x20400868

004008e0 <ili9488_set_cursor_position>:
 *
 * \param x X coordinate of upper-left corner on LCD.
 * \param y Y coordinate of upper-left corner on LCD.
 */
void ili9488_set_cursor_position(uint16_t x, uint16_t y)
{
  4008e0:	b510      	push	{r4, lr}
  4008e2:	b084      	sub	sp, #16
  4008e4:	f8ad 0006 	strh.w	r0, [sp, #6]
  4008e8:	f8ad 1004 	strh.w	r1, [sp, #4]
	uint32_t cnt = 0;

	ili9488_color_t buf[4];
	cnt = sizeof(buf)/sizeof(ili9488_color_t);

	buf[0] = get_8b_to_16b(x);
  4008ec:	0a03      	lsrs	r3, r0, #8
  4008ee:	f88d 300c 	strb.w	r3, [sp, #12]
	buf[1] = get_0b_to_8b(x);
  4008f2:	b2c0      	uxtb	r0, r0
  4008f4:	f88d 000d 	strb.w	r0, [sp, #13]
	buf[2] = get_8b_to_16b(x);
  4008f8:	f88d 300e 	strb.w	r3, [sp, #14]
	buf[3] = get_0b_to_8b(x);
  4008fc:	f88d 000f 	strb.w	r0, [sp, #15]
	ili9488_write_register(ILI9488_CMD_COLUMN_ADDRESS_SET, buf, cnt);
  400900:	2204      	movs	r2, #4
  400902:	a903      	add	r1, sp, #12
  400904:	202a      	movs	r0, #42	; 0x2a
  400906:	4c0e      	ldr	r4, [pc, #56]	; (400940 <ili9488_set_cursor_position+0x60>)
  400908:	47a0      	blx	r4
	ili9488_write_register(ILI9488_CMD_NOP, 0, 0);
  40090a:	2200      	movs	r2, #0
  40090c:	4611      	mov	r1, r2
  40090e:	4610      	mov	r0, r2
  400910:	47a0      	blx	r4


	/* Set Horizontal Address End Position */
	buf[0] = get_8b_to_16b(y);
  400912:	f89d 2005 	ldrb.w	r2, [sp, #5]
  400916:	f88d 200c 	strb.w	r2, [sp, #12]
	buf[1] = get_0b_to_8b(y);
  40091a:	f89d 3004 	ldrb.w	r3, [sp, #4]
  40091e:	f88d 300d 	strb.w	r3, [sp, #13]
	buf[2] = get_8b_to_16b(y);
  400922:	f88d 200e 	strb.w	r2, [sp, #14]
	buf[3] = get_0b_to_8b(y);
  400926:	f88d 300f 	strb.w	r3, [sp, #15]
	ili9488_write_register(ILI9488_CMD_PAGE_ADDRESS_SET, buf, cnt);
  40092a:	2204      	movs	r2, #4
  40092c:	a903      	add	r1, sp, #12
  40092e:	202b      	movs	r0, #43	; 0x2b
  400930:	47a0      	blx	r4
	ili9488_write_register(ILI9488_CMD_NOP, 0, 0);
  400932:	2200      	movs	r2, #0
  400934:	4611      	mov	r1, r2
  400936:	4610      	mov	r0, r2
  400938:	47a0      	blx	r4
}
  40093a:	b004      	add	sp, #16
  40093c:	bd10      	pop	{r4, pc}
  40093e:	bf00      	nop
  400940:	00400729 	.word	0x00400729

00400944 <ili9488_init>:
{
  400944:	e92d 43f0 	stmdb	sp!, {r4, r5, r6, r7, r8, r9, lr}
  400948:	b087      	sub	sp, #28
  40094a:	4681      	mov	r9, r0
	struct spi_device ILI9488_SPI_DEVICE = {
  40094c:	2703      	movs	r7, #3
  40094e:	ae06      	add	r6, sp, #24
  400950:	f846 7d08 	str.w	r7, [r6, #-8]!
	spi_master_init(BOARD_ILI9488_SPI);
  400954:	4d5d      	ldr	r5, [pc, #372]	; (400acc <ili9488_init+0x188>)
  400956:	4628      	mov	r0, r5
  400958:	4b5d      	ldr	r3, [pc, #372]	; (400ad0 <ili9488_init+0x18c>)
  40095a:	4798      	blx	r3
	spi_master_setup_device(BOARD_ILI9488_SPI, &ILI9488_SPI_DEVICE, SPI_MODE_3, ILI9488_SPI_BAUDRATE, 0);
  40095c:	2400      	movs	r4, #0
  40095e:	9400      	str	r4, [sp, #0]
  400960:	4b5c      	ldr	r3, [pc, #368]	; (400ad4 <ili9488_init+0x190>)
  400962:	463a      	mov	r2, r7
  400964:	4631      	mov	r1, r6
  400966:	4628      	mov	r0, r5
  400968:	f8df 8198 	ldr.w	r8, [pc, #408]	; 400b04 <ili9488_init+0x1c0>
  40096c:	47c0      	blx	r8
	spi_configure_cs_behavior(BOARD_ILI9488_SPI, BOARD_ILI9488_SPI_NPCS, SPI_CS_RISE_NO_TX);
  40096e:	4622      	mov	r2, r4
  400970:	4639      	mov	r1, r7
  400972:	4628      	mov	r0, r5
  400974:	4b58      	ldr	r3, [pc, #352]	; (400ad8 <ili9488_init+0x194>)
  400976:	4798      	blx	r3
	spi_select_device(BOARD_ILI9488_SPI, &ILI9488_SPI_DEVICE);
  400978:	4631      	mov	r1, r6
  40097a:	4628      	mov	r0, r5
  40097c:	4b57      	ldr	r3, [pc, #348]	; (400adc <ili9488_init+0x198>)
  40097e:	4798      	blx	r3
	p_spi->SPI_CR = SPI_CR_SPIEN;
  400980:	2001      	movs	r0, #1
  400982:	6028      	str	r0, [r5, #0]
 * \param p_spi Pointer to an SPI instance.
 * \param ul_sources Interrupts to be enabled.
 */
static inline void spi_enable_interrupt(Spi *p_spi, uint32_t ul_sources)
{
	p_spi->SPI_IER = ul_sources;
  400984:	6168      	str	r0, [r5, #20]
	ili9488_write_register(ILI9488_CMD_SOFTWARE_RESET, 0x0000, 0);
  400986:	4622      	mov	r2, r4
  400988:	4621      	mov	r1, r4
  40098a:	4e55      	ldr	r6, [pc, #340]	; (400ae0 <ili9488_init+0x19c>)
  40098c:	47b0      	blx	r6
	ili9488_delay(200);
  40098e:	20c8      	movs	r0, #200	; 0xc8
  400990:	4d54      	ldr	r5, [pc, #336]	; (400ae4 <ili9488_init+0x1a0>)
  400992:	47a8      	blx	r5
	ili9488_write_register(ILI9488_CMD_SLEEP_OUT, 0x0000, 0);
  400994:	4622      	mov	r2, r4
  400996:	4621      	mov	r1, r4
  400998:	2011      	movs	r0, #17
  40099a:	47b0      	blx	r6
	ili9488_delay(200);
  40099c:	20c8      	movs	r0, #200	; 0xc8
  40099e:	47a8      	blx	r5
	reg = 0x81;
  4009a0:	2381      	movs	r3, #129	; 0x81
  4009a2:	f88d 300a 	strb.w	r3, [sp, #10]
	param = 0x0;
  4009a6:	f88d 400b 	strb.w	r4, [sp, #11]
  4009aa:	2610      	movs	r6, #16
		ili9488_write_register(ILI9488_CMD_SPI_READ_SETTINGS, &reg, 1);
  4009ac:	f04f 0801 	mov.w	r8, #1
  4009b0:	4f4b      	ldr	r7, [pc, #300]	; (400ae0 <ili9488_init+0x19c>)
		for(j = 0; j < 0xFF; j++);
  4009b2:	4625      	mov	r5, r4
		ili9488_write_register(ILI9488_CMD_SPI_READ_SETTINGS, &reg, 1);
  4009b4:	4642      	mov	r2, r8
  4009b6:	f10d 010a 	add.w	r1, sp, #10
  4009ba:	20fb      	movs	r0, #251	; 0xfb
  4009bc:	47b8      	blx	r7
		reg++;
  4009be:	f89d 300a 	ldrb.w	r3, [sp, #10]
  4009c2:	3301      	adds	r3, #1
  4009c4:	f88d 300a 	strb.w	r3, [sp, #10]
		for(j = 0; j < 0xFF; j++);
  4009c8:	9503      	str	r5, [sp, #12]
  4009ca:	9b03      	ldr	r3, [sp, #12]
  4009cc:	2bfe      	cmp	r3, #254	; 0xfe
  4009ce:	d805      	bhi.n	4009dc <ili9488_init+0x98>
  4009d0:	9b03      	ldr	r3, [sp, #12]
  4009d2:	3301      	adds	r3, #1
  4009d4:	9303      	str	r3, [sp, #12]
  4009d6:	9b03      	ldr	r3, [sp, #12]
  4009d8:	2bfe      	cmp	r3, #254	; 0xfe
  4009da:	d9f9      	bls.n	4009d0 <ili9488_init+0x8c>
		ili9488_write_register(ILI9488_CMD_READ_ID4, 0, 0);
  4009dc:	462a      	mov	r2, r5
  4009de:	4629      	mov	r1, r5
  4009e0:	20d3      	movs	r0, #211	; 0xd3
  4009e2:	47b8      	blx	r7
			pio_set_pin_high(LCD_SPI_CDS_PIO);
  4009e4:	2006      	movs	r0, #6
  4009e6:	4b40      	ldr	r3, [pc, #256]	; (400ae8 <ili9488_init+0x1a4>)
  4009e8:	4798      	blx	r3
			spi_read_packet(BOARD_ILI9488_SPI, &chipidBuf, 1);
  4009ea:	4642      	mov	r2, r8
  4009ec:	f10d 0109 	add.w	r1, sp, #9
  4009f0:	4836      	ldr	r0, [pc, #216]	; (400acc <ili9488_init+0x188>)
  4009f2:	4b3e      	ldr	r3, [pc, #248]	; (400aec <ili9488_init+0x1a8>)
  4009f4:	4798      	blx	r3
			for(j = 0; j < 0xFF; j++);
  4009f6:	9503      	str	r5, [sp, #12]
  4009f8:	9b03      	ldr	r3, [sp, #12]
  4009fa:	2bfe      	cmp	r3, #254	; 0xfe
  4009fc:	d805      	bhi.n	400a0a <ili9488_init+0xc6>
  4009fe:	9b03      	ldr	r3, [sp, #12]
  400a00:	3301      	adds	r3, #1
  400a02:	9303      	str	r3, [sp, #12]
  400a04:	9b03      	ldr	r3, [sp, #12]
  400a06:	2bfe      	cmp	r3, #254	; 0xfe
  400a08:	d9f9      	bls.n	4009fe <ili9488_init+0xba>
		chipid |= (chipidBuf & 0xFF) << ((i - 1) << 3);
  400a0a:	f89d 3009 	ldrb.w	r3, [sp, #9]
  400a0e:	40b3      	lsls	r3, r6
  400a10:	431c      	orrs	r4, r3
		ili9488_write_register(ILI9488_CMD_SPI_READ_SETTINGS, &param, 1);
  400a12:	4642      	mov	r2, r8
  400a14:	f10d 010b 	add.w	r1, sp, #11
  400a18:	20fb      	movs	r0, #251	; 0xfb
  400a1a:	47b8      	blx	r7
		for(j = 0; j < 0xFFF; j++);
  400a1c:	9503      	str	r5, [sp, #12]
  400a1e:	9a03      	ldr	r2, [sp, #12]
  400a20:	f640 73fe 	movw	r3, #4094	; 0xffe
  400a24:	429a      	cmp	r2, r3
  400a26:	d806      	bhi.n	400a36 <ili9488_init+0xf2>
  400a28:	461a      	mov	r2, r3
  400a2a:	9b03      	ldr	r3, [sp, #12]
  400a2c:	3301      	adds	r3, #1
  400a2e:	9303      	str	r3, [sp, #12]
  400a30:	9b03      	ldr	r3, [sp, #12]
  400a32:	4293      	cmp	r3, r2
  400a34:	d9f9      	bls.n	400a2a <ili9488_init+0xe6>
  400a36:	3e08      	subs	r6, #8
	for (i = 3; i > 0; i--) {
  400a38:	f116 0f08 	cmn.w	r6, #8
  400a3c:	d1ba      	bne.n	4009b4 <ili9488_init+0x70>
	if (chipid != ILI9488_DEVICE_CODE) {
  400a3e:	f249 4388 	movw	r3, #38024	; 0x9488
  400a42:	429c      	cmp	r4, r3
  400a44:	d003      	beq.n	400a4e <ili9488_init+0x10a>
		return 1;
  400a46:	2001      	movs	r0, #1
}
  400a48:	b007      	add	sp, #28
  400a4a:	e8bd 83f0 	ldmia.w	sp!, {r4, r5, r6, r7, r8, r9, pc}
	param = 0x48;
  400a4e:	ad06      	add	r5, sp, #24
  400a50:	2348      	movs	r3, #72	; 0x48
  400a52:	f805 3d01 	strb.w	r3, [r5, #-1]!
	ili9488_write_register(ILI9488_CMD_MEMORY_ACCESS_CONTROL, &param, 1);
  400a56:	2201      	movs	r2, #1
  400a58:	4629      	mov	r1, r5
  400a5a:	2036      	movs	r0, #54	; 0x36
  400a5c:	4e20      	ldr	r6, [pc, #128]	; (400ae0 <ili9488_init+0x19c>)
  400a5e:	47b0      	blx	r6
	ili9488_delay(100);
  400a60:	2064      	movs	r0, #100	; 0x64
  400a62:	4c20      	ldr	r4, [pc, #128]	; (400ae4 <ili9488_init+0x1a0>)
  400a64:	47a0      	blx	r4
	param = 0x04;
  400a66:	2304      	movs	r3, #4
  400a68:	f88d 3017 	strb.w	r3, [sp, #23]
	ili9488_write_register(ILI9488_CMD_CABC_CONTROL_9, &param, 1);
  400a6c:	2201      	movs	r2, #1
  400a6e:	4629      	mov	r1, r5
  400a70:	20cf      	movs	r0, #207	; 0xcf
  400a72:	47b0      	blx	r6
	ili9488_delay(100);
  400a74:	2064      	movs	r0, #100	; 0x64
  400a76:	47a0      	blx	r4
	param = 0x06;
  400a78:	2306      	movs	r3, #6
  400a7a:	f88d 3017 	strb.w	r3, [sp, #23]
	ili9488_write_register(ILI9488_CMD_COLMOD_PIXEL_FORMAT_SET, &param, 1);
  400a7e:	2201      	movs	r2, #1
  400a80:	4629      	mov	r1, r5
  400a82:	203a      	movs	r0, #58	; 0x3a
  400a84:	47b0      	blx	r6
	ili9488_delay(100);
  400a86:	2064      	movs	r0, #100	; 0x64
  400a88:	47a0      	blx	r4
	ili9488_write_register(ILI9488_CMD_NORMAL_DISP_MODE_ON, 0, 0);
  400a8a:	2200      	movs	r2, #0
  400a8c:	4611      	mov	r1, r2
  400a8e:	2013      	movs	r0, #19
  400a90:	47b0      	blx	r6
	ili9488_delay(100);
  400a92:	2064      	movs	r0, #100	; 0x64
  400a94:	47a0      	blx	r4
	ili9488_display_on();
  400a96:	4b16      	ldr	r3, [pc, #88]	; (400af0 <ili9488_init+0x1ac>)
  400a98:	4798      	blx	r3
	ili9488_delay(100);
  400a9a:	2064      	movs	r0, #100	; 0x64
  400a9c:	47a0      	blx	r4
	ili9488_set_display_direction(LANDSCAPE);
  400a9e:	2000      	movs	r0, #0
  400aa0:	4b14      	ldr	r3, [pc, #80]	; (400af4 <ili9488_init+0x1b0>)
  400aa2:	4798      	blx	r3
	ili9488_delay(100);
  400aa4:	2064      	movs	r0, #100	; 0x64
  400aa6:	47a0      	blx	r4
	ili9488_set_window(0, 0,p_opt->ul_width,p_opt->ul_height);
  400aa8:	f8b9 3004 	ldrh.w	r3, [r9, #4]
  400aac:	f8b9 2000 	ldrh.w	r2, [r9]
  400ab0:	2100      	movs	r1, #0
  400ab2:	4608      	mov	r0, r1
  400ab4:	4c10      	ldr	r4, [pc, #64]	; (400af8 <ili9488_init+0x1b4>)
  400ab6:	47a0      	blx	r4
	ili9488_set_foreground_color(p_opt->foreground_color);
  400ab8:	f8d9 0008 	ldr.w	r0, [r9, #8]
  400abc:	4b0f      	ldr	r3, [pc, #60]	; (400afc <ili9488_init+0x1b8>)
  400abe:	4798      	blx	r3
	ili9488_set_cursor_position(0, 0);
  400ac0:	2100      	movs	r1, #0
  400ac2:	4608      	mov	r0, r1
  400ac4:	4b0e      	ldr	r3, [pc, #56]	; (400b00 <ili9488_init+0x1bc>)
  400ac6:	4798      	blx	r3
	return 0;
  400ac8:	2000      	movs	r0, #0
  400aca:	e7bd      	b.n	400a48 <ili9488_init+0x104>
  400acc:	40008000 	.word	0x40008000
  400ad0:	00400249 	.word	0x00400249
  400ad4:	01312d00 	.word	0x01312d00
  400ad8:	004011e9 	.word	0x004011e9
  400adc:	0040031d 	.word	0x0040031d
  400ae0:	00400729 	.word	0x00400729
  400ae4:	004007dd 	.word	0x004007dd
  400ae8:	00400dc9 	.word	0x00400dc9
  400aec:	00400383 	.word	0x00400383
  400af0:	004008a5 	.word	0x004008a5
  400af4:	004007f9 	.word	0x004007f9
  400af8:	00400825 	.word	0x00400825
  400afc:	004008b9 	.word	0x004008b9
  400b00:	004008e1 	.word	0x004008e1
  400b04:	0040029d 	.word	0x0040029d

00400b08 <ili9488_draw_filled_rectangle>:
 * \param ul_x2 X coordinate of lower-right corner on LCD.
 * \param ul_y2 Y coordinate of lower-right corner on LCD.
 */
void ili9488_draw_filled_rectangle(uint32_t ul_x1, uint32_t ul_y1,
		uint32_t ul_x2, uint32_t ul_y2)
{
  400b08:	e92d 41f0 	stmdb	sp!, {r4, r5, r6, r7, r8, lr}
  400b0c:	b084      	sub	sp, #16
  400b0e:	9003      	str	r0, [sp, #12]
  400b10:	9102      	str	r1, [sp, #8]
  400b12:	9201      	str	r2, [sp, #4]
  400b14:	aa04      	add	r2, sp, #16
  400b16:	f842 3d10 	str.w	r3, [r2, #-16]!
	uint32_t size, blocks;

	/* Swap coordinates if necessary */
	ili9488_check_box_coordinates(&ul_x1, &ul_y1, &ul_x2, &ul_y2);
  400b1a:	4613      	mov	r3, r2
  400b1c:	aa01      	add	r2, sp, #4
  400b1e:	a902      	add	r1, sp, #8
  400b20:	a803      	add	r0, sp, #12
  400b22:	4c22      	ldr	r4, [pc, #136]	; (400bac <ili9488_draw_filled_rectangle+0xa4>)
  400b24:	47a0      	blx	r4

	/* Determine the refresh window area */
	ili9488_set_window(ul_x1, ul_y1, (ul_x2 - ul_x1) + 1, (ul_y2 - ul_y1) + 1);
  400b26:	f8bd 000c 	ldrh.w	r0, [sp, #12]
  400b2a:	f8bd 1008 	ldrh.w	r1, [sp, #8]
  400b2e:	9b00      	ldr	r3, [sp, #0]
  400b30:	3301      	adds	r3, #1
  400b32:	1a5b      	subs	r3, r3, r1
  400b34:	9a01      	ldr	r2, [sp, #4]
  400b36:	3201      	adds	r2, #1
  400b38:	1a12      	subs	r2, r2, r0
  400b3a:	b29b      	uxth	r3, r3
  400b3c:	b292      	uxth	r2, r2
  400b3e:	4c1c      	ldr	r4, [pc, #112]	; (400bb0 <ili9488_draw_filled_rectangle+0xa8>)
  400b40:	47a0      	blx	r4

	/* Prepare to write in GRAM */
	ili9488_write_ram_prepare();
  400b42:	4b1c      	ldr	r3, [pc, #112]	; (400bb4 <ili9488_draw_filled_rectangle+0xac>)
  400b44:	4798      	blx	r3

	size = (ul_x2 - ul_x1 + 1) * (ul_y2 - ul_y1 + 1);
  400b46:	9903      	ldr	r1, [sp, #12]
  400b48:	9d01      	ldr	r5, [sp, #4]
  400b4a:	1a69      	subs	r1, r5, r1
  400b4c:	9d00      	ldr	r5, [sp, #0]
  400b4e:	3501      	adds	r5, #1
  400b50:	9b02      	ldr	r3, [sp, #8]
  400b52:	1aed      	subs	r5, r5, r3
  400b54:	fb01 5505 	mla	r5, r1, r5, r5
	/* Send pixels blocks => one SPI IT / block */
	blocks = size / LCD_DATA_CACHE_SIZE;
  400b58:	4b17      	ldr	r3, [pc, #92]	; (400bb8 <ili9488_draw_filled_rectangle+0xb0>)
  400b5a:	fba3 2305 	umull	r2, r3, r3, r5
  400b5e:	0a1b      	lsrs	r3, r3, #8
	while (blocks--) {
  400b60:	b163      	cbz	r3, 400b7c <ili9488_draw_filled_rectangle+0x74>
  400b62:	1e5c      	subs	r4, r3, #1
		ili9488_write_ram_buffer(g_ul_pixel_cache, LCD_DATA_CACHE_SIZE * LCD_DATA_COLOR_UNIT);
  400b64:	f8df 8058 	ldr.w	r8, [pc, #88]	; 400bc0 <ili9488_draw_filled_rectangle+0xb8>
  400b68:	f44f 7770 	mov.w	r7, #960	; 0x3c0
  400b6c:	4e13      	ldr	r6, [pc, #76]	; (400bbc <ili9488_draw_filled_rectangle+0xb4>)
  400b6e:	4639      	mov	r1, r7
  400b70:	4640      	mov	r0, r8
  400b72:	47b0      	blx	r6
	while (blocks--) {
  400b74:	3c01      	subs	r4, #1
  400b76:	f1b4 3fff 	cmp.w	r4, #4294967295
  400b7a:	d1f8      	bne.n	400b6e <ili9488_draw_filled_rectangle+0x66>
	}

	/* Send remaining pixels */
	ili9488_write_ram_buffer(g_ul_pixel_cache, (size % LCD_DATA_CACHE_SIZE) * LCD_DATA_COLOR_UNIT);
  400b7c:	490e      	ldr	r1, [pc, #56]	; (400bb8 <ili9488_draw_filled_rectangle+0xb0>)
  400b7e:	fba1 3105 	umull	r3, r1, r1, r5
  400b82:	0a09      	lsrs	r1, r1, #8
  400b84:	eb01 0181 	add.w	r1, r1, r1, lsl #2
  400b88:	eba5 1181 	sub.w	r1, r5, r1, lsl #6
  400b8c:	eb01 0141 	add.w	r1, r1, r1, lsl #1
  400b90:	480b      	ldr	r0, [pc, #44]	; (400bc0 <ili9488_draw_filled_rectangle+0xb8>)
  400b92:	4b0a      	ldr	r3, [pc, #40]	; (400bbc <ili9488_draw_filled_rectangle+0xb4>)
  400b94:	4798      	blx	r3

	/* Reset the refresh window area */
	ili9488_set_window(0, 0, ILI9488_LCD_WIDTH, ILI9488_LCD_HEIGHT);
  400b96:	f44f 73f0 	mov.w	r3, #480	; 0x1e0
  400b9a:	f44f 72a0 	mov.w	r2, #320	; 0x140
  400b9e:	2100      	movs	r1, #0
  400ba0:	4608      	mov	r0, r1
  400ba2:	4c03      	ldr	r4, [pc, #12]	; (400bb0 <ili9488_draw_filled_rectangle+0xa8>)
  400ba4:	47a0      	blx	r4

}
  400ba6:	b004      	add	sp, #16
  400ba8:	e8bd 81f0 	ldmia.w	sp!, {r4, r5, r6, r7, r8, pc}
  400bac:	00400695 	.word	0x00400695
  400bb0:	00400825 	.word	0x00400825
  400bb4:	004006ed 	.word	0x004006ed
  400bb8:	cccccccd 	.word	0xcccccccd
  400bbc:	0040079d 	.word	0x0040079d
  400bc0:	20400868 	.word	0x20400868

00400bc4 <ili9488_draw_pixmap>:
 * \param ul_height height of the picture.
 * \param p_ul_pixmap pixmap of the image.
 */
void ili9488_draw_pixmap(uint32_t ul_x, uint32_t ul_y, uint32_t ul_width,
		uint32_t ul_height, const ili9488_color_t *p_ul_pixmap)
{
  400bc4:	b510      	push	{r4, lr}
  400bc6:	b084      	sub	sp, #16
	uint32_t size;
	uint32_t dwX1, dwY1, dwX2, dwY2;
	dwX1 = ul_x;
  400bc8:	9003      	str	r0, [sp, #12]
	dwY1 = ul_y;
  400bca:	9102      	str	r1, [sp, #8]
	dwX2 = ul_x + ul_width - 1;
  400bcc:	3a01      	subs	r2, #1
  400bce:	4410      	add	r0, r2
  400bd0:	9001      	str	r0, [sp, #4]
	dwY2 = ul_y + ul_height - 1;
  400bd2:	3b01      	subs	r3, #1
  400bd4:	4419      	add	r1, r3
  400bd6:	ab04      	add	r3, sp, #16
  400bd8:	f843 1d10 	str.w	r1, [r3, #-16]!

	/* Swap coordinates if necessary */
	ili9488_check_box_coordinates(&dwX1, &dwY1, &dwX2, &dwY2);
  400bdc:	aa01      	add	r2, sp, #4
  400bde:	a902      	add	r1, sp, #8
  400be0:	a803      	add	r0, sp, #12
  400be2:	4c13      	ldr	r4, [pc, #76]	; (400c30 <ili9488_draw_pixmap+0x6c>)
  400be4:	47a0      	blx	r4

	/* Determine the refresh window area */
	ili9488_set_window(dwX1, dwY1, (dwX2 - dwX1 + 1), (dwY2 - dwY1 + 1));
  400be6:	f8bd 000c 	ldrh.w	r0, [sp, #12]
  400bea:	f8bd 1008 	ldrh.w	r1, [sp, #8]
  400bee:	9b00      	ldr	r3, [sp, #0]
  400bf0:	3301      	adds	r3, #1
  400bf2:	1a5b      	subs	r3, r3, r1
  400bf4:	9a01      	ldr	r2, [sp, #4]
  400bf6:	3201      	adds	r2, #1
  400bf8:	1a12      	subs	r2, r2, r0
  400bfa:	b29b      	uxth	r3, r3
  400bfc:	b292      	uxth	r2, r2
  400bfe:	4c0d      	ldr	r4, [pc, #52]	; (400c34 <ili9488_draw_pixmap+0x70>)
  400c00:	47a0      	blx	r4

	size = (dwX2 - dwX1) * (dwY2 - dwY1);
  400c02:	9903      	ldr	r1, [sp, #12]
  400c04:	9a01      	ldr	r2, [sp, #4]
  400c06:	1a51      	subs	r1, r2, r1
  400c08:	9a02      	ldr	r2, [sp, #8]
  400c0a:	9b00      	ldr	r3, [sp, #0]
  400c0c:	1a9a      	subs	r2, r3, r2
  400c0e:	fb02 f201 	mul.w	r2, r2, r1

	ili9488_write_register(ILI9488_CMD_MEMORY_WRITE, p_ul_pixmap, size * LCD_DATA_COLOR_UNIT);
  400c12:	eb02 0242 	add.w	r2, r2, r2, lsl #1
  400c16:	9906      	ldr	r1, [sp, #24]
  400c18:	202c      	movs	r0, #44	; 0x2c
  400c1a:	4b07      	ldr	r3, [pc, #28]	; (400c38 <ili9488_draw_pixmap+0x74>)
  400c1c:	4798      	blx	r3

	/* Reset the refresh window area */
	ili9488_set_window(0, 0, ILI9488_LCD_WIDTH, ILI9488_LCD_HEIGHT);
  400c1e:	f44f 73f0 	mov.w	r3, #480	; 0x1e0
  400c22:	f44f 72a0 	mov.w	r2, #320	; 0x140
  400c26:	2100      	movs	r1, #0
  400c28:	4608      	mov	r0, r1
  400c2a:	47a0      	blx	r4
}
  400c2c:	b004      	add	sp, #16
  400c2e:	bd10      	pop	{r4, pc}
  400c30:	00400695 	.word	0x00400695
  400c34:	00400825 	.word	0x00400825
  400c38:	00400729 	.word	0x00400729

00400c3c <pio_set>:
 * \param p_pio Pointer to a PIO instance.
 * \param ul_mask Bitmask of one or more pin(s) to configure.
 */
void pio_set(Pio *p_pio, const uint32_t ul_mask)
{
	p_pio->PIO_SODR = ul_mask;
  400c3c:	6301      	str	r1, [r0, #48]	; 0x30
  400c3e:	4770      	bx	lr

00400c40 <pio_set_peripheral>:
		const uint32_t ul_mask)
{
	uint32_t ul_sr;

	/* Disable interrupts on the pin(s) */
	p_pio->PIO_IDR = ul_mask;
  400c40:	6442      	str	r2, [r0, #68]	; 0x44

#if (SAM3S || SAM3N || SAM4S || SAM4E || SAM4N || SAM4C || SAMG || SAM4CP || SAM4CM || SAMV71 || SAMV70 || SAME70 || SAMS70)
	switch (ul_type) {
  400c42:	f1b1 5fc0 	cmp.w	r1, #402653184	; 0x18000000
  400c46:	d03a      	beq.n	400cbe <pio_set_peripheral+0x7e>
  400c48:	d813      	bhi.n	400c72 <pio_set_peripheral+0x32>
  400c4a:	f1b1 6f00 	cmp.w	r1, #134217728	; 0x8000000
  400c4e:	d025      	beq.n	400c9c <pio_set_peripheral+0x5c>
  400c50:	f1b1 5f80 	cmp.w	r1, #268435456	; 0x10000000
  400c54:	d10a      	bne.n	400c6c <pio_set_peripheral+0x2c>

		ul_sr = p_pio->PIO_ABCDSR[1];
		p_pio->PIO_ABCDSR[1] &= (~ul_mask & ul_sr);
		break;
	case PIO_PERIPH_B:
		ul_sr = p_pio->PIO_ABCDSR[0];
  400c56:	6f03      	ldr	r3, [r0, #112]	; 0x70
		p_pio->PIO_ABCDSR[0] = (ul_mask | ul_sr);
  400c58:	4313      	orrs	r3, r2
  400c5a:	6703      	str	r3, [r0, #112]	; 0x70

		ul_sr = p_pio->PIO_ABCDSR[1];
  400c5c:	6f43      	ldr	r3, [r0, #116]	; 0x74
		p_pio->PIO_ABCDSR[1] &= (~ul_mask & ul_sr);
  400c5e:	6f41      	ldr	r1, [r0, #116]	; 0x74
  400c60:	400b      	ands	r3, r1
  400c62:	ea23 0302 	bic.w	r3, r3, r2
  400c66:	6743      	str	r3, [r0, #116]	; 0x74
#else
#error "Unsupported device"
#endif

	/* Remove the pins from under the control of PIO */
	p_pio->PIO_PDR = ul_mask;
  400c68:	6042      	str	r2, [r0, #4]
  400c6a:	4770      	bx	lr
	switch (ul_type) {
  400c6c:	2900      	cmp	r1, #0
  400c6e:	d1fb      	bne.n	400c68 <pio_set_peripheral+0x28>
  400c70:	4770      	bx	lr
  400c72:	f1b1 5f20 	cmp.w	r1, #671088640	; 0x28000000
  400c76:	d021      	beq.n	400cbc <pio_set_peripheral+0x7c>
  400c78:	d809      	bhi.n	400c8e <pio_set_peripheral+0x4e>
  400c7a:	f1b1 5f00 	cmp.w	r1, #536870912	; 0x20000000
  400c7e:	d1f3      	bne.n	400c68 <pio_set_peripheral+0x28>
		ul_sr = p_pio->PIO_ABCDSR[0];
  400c80:	6f03      	ldr	r3, [r0, #112]	; 0x70
		p_pio->PIO_ABCDSR[0] = (ul_mask | ul_sr);
  400c82:	4313      	orrs	r3, r2
  400c84:	6703      	str	r3, [r0, #112]	; 0x70
		ul_sr = p_pio->PIO_ABCDSR[1];
  400c86:	6f43      	ldr	r3, [r0, #116]	; 0x74
		p_pio->PIO_ABCDSR[1] = (ul_mask | ul_sr);
  400c88:	4313      	orrs	r3, r2
  400c8a:	6743      	str	r3, [r0, #116]	; 0x74
		break;
  400c8c:	e7ec      	b.n	400c68 <pio_set_peripheral+0x28>
	switch (ul_type) {
  400c8e:	f1b1 5f40 	cmp.w	r1, #805306368	; 0x30000000
  400c92:	d013      	beq.n	400cbc <pio_set_peripheral+0x7c>
  400c94:	f1b1 5f60 	cmp.w	r1, #939524096	; 0x38000000
  400c98:	d010      	beq.n	400cbc <pio_set_peripheral+0x7c>
  400c9a:	e7e5      	b.n	400c68 <pio_set_peripheral+0x28>
{
  400c9c:	b410      	push	{r4}
		ul_sr = p_pio->PIO_ABCDSR[0];
  400c9e:	6f01      	ldr	r1, [r0, #112]	; 0x70
		p_pio->PIO_ABCDSR[0] &= (~ul_mask & ul_sr);
  400ca0:	6f04      	ldr	r4, [r0, #112]	; 0x70
  400ca2:	43d3      	mvns	r3, r2
  400ca4:	4021      	ands	r1, r4
  400ca6:	461c      	mov	r4, r3
  400ca8:	4019      	ands	r1, r3
  400caa:	6701      	str	r1, [r0, #112]	; 0x70
		ul_sr = p_pio->PIO_ABCDSR[1];
  400cac:	6f43      	ldr	r3, [r0, #116]	; 0x74
		p_pio->PIO_ABCDSR[1] &= (~ul_mask & ul_sr);
  400cae:	6f41      	ldr	r1, [r0, #116]	; 0x74
  400cb0:	400b      	ands	r3, r1
  400cb2:	4023      	ands	r3, r4
  400cb4:	6743      	str	r3, [r0, #116]	; 0x74
	p_pio->PIO_PDR = ul_mask;
  400cb6:	6042      	str	r2, [r0, #4]
}
  400cb8:	f85d 4b04 	ldr.w	r4, [sp], #4
  400cbc:	4770      	bx	lr
		ul_sr = p_pio->PIO_ABCDSR[0];
  400cbe:	6f03      	ldr	r3, [r0, #112]	; 0x70
		p_pio->PIO_ABCDSR[0] &= (~ul_mask & ul_sr);
  400cc0:	6f01      	ldr	r1, [r0, #112]	; 0x70
  400cc2:	400b      	ands	r3, r1
  400cc4:	ea23 0302 	bic.w	r3, r3, r2
  400cc8:	6703      	str	r3, [r0, #112]	; 0x70
		ul_sr = p_pio->PIO_ABCDSR[1];
  400cca:	6f43      	ldr	r3, [r0, #116]	; 0x74
		p_pio->PIO_ABCDSR[1] = (ul_mask | ul_sr);
  400ccc:	4313      	orrs	r3, r2
  400cce:	6743      	str	r3, [r0, #116]	; 0x74
		break;
  400cd0:	e7ca      	b.n	400c68 <pio_set_peripheral+0x28>

00400cd2 <pio_set_input>:
 * \param p_pio Pointer to a PIO instance.
 * \param ul_mask Interrupt sources bit map.
 */
void pio_disable_interrupt(Pio *p_pio, const uint32_t ul_mask)
{
	p_pio->PIO_IDR = ul_mask;
  400cd2:	6441      	str	r1, [r0, #68]	; 0x44
	if (ul_pull_up_enable) {
  400cd4:	f012 0f01 	tst.w	r2, #1
  400cd8:	d10d      	bne.n	400cf6 <pio_set_input+0x24>
		p_pio->PIO_PUDR = ul_mask;
  400cda:	6601      	str	r1, [r0, #96]	; 0x60
	if (ul_attribute & (PIO_DEGLITCH | PIO_DEBOUNCE)) {
  400cdc:	f012 0f0a 	tst.w	r2, #10
  400ce0:	d00b      	beq.n	400cfa <pio_set_input+0x28>
		p_pio->PIO_IFER = ul_mask;
  400ce2:	6201      	str	r1, [r0, #32]
	if (ul_attribute & PIO_DEGLITCH) {
  400ce4:	f012 0f02 	tst.w	r2, #2
  400ce8:	d109      	bne.n	400cfe <pio_set_input+0x2c>
		if (ul_attribute & PIO_DEBOUNCE) {
  400cea:	f012 0f08 	tst.w	r2, #8
  400cee:	d008      	beq.n	400d02 <pio_set_input+0x30>
			p_pio->PIO_IFSCER = ul_mask;
  400cf0:	f8c0 1084 	str.w	r1, [r0, #132]	; 0x84
  400cf4:	e005      	b.n	400d02 <pio_set_input+0x30>
		p_pio->PIO_PUER = ul_mask;
  400cf6:	6641      	str	r1, [r0, #100]	; 0x64
  400cf8:	e7f0      	b.n	400cdc <pio_set_input+0xa>
		p_pio->PIO_IFDR = ul_mask;
  400cfa:	6241      	str	r1, [r0, #36]	; 0x24
  400cfc:	e7f2      	b.n	400ce4 <pio_set_input+0x12>
		p_pio->PIO_IFSCDR = ul_mask;
  400cfe:	f8c0 1080 	str.w	r1, [r0, #128]	; 0x80
	p_pio->PIO_ODR = ul_mask;
  400d02:	6141      	str	r1, [r0, #20]
	p_pio->PIO_PER = ul_mask;
  400d04:	6001      	str	r1, [r0, #0]
  400d06:	4770      	bx	lr

00400d08 <pio_set_output>:
{
  400d08:	b410      	push	{r4}
  400d0a:	9c01      	ldr	r4, [sp, #4]
	p_pio->PIO_IDR = ul_mask;
  400d0c:	6441      	str	r1, [r0, #68]	; 0x44
	if (ul_pull_up_enable) {
  400d0e:	b94c      	cbnz	r4, 400d24 <pio_set_output+0x1c>
		p_pio->PIO_PUDR = ul_mask;
  400d10:	6601      	str	r1, [r0, #96]	; 0x60
	if (ul_multidrive_enable) {
  400d12:	b14b      	cbz	r3, 400d28 <pio_set_output+0x20>
		p_pio->PIO_MDER = ul_mask;
  400d14:	6501      	str	r1, [r0, #80]	; 0x50
	if (ul_default_level) {
  400d16:	b94a      	cbnz	r2, 400d2c <pio_set_output+0x24>
		p_pio->PIO_CODR = ul_mask;
  400d18:	6341      	str	r1, [r0, #52]	; 0x34
	p_pio->PIO_OER = ul_mask;
  400d1a:	6101      	str	r1, [r0, #16]
	p_pio->PIO_PER = ul_mask;
  400d1c:	6001      	str	r1, [r0, #0]
}
  400d1e:	f85d 4b04 	ldr.w	r4, [sp], #4
  400d22:	4770      	bx	lr
		p_pio->PIO_PUER = ul_mask;
  400d24:	6641      	str	r1, [r0, #100]	; 0x64
  400d26:	e7f4      	b.n	400d12 <pio_set_output+0xa>
		p_pio->PIO_MDDR = ul_mask;
  400d28:	6541      	str	r1, [r0, #84]	; 0x54
  400d2a:	e7f4      	b.n	400d16 <pio_set_output+0xe>
		p_pio->PIO_SODR = ul_mask;
  400d2c:	6301      	str	r1, [r0, #48]	; 0x30
  400d2e:	e7f4      	b.n	400d1a <pio_set_output+0x12>

00400d30 <pio_configure>:
{
  400d30:	b570      	push	{r4, r5, r6, lr}
  400d32:	b082      	sub	sp, #8
  400d34:	4605      	mov	r5, r0
  400d36:	4616      	mov	r6, r2
  400d38:	461c      	mov	r4, r3
	switch (ul_type) {
  400d3a:	f1b1 5f00 	cmp.w	r1, #536870912	; 0x20000000
  400d3e:	d014      	beq.n	400d6a <pio_configure+0x3a>
  400d40:	d90a      	bls.n	400d58 <pio_configure+0x28>
  400d42:	f1b1 5f40 	cmp.w	r1, #805306368	; 0x30000000
  400d46:	d024      	beq.n	400d92 <pio_configure+0x62>
  400d48:	f1b1 5f60 	cmp.w	r1, #939524096	; 0x38000000
  400d4c:	d021      	beq.n	400d92 <pio_configure+0x62>
  400d4e:	f1b1 5f20 	cmp.w	r1, #671088640	; 0x28000000
  400d52:	d017      	beq.n	400d84 <pio_configure+0x54>
		return 0;
  400d54:	2000      	movs	r0, #0
  400d56:	e01a      	b.n	400d8e <pio_configure+0x5e>
	switch (ul_type) {
  400d58:	f1b1 5f80 	cmp.w	r1, #268435456	; 0x10000000
  400d5c:	d005      	beq.n	400d6a <pio_configure+0x3a>
  400d5e:	f1b1 5fc0 	cmp.w	r1, #402653184	; 0x18000000
  400d62:	d002      	beq.n	400d6a <pio_configure+0x3a>
  400d64:	f1b1 6f00 	cmp.w	r1, #134217728	; 0x8000000
  400d68:	d1f4      	bne.n	400d54 <pio_configure+0x24>
		pio_set_peripheral(p_pio, ul_type, ul_mask);
  400d6a:	4632      	mov	r2, r6
  400d6c:	4628      	mov	r0, r5
  400d6e:	4b11      	ldr	r3, [pc, #68]	; (400db4 <pio_configure+0x84>)
  400d70:	4798      	blx	r3
	if (ul_pull_up_enable) {
  400d72:	f014 0f01 	tst.w	r4, #1
  400d76:	d102      	bne.n	400d7e <pio_configure+0x4e>
		p_pio->PIO_PUDR = ul_mask;
  400d78:	662e      	str	r6, [r5, #96]	; 0x60
	return 1;
  400d7a:	2001      	movs	r0, #1
  400d7c:	e007      	b.n	400d8e <pio_configure+0x5e>
		p_pio->PIO_PUER = ul_mask;
  400d7e:	666e      	str	r6, [r5, #100]	; 0x64
	return 1;
  400d80:	2001      	movs	r0, #1
  400d82:	e004      	b.n	400d8e <pio_configure+0x5e>
		pio_set_input(p_pio, ul_mask, ul_attribute);
  400d84:	461a      	mov	r2, r3
  400d86:	4631      	mov	r1, r6
  400d88:	4b0b      	ldr	r3, [pc, #44]	; (400db8 <pio_configure+0x88>)
  400d8a:	4798      	blx	r3
	return 1;
  400d8c:	2001      	movs	r0, #1
}
  400d8e:	b002      	add	sp, #8
  400d90:	bd70      	pop	{r4, r5, r6, pc}
		pio_set_output(p_pio, ul_mask, (ul_type == PIO_OUTPUT_1),
  400d92:	f004 0301 	and.w	r3, r4, #1
  400d96:	9300      	str	r3, [sp, #0]
  400d98:	f3c4 0380 	ubfx	r3, r4, #2, #1
  400d9c:	f1b1 5f60 	cmp.w	r1, #939524096	; 0x38000000
  400da0:	bf14      	ite	ne
  400da2:	2200      	movne	r2, #0
  400da4:	2201      	moveq	r2, #1
  400da6:	4631      	mov	r1, r6
  400da8:	4628      	mov	r0, r5
  400daa:	4c04      	ldr	r4, [pc, #16]	; (400dbc <pio_configure+0x8c>)
  400dac:	47a0      	blx	r4
	return 1;
  400dae:	2001      	movs	r0, #1
		break;
  400db0:	e7ed      	b.n	400d8e <pio_configure+0x5e>
  400db2:	bf00      	nop
  400db4:	00400c41 	.word	0x00400c41
  400db8:	00400cd3 	.word	0x00400cd3
  400dbc:	00400d09 	.word	0x00400d09

00400dc0 <pio_get_interrupt_status>:
 *
 * \return The interrupt status value.
 */
uint32_t pio_get_interrupt_status(const Pio *p_pio)
{
	return p_pio->PIO_ISR;
  400dc0:	6cc0      	ldr	r0, [r0, #76]	; 0x4c
}
  400dc2:	4770      	bx	lr

00400dc4 <pio_get_interrupt_mask>:
 *
 * \return The interrupt mask value.
 */
uint32_t pio_get_interrupt_mask(const Pio *p_pio)
{
	return p_pio->PIO_IMR;
  400dc4:	6c80      	ldr	r0, [r0, #72]	; 0x48
}
  400dc6:	4770      	bx	lr

00400dc8 <pio_set_pin_high>:
		p_pio = PIOC;
	} else {
		p_pio = (Pio *)((uint32_t)PIOA + (PIO_DELTA * (ul_pin >> 5)));
	}
#else
	p_pio = (Pio *)((uint32_t)PIOA + (PIO_DELTA * (ul_pin >> 5)));
  400dc8:	4b05      	ldr	r3, [pc, #20]	; (400de0 <pio_set_pin_high+0x18>)
  400dca:	eb03 1350 	add.w	r3, r3, r0, lsr #5
  400dce:	025b      	lsls	r3, r3, #9
	p_pio->PIO_SODR = 1 << (ul_pin & 0x1F);
  400dd0:	f000 001f 	and.w	r0, r0, #31
  400dd4:	2201      	movs	r2, #1
  400dd6:	fa02 f000 	lsl.w	r0, r2, r0
  400dda:	6318      	str	r0, [r3, #48]	; 0x30
  400ddc:	4770      	bx	lr
  400dde:	bf00      	nop
  400de0:	00200707 	.word	0x00200707

00400de4 <pio_set_pin_low>:
	p_pio = (Pio *)((uint32_t)PIOA + (PIO_DELTA * (ul_pin >> 5)));
  400de4:	4b05      	ldr	r3, [pc, #20]	; (400dfc <pio_set_pin_low+0x18>)
  400de6:	eb03 1350 	add.w	r3, r3, r0, lsr #5
  400dea:	025b      	lsls	r3, r3, #9
	p_pio->PIO_CODR = 1 << (ul_pin & 0x1F);
  400dec:	f000 001f 	and.w	r0, r0, #31
  400df0:	2201      	movs	r2, #1
  400df2:	fa02 f000 	lsl.w	r0, r2, r0
  400df6:	6358      	str	r0, [r3, #52]	; 0x34
  400df8:	4770      	bx	lr
  400dfa:	bf00      	nop
  400dfc:	00200707 	.word	0x00200707

00400e00 <pio_configure_pin>:
{
  400e00:	b570      	push	{r4, r5, r6, lr}
  400e02:	b082      	sub	sp, #8
  400e04:	460d      	mov	r5, r1
	p_pio = (Pio *)((uint32_t)PIOA + (PIO_DELTA * (ul_pin >> 5)));
  400e06:	4c46      	ldr	r4, [pc, #280]	; (400f20 <pio_configure_pin+0x120>)
  400e08:	eb04 1450 	add.w	r4, r4, r0, lsr #5
  400e0c:	0264      	lsls	r4, r4, #9
	switch (ul_flags & PIO_TYPE_Msk) {
  400e0e:	f001 43f0 	and.w	r3, r1, #2013265920	; 0x78000000
  400e12:	f1b3 5f00 	cmp.w	r3, #536870912	; 0x20000000
  400e16:	d059      	beq.n	400ecc <pio_configure_pin+0xcc>
  400e18:	d80a      	bhi.n	400e30 <pio_configure_pin+0x30>
  400e1a:	f1b3 5f80 	cmp.w	r3, #268435456	; 0x10000000
  400e1e:	d02f      	beq.n	400e80 <pio_configure_pin+0x80>
  400e20:	f1b3 5fc0 	cmp.w	r3, #402653184	; 0x18000000
  400e24:	d03f      	beq.n	400ea6 <pio_configure_pin+0xa6>
  400e26:	f1b3 6f00 	cmp.w	r3, #134217728	; 0x8000000
  400e2a:	d016      	beq.n	400e5a <pio_configure_pin+0x5a>
		return 0;
  400e2c:	2000      	movs	r0, #0
  400e2e:	e012      	b.n	400e56 <pio_configure_pin+0x56>
	switch (ul_flags & PIO_TYPE_Msk) {
  400e30:	f1b3 5f40 	cmp.w	r3, #805306368	; 0x30000000
  400e34:	d05d      	beq.n	400ef2 <pio_configure_pin+0xf2>
  400e36:	f1b3 5f60 	cmp.w	r3, #939524096	; 0x38000000
  400e3a:	d05a      	beq.n	400ef2 <pio_configure_pin+0xf2>
  400e3c:	f1b3 5f20 	cmp.w	r3, #671088640	; 0x28000000
  400e40:	d1f4      	bne.n	400e2c <pio_configure_pin+0x2c>
		pio_set_input(p_pio, (1 << (ul_pin & 0x1F)), ul_flags);
  400e42:	f000 011f 	and.w	r1, r0, #31
  400e46:	2601      	movs	r6, #1
  400e48:	462a      	mov	r2, r5
  400e4a:	fa06 f101 	lsl.w	r1, r6, r1
  400e4e:	4620      	mov	r0, r4
  400e50:	4b34      	ldr	r3, [pc, #208]	; (400f24 <pio_configure_pin+0x124>)
  400e52:	4798      	blx	r3
	return 1;
  400e54:	4630      	mov	r0, r6
}
  400e56:	b002      	add	sp, #8
  400e58:	bd70      	pop	{r4, r5, r6, pc}
		pio_set_peripheral(p_pio, PIO_PERIPH_A, (1 << (ul_pin & 0x1F)));
  400e5a:	f000 001f 	and.w	r0, r0, #31
  400e5e:	2601      	movs	r6, #1
  400e60:	4086      	lsls	r6, r0
  400e62:	4632      	mov	r2, r6
  400e64:	f04f 6100 	mov.w	r1, #134217728	; 0x8000000
  400e68:	4620      	mov	r0, r4
  400e6a:	4b2f      	ldr	r3, [pc, #188]	; (400f28 <pio_configure_pin+0x128>)
  400e6c:	4798      	blx	r3
	if (ul_pull_up_enable) {
  400e6e:	f015 0f01 	tst.w	r5, #1
  400e72:	d102      	bne.n	400e7a <pio_configure_pin+0x7a>
		p_pio->PIO_PUDR = ul_mask;
  400e74:	6626      	str	r6, [r4, #96]	; 0x60
	return 1;
  400e76:	2001      	movs	r0, #1
  400e78:	e7ed      	b.n	400e56 <pio_configure_pin+0x56>
		p_pio->PIO_PUER = ul_mask;
  400e7a:	6666      	str	r6, [r4, #100]	; 0x64
	return 1;
  400e7c:	2001      	movs	r0, #1
  400e7e:	e7ea      	b.n	400e56 <pio_configure_pin+0x56>
		pio_set_peripheral(p_pio, PIO_PERIPH_B, (1 << (ul_pin & 0x1F)));
  400e80:	f000 001f 	and.w	r0, r0, #31
  400e84:	2601      	movs	r6, #1
  400e86:	4086      	lsls	r6, r0
  400e88:	4632      	mov	r2, r6
  400e8a:	f04f 5180 	mov.w	r1, #268435456	; 0x10000000
  400e8e:	4620      	mov	r0, r4
  400e90:	4b25      	ldr	r3, [pc, #148]	; (400f28 <pio_configure_pin+0x128>)
  400e92:	4798      	blx	r3
	if (ul_pull_up_enable) {
  400e94:	f015 0f01 	tst.w	r5, #1
  400e98:	d102      	bne.n	400ea0 <pio_configure_pin+0xa0>
		p_pio->PIO_PUDR = ul_mask;
  400e9a:	6626      	str	r6, [r4, #96]	; 0x60
	return 1;
  400e9c:	2001      	movs	r0, #1
  400e9e:	e7da      	b.n	400e56 <pio_configure_pin+0x56>
		p_pio->PIO_PUER = ul_mask;
  400ea0:	6666      	str	r6, [r4, #100]	; 0x64
	return 1;
  400ea2:	2001      	movs	r0, #1
  400ea4:	e7d7      	b.n	400e56 <pio_configure_pin+0x56>
		pio_set_peripheral(p_pio, PIO_PERIPH_C, (1 << (ul_pin & 0x1F)));
  400ea6:	f000 001f 	and.w	r0, r0, #31
  400eaa:	2601      	movs	r6, #1
  400eac:	4086      	lsls	r6, r0
  400eae:	4632      	mov	r2, r6
  400eb0:	f04f 51c0 	mov.w	r1, #402653184	; 0x18000000
  400eb4:	4620      	mov	r0, r4
  400eb6:	4b1c      	ldr	r3, [pc, #112]	; (400f28 <pio_configure_pin+0x128>)
  400eb8:	4798      	blx	r3
	if (ul_pull_up_enable) {
  400eba:	f015 0f01 	tst.w	r5, #1
  400ebe:	d102      	bne.n	400ec6 <pio_configure_pin+0xc6>
		p_pio->PIO_PUDR = ul_mask;
  400ec0:	6626      	str	r6, [r4, #96]	; 0x60
	return 1;
  400ec2:	2001      	movs	r0, #1
  400ec4:	e7c7      	b.n	400e56 <pio_configure_pin+0x56>
		p_pio->PIO_PUER = ul_mask;
  400ec6:	6666      	str	r6, [r4, #100]	; 0x64
	return 1;
  400ec8:	2001      	movs	r0, #1
  400eca:	e7c4      	b.n	400e56 <pio_configure_pin+0x56>
		pio_set_peripheral(p_pio, PIO_PERIPH_D, (1 << (ul_pin & 0x1F)));
  400ecc:	f000 001f 	and.w	r0, r0, #31
  400ed0:	2601      	movs	r6, #1
  400ed2:	4086      	lsls	r6, r0
  400ed4:	4632      	mov	r2, r6
  400ed6:	f04f 5100 	mov.w	r1, #536870912	; 0x20000000
  400eda:	4620      	mov	r0, r4
  400edc:	4b12      	ldr	r3, [pc, #72]	; (400f28 <pio_configure_pin+0x128>)
  400ede:	4798      	blx	r3
	if (ul_pull_up_enable) {
  400ee0:	f015 0f01 	tst.w	r5, #1
  400ee4:	d102      	bne.n	400eec <pio_configure_pin+0xec>
		p_pio->PIO_PUDR = ul_mask;
  400ee6:	6626      	str	r6, [r4, #96]	; 0x60
	return 1;
  400ee8:	2001      	movs	r0, #1
  400eea:	e7b4      	b.n	400e56 <pio_configure_pin+0x56>
		p_pio->PIO_PUER = ul_mask;
  400eec:	6666      	str	r6, [r4, #100]	; 0x64
	return 1;
  400eee:	2001      	movs	r0, #1
  400ef0:	e7b1      	b.n	400e56 <pio_configure_pin+0x56>
				((ul_flags & PIO_TYPE_PIO_OUTPUT_1)
  400ef2:	f005 5260 	and.w	r2, r5, #939524096	; 0x38000000
		pio_set_output(p_pio, (1 << (ul_pin & 0x1F)),
  400ef6:	f000 011f 	and.w	r1, r0, #31
  400efa:	2601      	movs	r6, #1
  400efc:	ea05 0306 	and.w	r3, r5, r6
  400f00:	9300      	str	r3, [sp, #0]
  400f02:	f3c5 0380 	ubfx	r3, r5, #2, #1
  400f06:	f1b2 5f60 	cmp.w	r2, #939524096	; 0x38000000
  400f0a:	bf14      	ite	ne
  400f0c:	2200      	movne	r2, #0
  400f0e:	2201      	moveq	r2, #1
  400f10:	fa06 f101 	lsl.w	r1, r6, r1
  400f14:	4620      	mov	r0, r4
  400f16:	4c05      	ldr	r4, [pc, #20]	; (400f2c <pio_configure_pin+0x12c>)
  400f18:	47a0      	blx	r4
	return 1;
  400f1a:	4630      	mov	r0, r6
		break;
  400f1c:	e79b      	b.n	400e56 <pio_configure_pin+0x56>
  400f1e:	bf00      	nop
  400f20:	00200707 	.word	0x00200707
  400f24:	00400cd3 	.word	0x00400cd3
  400f28:	00400c41 	.word	0x00400c41
  400f2c:	00400d09 	.word	0x00400d09

00400f30 <pio_handler_process>:
 *
 * \param p_pio PIO controller base address.
 * \param ul_id PIO controller ID.
 */
void pio_handler_process(Pio *p_pio, uint32_t ul_id)
{
  400f30:	e92d 41f0 	stmdb	sp!, {r4, r5, r6, r7, r8, lr}
  400f34:	4604      	mov	r4, r0
  400f36:	4688      	mov	r8, r1
	uint32_t status;
	uint32_t i;

	/* Read PIO controller status */
	status = pio_get_interrupt_status(p_pio);
  400f38:	4b0e      	ldr	r3, [pc, #56]	; (400f74 <pio_handler_process+0x44>)
  400f3a:	4798      	blx	r3
  400f3c:	4605      	mov	r5, r0
	status &= pio_get_interrupt_mask(p_pio);
  400f3e:	4620      	mov	r0, r4
  400f40:	4b0d      	ldr	r3, [pc, #52]	; (400f78 <pio_handler_process+0x48>)
  400f42:	4798      	blx	r3

	/* Check pending events */
	if (status != 0) {
  400f44:	4005      	ands	r5, r0
  400f46:	d013      	beq.n	400f70 <pio_handler_process+0x40>
  400f48:	4c0c      	ldr	r4, [pc, #48]	; (400f7c <pio_handler_process+0x4c>)
  400f4a:	f104 0660 	add.w	r6, r4, #96	; 0x60
  400f4e:	e003      	b.n	400f58 <pio_handler_process+0x28>
							gs_interrupt_sources[i].mask);
					status &= ~(gs_interrupt_sources[i].mask);
				}
			}
			i++;
			if (i >= MAX_INTERRUPT_SOURCES) {
  400f50:	42b4      	cmp	r4, r6
  400f52:	d00d      	beq.n	400f70 <pio_handler_process+0x40>
  400f54:	3410      	adds	r4, #16
		while (status != 0) {
  400f56:	b15d      	cbz	r5, 400f70 <pio_handler_process+0x40>
			if (gs_interrupt_sources[i].id == ul_id) {
  400f58:	6820      	ldr	r0, [r4, #0]
  400f5a:	4540      	cmp	r0, r8
  400f5c:	d1f8      	bne.n	400f50 <pio_handler_process+0x20>
				if ((status & gs_interrupt_sources[i].mask) != 0) {
  400f5e:	6861      	ldr	r1, [r4, #4]
  400f60:	4229      	tst	r1, r5
  400f62:	d0f5      	beq.n	400f50 <pio_handler_process+0x20>
					gs_interrupt_sources[i].handler(gs_interrupt_sources[i].id,
  400f64:	68e3      	ldr	r3, [r4, #12]
  400f66:	4798      	blx	r3
					status &= ~(gs_interrupt_sources[i].mask);
  400f68:	6863      	ldr	r3, [r4, #4]
  400f6a:	ea25 0503 	bic.w	r5, r5, r3
  400f6e:	e7ef      	b.n	400f50 <pio_handler_process+0x20>
  400f70:	e8bd 81f0 	ldmia.w	sp!, {r4, r5, r6, r7, r8, pc}
  400f74:	00400dc1 	.word	0x00400dc1
  400f78:	00400dc5 	.word	0x00400dc5
  400f7c:	20400c28 	.word	0x20400c28

00400f80 <PIOA_Handler>:
/**
 * \brief Parallel IO Controller A interrupt handler.
 * Redefined PIOA interrupt handler for NVIC interrupt table.
 */
void PIOA_Handler(void)
{
  400f80:	b508      	push	{r3, lr}
	pio_handler_process(PIOA, ID_PIOA);
  400f82:	210a      	movs	r1, #10
  400f84:	4801      	ldr	r0, [pc, #4]	; (400f8c <PIOA_Handler+0xc>)
  400f86:	4b02      	ldr	r3, [pc, #8]	; (400f90 <PIOA_Handler+0x10>)
  400f88:	4798      	blx	r3
  400f8a:	bd08      	pop	{r3, pc}
  400f8c:	400e0e00 	.word	0x400e0e00
  400f90:	00400f31 	.word	0x00400f31

00400f94 <PIOB_Handler>:
/**
 * \brief Parallel IO Controller B interrupt handler
 * Redefined PIOB interrupt handler for NVIC interrupt table.
 */
void PIOB_Handler(void)
{
  400f94:	b508      	push	{r3, lr}
    pio_handler_process(PIOB, ID_PIOB);
  400f96:	210b      	movs	r1, #11
  400f98:	4801      	ldr	r0, [pc, #4]	; (400fa0 <PIOB_Handler+0xc>)
  400f9a:	4b02      	ldr	r3, [pc, #8]	; (400fa4 <PIOB_Handler+0x10>)
  400f9c:	4798      	blx	r3
  400f9e:	bd08      	pop	{r3, pc}
  400fa0:	400e1000 	.word	0x400e1000
  400fa4:	00400f31 	.word	0x00400f31

00400fa8 <PIOC_Handler>:
/**
 * \brief Parallel IO Controller C interrupt handler.
 * Redefined PIOC interrupt handler for NVIC interrupt table.
 */
void PIOC_Handler(void)
{
  400fa8:	b508      	push	{r3, lr}
	pio_handler_process(PIOC, ID_PIOC);
  400faa:	210c      	movs	r1, #12
  400fac:	4801      	ldr	r0, [pc, #4]	; (400fb4 <PIOC_Handler+0xc>)
  400fae:	4b02      	ldr	r3, [pc, #8]	; (400fb8 <PIOC_Handler+0x10>)
  400fb0:	4798      	blx	r3
  400fb2:	bd08      	pop	{r3, pc}
  400fb4:	400e1200 	.word	0x400e1200
  400fb8:	00400f31 	.word	0x00400f31

00400fbc <PIOD_Handler>:
/**
 * \brief Parallel IO Controller D interrupt handler.
 * Redefined PIOD interrupt handler for NVIC interrupt table.
 */
void PIOD_Handler(void)
{
  400fbc:	b508      	push	{r3, lr}
	pio_handler_process(PIOD, ID_PIOD);
  400fbe:	2110      	movs	r1, #16
  400fc0:	4801      	ldr	r0, [pc, #4]	; (400fc8 <PIOD_Handler+0xc>)
  400fc2:	4b02      	ldr	r3, [pc, #8]	; (400fcc <PIOD_Handler+0x10>)
  400fc4:	4798      	blx	r3
  400fc6:	bd08      	pop	{r3, pc}
  400fc8:	400e1400 	.word	0x400e1400
  400fcc:	00400f31 	.word	0x00400f31

00400fd0 <PIOE_Handler>:
/**
 * \brief Parallel IO Controller E interrupt handler.
 * Redefined PIOE interrupt handler for NVIC interrupt table.
 */
void PIOE_Handler(void)
{
  400fd0:	b508      	push	{r3, lr}
	pio_handler_process(PIOE, ID_PIOE);
  400fd2:	2111      	movs	r1, #17
  400fd4:	4801      	ldr	r0, [pc, #4]	; (400fdc <PIOE_Handler+0xc>)
  400fd6:	4b02      	ldr	r3, [pc, #8]	; (400fe0 <PIOE_Handler+0x10>)
  400fd8:	4798      	blx	r3
  400fda:	bd08      	pop	{r3, pc}
  400fdc:	400e1600 	.word	0x400e1600
  400fe0:	00400f31 	.word	0x00400f31

00400fe4 <pmc_mck_set_division>:
 *
 * \param ul_div Division value.
 */
void pmc_mck_set_division(uint32_t ul_div)
{
	switch (ul_div) {
  400fe4:	2803      	cmp	r0, #3
  400fe6:	d011      	beq.n	40100c <pmc_mck_set_division+0x28>
  400fe8:	2804      	cmp	r0, #4
  400fea:	d012      	beq.n	401012 <pmc_mck_set_division+0x2e>
		case 1:
			ul_div = PMC_MCKR_MDIV_EQ_PCK;
  400fec:	2802      	cmp	r0, #2
  400fee:	bf0c      	ite	eq
  400ff0:	f44f 7180 	moveq.w	r1, #256	; 0x100
  400ff4:	2100      	movne	r1, #0
		default:
			ul_div = PMC_MCKR_MDIV_EQ_PCK;
			break;
	}
	PMC->PMC_MCKR =
			(PMC->PMC_MCKR & (~PMC_MCKR_MDIV_Msk)) | ul_div;
  400ff6:	4a08      	ldr	r2, [pc, #32]	; (401018 <pmc_mck_set_division+0x34>)
  400ff8:	6b13      	ldr	r3, [r2, #48]	; 0x30
  400ffa:	f423 7340 	bic.w	r3, r3, #768	; 0x300
  400ffe:	430b      	orrs	r3, r1
	PMC->PMC_MCKR =
  401000:	6313      	str	r3, [r2, #48]	; 0x30
	while (!(PMC->PMC_SR & PMC_SR_MCKRDY));
  401002:	6e93      	ldr	r3, [r2, #104]	; 0x68
  401004:	f013 0f08 	tst.w	r3, #8
  401008:	d0fb      	beq.n	401002 <pmc_mck_set_division+0x1e>
}
  40100a:	4770      	bx	lr
			ul_div = PMC_MCKR_MDIV_PCK_DIV3;
  40100c:	f44f 7140 	mov.w	r1, #768	; 0x300
			break;
  401010:	e7f1      	b.n	400ff6 <pmc_mck_set_division+0x12>
			ul_div = PMC_MCKR_MDIV_PCK_DIV4;
  401012:	f44f 7100 	mov.w	r1, #512	; 0x200
			break;
  401016:	e7ee      	b.n	400ff6 <pmc_mck_set_division+0x12>
  401018:	400e0600 	.word	0x400e0600

0040101c <pmc_switch_mck_to_pllack>:
 */
uint32_t pmc_switch_mck_to_pllack(uint32_t ul_pres)
{
	uint32_t ul_timeout;

	PMC->PMC_MCKR = (PMC->PMC_MCKR & (~PMC_MCKR_PRES_Msk)) | ul_pres;
  40101c:	4a17      	ldr	r2, [pc, #92]	; (40107c <pmc_switch_mck_to_pllack+0x60>)
  40101e:	6b13      	ldr	r3, [r2, #48]	; 0x30
  401020:	f023 0370 	bic.w	r3, r3, #112	; 0x70
  401024:	4318      	orrs	r0, r3
  401026:	6310      	str	r0, [r2, #48]	; 0x30
	for (ul_timeout = PMC_TIMEOUT; !(PMC->PMC_SR & PMC_SR_MCKRDY);
  401028:	6e93      	ldr	r3, [r2, #104]	; 0x68
  40102a:	f013 0f08 	tst.w	r3, #8
  40102e:	d10a      	bne.n	401046 <pmc_switch_mck_to_pllack+0x2a>
  401030:	f44f 5380 	mov.w	r3, #4096	; 0x1000
  401034:	4911      	ldr	r1, [pc, #68]	; (40107c <pmc_switch_mck_to_pllack+0x60>)
  401036:	6e8a      	ldr	r2, [r1, #104]	; 0x68
  401038:	f012 0f08 	tst.w	r2, #8
  40103c:	d103      	bne.n	401046 <pmc_switch_mck_to_pllack+0x2a>
			--ul_timeout) {
		if (ul_timeout == 0) {
  40103e:	3b01      	subs	r3, #1
  401040:	d1f9      	bne.n	401036 <pmc_switch_mck_to_pllack+0x1a>
			return 1;
  401042:	2001      	movs	r0, #1
  401044:	4770      	bx	lr
		}
	}

	PMC->PMC_MCKR = (PMC->PMC_MCKR & (~PMC_MCKR_CSS_Msk)) |
  401046:	4a0d      	ldr	r2, [pc, #52]	; (40107c <pmc_switch_mck_to_pllack+0x60>)
  401048:	6b13      	ldr	r3, [r2, #48]	; 0x30
  40104a:	f023 0303 	bic.w	r3, r3, #3
  40104e:	f043 0302 	orr.w	r3, r3, #2
  401052:	6313      	str	r3, [r2, #48]	; 0x30
			PMC_MCKR_CSS_PLLA_CLK;

	for (ul_timeout = PMC_TIMEOUT; !(PMC->PMC_SR & PMC_SR_MCKRDY);
  401054:	6e93      	ldr	r3, [r2, #104]	; 0x68
  401056:	f013 0f08 	tst.w	r3, #8
  40105a:	d10a      	bne.n	401072 <pmc_switch_mck_to_pllack+0x56>
  40105c:	f44f 5380 	mov.w	r3, #4096	; 0x1000
  401060:	4906      	ldr	r1, [pc, #24]	; (40107c <pmc_switch_mck_to_pllack+0x60>)
  401062:	6e8a      	ldr	r2, [r1, #104]	; 0x68
  401064:	f012 0f08 	tst.w	r2, #8
  401068:	d105      	bne.n	401076 <pmc_switch_mck_to_pllack+0x5a>
			--ul_timeout) {
		if (ul_timeout == 0) {
  40106a:	3b01      	subs	r3, #1
  40106c:	d1f9      	bne.n	401062 <pmc_switch_mck_to_pllack+0x46>
			return 1;
  40106e:	2001      	movs	r0, #1
		}
	}

	return 0;
}
  401070:	4770      	bx	lr
	return 0;
  401072:	2000      	movs	r0, #0
  401074:	4770      	bx	lr
  401076:	2000      	movs	r0, #0
  401078:	4770      	bx	lr
  40107a:	bf00      	nop
  40107c:	400e0600 	.word	0x400e0600

00401080 <pmc_switch_mainck_to_xtal>:
 */
void pmc_switch_mainck_to_xtal(uint32_t ul_bypass,
		uint32_t ul_xtal_startup_time)
{
	/* Enable Main Xtal oscillator */
	if (ul_bypass) {
  401080:	b9a0      	cbnz	r0, 4010ac <pmc_switch_mainck_to_xtal+0x2c>
		PMC->CKGR_MOR = (PMC->CKGR_MOR & ~CKGR_MOR_MOSCXTEN) |
				CKGR_MOR_KEY_PASSWD | CKGR_MOR_MOSCXTBY |
				CKGR_MOR_MOSCSEL;
	} else {
		PMC->CKGR_MOR = (PMC->CKGR_MOR & ~CKGR_MOR_MOSCXTBY) |
  401082:	480e      	ldr	r0, [pc, #56]	; (4010bc <pmc_switch_mainck_to_xtal+0x3c>)
  401084:	6a03      	ldr	r3, [r0, #32]
				CKGR_MOR_KEY_PASSWD | CKGR_MOR_MOSCXTEN |
				CKGR_MOR_MOSCXTST(ul_xtal_startup_time);
  401086:	0209      	lsls	r1, r1, #8
  401088:	b289      	uxth	r1, r1
				CKGR_MOR_KEY_PASSWD | CKGR_MOR_MOSCXTEN |
  40108a:	4a0d      	ldr	r2, [pc, #52]	; (4010c0 <pmc_switch_mainck_to_xtal+0x40>)
  40108c:	401a      	ands	r2, r3
  40108e:	4b0d      	ldr	r3, [pc, #52]	; (4010c4 <pmc_switch_mainck_to_xtal+0x44>)
  401090:	4313      	orrs	r3, r2
  401092:	4319      	orrs	r1, r3
		PMC->CKGR_MOR = (PMC->CKGR_MOR & ~CKGR_MOR_MOSCXTBY) |
  401094:	6201      	str	r1, [r0, #32]
		/* Wait the Xtal to stabilize */
		while (!(PMC->PMC_SR & PMC_SR_MOSCXTS));
  401096:	4602      	mov	r2, r0
  401098:	6e93      	ldr	r3, [r2, #104]	; 0x68
  40109a:	f013 0f01 	tst.w	r3, #1
  40109e:	d0fb      	beq.n	401098 <pmc_switch_mainck_to_xtal+0x18>

		PMC->CKGR_MOR |= CKGR_MOR_KEY_PASSWD | CKGR_MOR_MOSCSEL;
  4010a0:	4a06      	ldr	r2, [pc, #24]	; (4010bc <pmc_switch_mainck_to_xtal+0x3c>)
  4010a2:	6a11      	ldr	r1, [r2, #32]
  4010a4:	4b08      	ldr	r3, [pc, #32]	; (4010c8 <pmc_switch_mainck_to_xtal+0x48>)
  4010a6:	430b      	orrs	r3, r1
  4010a8:	6213      	str	r3, [r2, #32]
  4010aa:	4770      	bx	lr
		PMC->CKGR_MOR = (PMC->CKGR_MOR & ~CKGR_MOR_MOSCXTEN) |
  4010ac:	4903      	ldr	r1, [pc, #12]	; (4010bc <pmc_switch_mainck_to_xtal+0x3c>)
  4010ae:	6a0b      	ldr	r3, [r1, #32]
				CKGR_MOR_KEY_PASSWD | CKGR_MOR_MOSCXTBY |
  4010b0:	4a06      	ldr	r2, [pc, #24]	; (4010cc <pmc_switch_mainck_to_xtal+0x4c>)
  4010b2:	401a      	ands	r2, r3
  4010b4:	4b06      	ldr	r3, [pc, #24]	; (4010d0 <pmc_switch_mainck_to_xtal+0x50>)
  4010b6:	4313      	orrs	r3, r2
		PMC->CKGR_MOR = (PMC->CKGR_MOR & ~CKGR_MOR_MOSCXTEN) |
  4010b8:	620b      	str	r3, [r1, #32]
  4010ba:	4770      	bx	lr
  4010bc:	400e0600 	.word	0x400e0600
  4010c0:	ffc8fffc 	.word	0xffc8fffc
  4010c4:	00370001 	.word	0x00370001
  4010c8:	01370000 	.word	0x01370000
  4010cc:	fec8fffc 	.word	0xfec8fffc
  4010d0:	01370002 	.word	0x01370002

004010d4 <pmc_osc_is_ready_mainck>:
 * \retval 1 Xtal is ready.
 * \retval 0 Xtal is not ready.
 */
uint32_t pmc_osc_is_ready_mainck(void)
{
	return PMC->PMC_SR & PMC_SR_MOSCSELS;
  4010d4:	4b02      	ldr	r3, [pc, #8]	; (4010e0 <pmc_osc_is_ready_mainck+0xc>)
  4010d6:	6e98      	ldr	r0, [r3, #104]	; 0x68
}
  4010d8:	f400 3080 	and.w	r0, r0, #65536	; 0x10000
  4010dc:	4770      	bx	lr
  4010de:	bf00      	nop
  4010e0:	400e0600 	.word	0x400e0600

004010e4 <pmc_disable_pllack>:
void pmc_disable_pllack(void)
{
#if (SAM4C || SAM4CM || SAM4CP || SAMG)
	PMC->CKGR_PLLAR = CKGR_PLLAR_MULA(0);
#else
	PMC->CKGR_PLLAR = CKGR_PLLAR_ONE | CKGR_PLLAR_MULA(0);
  4010e4:	f04f 5200 	mov.w	r2, #536870912	; 0x20000000
  4010e8:	4b01      	ldr	r3, [pc, #4]	; (4010f0 <pmc_disable_pllack+0xc>)
  4010ea:	629a      	str	r2, [r3, #40]	; 0x28
  4010ec:	4770      	bx	lr
  4010ee:	bf00      	nop
  4010f0:	400e0600 	.word	0x400e0600

004010f4 <pmc_is_locked_pllack>:
 * \retval 0 Not locked.
 * \retval 1 Locked.
 */
uint32_t pmc_is_locked_pllack(void)
{
	return (PMC->PMC_SR & PMC_SR_LOCKA);
  4010f4:	4b02      	ldr	r3, [pc, #8]	; (401100 <pmc_is_locked_pllack+0xc>)
  4010f6:	6e98      	ldr	r0, [r3, #104]	; 0x68
}
  4010f8:	f000 0002 	and.w	r0, r0, #2
  4010fc:	4770      	bx	lr
  4010fe:	bf00      	nop
  401100:	400e0600 	.word	0x400e0600

00401104 <pmc_enable_periph_clk>:
 */
uint32_t pmc_enable_periph_clk(uint32_t ul_id)
{
#if defined(REG_PMC_PCR) && !SAMG55
	uint32_t pcr;
	PMC->PMC_PCR = ul_id & 0x7F;
  401104:	f000 007f 	and.w	r0, r0, #127	; 0x7f
  401108:	4b05      	ldr	r3, [pc, #20]	; (401120 <pmc_enable_periph_clk+0x1c>)
  40110a:	f8c3 010c 	str.w	r0, [r3, #268]	; 0x10c
	pcr = PMC->PMC_PCR | PMC_PCR_EN | PMC_PCR_CMD;
  40110e:	f8d3 210c 	ldr.w	r2, [r3, #268]	; 0x10c
  401112:	f042 2210 	orr.w	r2, r2, #268439552	; 0x10001000
	PMC->PMC_PCR = pcr;
  401116:	f8c3 210c 	str.w	r2, [r3, #268]	; 0x10c
#endif
	}

	return 0;
#endif /* defined(REG_PMC_PCR) && !SAMG55 */
}
  40111a:	2000      	movs	r0, #0
  40111c:	4770      	bx	lr
  40111e:	bf00      	nop
  401120:	400e0600 	.word	0x400e0600

00401124 <spi_enable_clock>:
 * \brief Enable SPI clock.
 *
 * \param p_spi Pointer to an SPI instance.
 */
void spi_enable_clock(Spi *p_spi)
{
  401124:	b508      	push	{r3, lr}
#if (SAM4S || SAM3S || SAM3N || SAM3U || SAM4E || SAM4N || SAMG51|| SAMG53|| SAMG54)
	UNUSED(p_spi);
	sysclk_enable_peripheral_clock(ID_SPI);
#elif (SAM3XA || SAM4C || SAM4CP || SAM4CM || SAMV71 || SAMV70 || SAME70 || SAMS70)
	if (p_spi == SPI0) {
  401126:	4b07      	ldr	r3, [pc, #28]	; (401144 <spi_enable_clock+0x20>)
  401128:	4298      	cmp	r0, r3
  40112a:	d003      	beq.n	401134 <spi_enable_clock+0x10>
		sysclk_enable_peripheral_clock(ID_SPI0);
	}
	#ifdef SPI1
	else if (p_spi == SPI1) {
  40112c:	4b06      	ldr	r3, [pc, #24]	; (401148 <spi_enable_clock+0x24>)
  40112e:	4298      	cmp	r0, r3
  401130:	d004      	beq.n	40113c <spi_enable_clock+0x18>
  401132:	bd08      	pop	{r3, pc}
  401134:	2015      	movs	r0, #21
  401136:	4b05      	ldr	r3, [pc, #20]	; (40114c <spi_enable_clock+0x28>)
  401138:	4798      	blx	r3
  40113a:	bd08      	pop	{r3, pc}
  40113c:	202a      	movs	r0, #42	; 0x2a
  40113e:	4b03      	ldr	r3, [pc, #12]	; (40114c <spi_enable_clock+0x28>)
  401140:	4798      	blx	r3
	}
	#endif
#elif SAM4L
	sysclk_enable_peripheral_clock(p_spi);
#endif
}
  401142:	e7f6      	b.n	401132 <spi_enable_clock+0xe>
  401144:	40008000 	.word	0x40008000
  401148:	40058000 	.word	0x40058000
  40114c:	00401105 	.word	0x00401105

00401150 <spi_set_peripheral_chip_select_value>:
 *                 \ref spi_enable_peripheral_select_decode,
 *                 \ref spi_disable_peripheral_select_decode.
 */
void spi_set_peripheral_chip_select_value(Spi *p_spi, uint32_t ul_value)
{
	p_spi->SPI_MR &= (~SPI_MR_PCS_Msk);
  401150:	6843      	ldr	r3, [r0, #4]
  401152:	f423 2370 	bic.w	r3, r3, #983040	; 0xf0000
  401156:	6043      	str	r3, [r0, #4]
	p_spi->SPI_MR |= SPI_MR_PCS(ul_value);
  401158:	6843      	ldr	r3, [r0, #4]
  40115a:	0409      	lsls	r1, r1, #16
  40115c:	f401 2170 	and.w	r1, r1, #983040	; 0xf0000
  401160:	4319      	orrs	r1, r3
  401162:	6041      	str	r1, [r0, #4]
  401164:	4770      	bx	lr

00401166 <spi_set_delay_between_chip_select>:
 * \param p_spi Pointer to an SPI instance.
 * \param ul_delay Delay between chip selects (in number of MCK clocks).
 */
void spi_set_delay_between_chip_select(Spi *p_spi, uint32_t ul_delay)
{
	p_spi->SPI_MR &= (~SPI_MR_DLYBCS_Msk);
  401166:	6843      	ldr	r3, [r0, #4]
  401168:	f023 437f 	bic.w	r3, r3, #4278190080	; 0xff000000
  40116c:	6043      	str	r3, [r0, #4]
	p_spi->SPI_MR |= SPI_MR_DLYBCS(ul_delay);
  40116e:	6843      	ldr	r3, [r0, #4]
  401170:	ea43 6101 	orr.w	r1, r3, r1, lsl #24
  401174:	6041      	str	r1, [r0, #4]
  401176:	4770      	bx	lr

00401178 <spi_write>:
 * \retval SPI_OK on Success.
 * \retval SPI_ERROR_TIMEOUT on Time-out.
 */
spi_status_t spi_write(Spi *p_spi, uint16_t us_data,
		uint8_t uc_pcs, uint8_t uc_last)
{
  401178:	b430      	push	{r4, r5}
	uint32_t timeout = SPI_TIMEOUT;
	uint32_t value;

	while (!(p_spi->SPI_SR & SPI_SR_TDRE)) {
  40117a:	f643 2499 	movw	r4, #15001	; 0x3a99
  40117e:	6905      	ldr	r5, [r0, #16]
  401180:	f015 0f02 	tst.w	r5, #2
  401184:	d103      	bne.n	40118e <spi_write+0x16>
		if (!timeout--) {
  401186:	3c01      	subs	r4, #1
  401188:	d1f9      	bne.n	40117e <spi_write+0x6>
			return SPI_ERROR_TIMEOUT;
  40118a:	2001      	movs	r0, #1
  40118c:	e00c      	b.n	4011a8 <spi_write+0x30>
	if (p_spi->SPI_MR & SPI_MR_PS) {
  40118e:	6844      	ldr	r4, [r0, #4]
		}
	}

	if (spi_get_peripheral_select_mode(p_spi)) {
  401190:	f014 0f02 	tst.w	r4, #2
  401194:	d006      	beq.n	4011a4 <spi_write+0x2c>
		value = SPI_TDR_TD(us_data) | SPI_TDR_PCS(uc_pcs);
  401196:	0412      	lsls	r2, r2, #16
  401198:	f402 2270 	and.w	r2, r2, #983040	; 0xf0000
  40119c:	4311      	orrs	r1, r2
		if (uc_last) {
  40119e:	b10b      	cbz	r3, 4011a4 <spi_write+0x2c>
			value |= SPI_TDR_LASTXFER;
  4011a0:	f041 7180 	orr.w	r1, r1, #16777216	; 0x1000000
		}
	} else {
		value = SPI_TDR_TD(us_data);
	}

	p_spi->SPI_TDR = value;
  4011a4:	60c1      	str	r1, [r0, #12]

	return SPI_OK;
  4011a6:	2000      	movs	r0, #0
}
  4011a8:	bc30      	pop	{r4, r5}
  4011aa:	4770      	bx	lr

004011ac <spi_set_clock_polarity>:
 * \param ul_polarity Default clock state is logical one(high)/zero(low).
 */
void spi_set_clock_polarity(Spi *p_spi, uint32_t ul_pcs_ch,
		uint32_t ul_polarity)
{
	if (ul_polarity) {
  4011ac:	b932      	cbnz	r2, 4011bc <spi_set_clock_polarity+0x10>
  4011ae:	eb00 0081 	add.w	r0, r0, r1, lsl #2
		p_spi->SPI_CSR[ul_pcs_ch] |= SPI_CSR_CPOL;
	} else {
		p_spi->SPI_CSR[ul_pcs_ch] &= (~SPI_CSR_CPOL);
  4011b2:	6b03      	ldr	r3, [r0, #48]	; 0x30
  4011b4:	f023 0301 	bic.w	r3, r3, #1
  4011b8:	6303      	str	r3, [r0, #48]	; 0x30
  4011ba:	4770      	bx	lr
  4011bc:	eb00 0081 	add.w	r0, r0, r1, lsl #2
		p_spi->SPI_CSR[ul_pcs_ch] |= SPI_CSR_CPOL;
  4011c0:	6b03      	ldr	r3, [r0, #48]	; 0x30
  4011c2:	f043 0301 	orr.w	r3, r3, #1
  4011c6:	6303      	str	r3, [r0, #48]	; 0x30
  4011c8:	4770      	bx	lr

004011ca <spi_set_clock_phase>:
 *  \param ul_pcs_ch Peripheral Chip Select channel (0~3).
 *  \param ul_phase Data capture on the rising/falling edge of clock.
 */
void spi_set_clock_phase(Spi *p_spi, uint32_t ul_pcs_ch, uint32_t ul_phase)
{
	if (ul_phase) {
  4011ca:	b932      	cbnz	r2, 4011da <spi_set_clock_phase+0x10>
  4011cc:	eb00 0081 	add.w	r0, r0, r1, lsl #2
		p_spi->SPI_CSR[ul_pcs_ch] |= SPI_CSR_NCPHA;
	} else {
		p_spi->SPI_CSR[ul_pcs_ch] &= (~SPI_CSR_NCPHA);
  4011d0:	6b03      	ldr	r3, [r0, #48]	; 0x30
  4011d2:	f023 0302 	bic.w	r3, r3, #2
  4011d6:	6303      	str	r3, [r0, #48]	; 0x30
  4011d8:	4770      	bx	lr
  4011da:	eb00 0081 	add.w	r0, r0, r1, lsl #2
		p_spi->SPI_CSR[ul_pcs_ch] |= SPI_CSR_NCPHA;
  4011de:	6b03      	ldr	r3, [r0, #48]	; 0x30
  4011e0:	f043 0302 	orr.w	r3, r3, #2
  4011e4:	6303      	str	r3, [r0, #48]	; 0x30
  4011e6:	4770      	bx	lr

004011e8 <spi_configure_cs_behavior>:
 * \param ul_cs_behavior Behavior of the Chip Select after transfer.
 */
void spi_configure_cs_behavior(Spi *p_spi, uint32_t ul_pcs_ch,
		uint32_t ul_cs_behavior)
{
	if (ul_cs_behavior == SPI_CS_RISE_FORCED) {
  4011e8:	2a04      	cmp	r2, #4
  4011ea:	d003      	beq.n	4011f4 <spi_configure_cs_behavior+0xc>
		p_spi->SPI_CSR[ul_pcs_ch] &= (~SPI_CSR_CSAAT);
		p_spi->SPI_CSR[ul_pcs_ch] |= SPI_CSR_CSNAAT;
	} else if (ul_cs_behavior == SPI_CS_RISE_NO_TX) {
  4011ec:	b16a      	cbz	r2, 40120a <spi_configure_cs_behavior+0x22>
		p_spi->SPI_CSR[ul_pcs_ch] &= (~SPI_CSR_CSAAT);
		p_spi->SPI_CSR[ul_pcs_ch] &= (~SPI_CSR_CSNAAT);
	} else if (ul_cs_behavior == SPI_CS_KEEP_LOW) {
  4011ee:	2a08      	cmp	r2, #8
  4011f0:	d016      	beq.n	401220 <spi_configure_cs_behavior+0x38>
  4011f2:	4770      	bx	lr
  4011f4:	eb00 0081 	add.w	r0, r0, r1, lsl #2
		p_spi->SPI_CSR[ul_pcs_ch] &= (~SPI_CSR_CSAAT);
  4011f8:	6b03      	ldr	r3, [r0, #48]	; 0x30
  4011fa:	f023 0308 	bic.w	r3, r3, #8
  4011fe:	6303      	str	r3, [r0, #48]	; 0x30
		p_spi->SPI_CSR[ul_pcs_ch] |= SPI_CSR_CSNAAT;
  401200:	6b03      	ldr	r3, [r0, #48]	; 0x30
  401202:	f043 0304 	orr.w	r3, r3, #4
  401206:	6303      	str	r3, [r0, #48]	; 0x30
  401208:	4770      	bx	lr
  40120a:	eb00 0081 	add.w	r0, r0, r1, lsl #2
		p_spi->SPI_CSR[ul_pcs_ch] &= (~SPI_CSR_CSAAT);
  40120e:	6b03      	ldr	r3, [r0, #48]	; 0x30
  401210:	f023 0308 	bic.w	r3, r3, #8
  401214:	6303      	str	r3, [r0, #48]	; 0x30
		p_spi->SPI_CSR[ul_pcs_ch] &= (~SPI_CSR_CSNAAT);
  401216:	6b03      	ldr	r3, [r0, #48]	; 0x30
  401218:	f023 0304 	bic.w	r3, r3, #4
  40121c:	6303      	str	r3, [r0, #48]	; 0x30
  40121e:	4770      	bx	lr
  401220:	eb00 0081 	add.w	r0, r0, r1, lsl #2
		p_spi->SPI_CSR[ul_pcs_ch] |= SPI_CSR_CSAAT;
  401224:	6b03      	ldr	r3, [r0, #48]	; 0x30
  401226:	f043 0308 	orr.w	r3, r3, #8
  40122a:	6303      	str	r3, [r0, #48]	; 0x30
	}
}
  40122c:	e7e1      	b.n	4011f2 <spi_configure_cs_behavior+0xa>

0040122e <spi_set_bits_per_transfer>:
 * \param ul_bits Number of bits (8~16), use the pattern defined
 *        in the device header file.
 */
void spi_set_bits_per_transfer(Spi *p_spi, uint32_t ul_pcs_ch,
		uint32_t ul_bits)
{
  40122e:	eb00 0181 	add.w	r1, r0, r1, lsl #2
	p_spi->SPI_CSR[ul_pcs_ch] &= (~SPI_CSR_BITS_Msk);
  401232:	6b0b      	ldr	r3, [r1, #48]	; 0x30
  401234:	f023 03f0 	bic.w	r3, r3, #240	; 0xf0
  401238:	630b      	str	r3, [r1, #48]	; 0x30
	p_spi->SPI_CSR[ul_pcs_ch] |= ul_bits;
  40123a:	6b0b      	ldr	r3, [r1, #48]	; 0x30
  40123c:	431a      	orrs	r2, r3
  40123e:	630a      	str	r2, [r1, #48]	; 0x30
  401240:	4770      	bx	lr

00401242 <spi_calc_baudrate_div>:
 *   \retval > 0  Success.
 *   \retval < 0  Error.
 */
int16_t spi_calc_baudrate_div(const uint32_t baudrate, uint32_t mck)
{
	int baud_div = div_ceil(mck, baudrate);
  401242:	1e43      	subs	r3, r0, #1
  401244:	4419      	add	r1, r3
  401246:	fbb1 f0f0 	udiv	r0, r1, r0

	/* The value of baud_div is from 1 to 255 in the SCBR field. */
	if (baud_div <= 0 || baud_div > 255) {
  40124a:	1e43      	subs	r3, r0, #1
  40124c:	2bfe      	cmp	r3, #254	; 0xfe
		return -1;
	}

	return baud_div;
  40124e:	bf94      	ite	ls
  401250:	b200      	sxthls	r0, r0
		return -1;
  401252:	f04f 30ff 	movhi.w	r0, #4294967295
}
  401256:	4770      	bx	lr

00401258 <spi_set_baudrate_div>:
 */
int16_t spi_set_baudrate_div(Spi *p_spi, uint32_t ul_pcs_ch,
		uint8_t uc_baudrate_divider)
{
    /* Programming the SCBR field to 0 is forbidden */
    if (!uc_baudrate_divider){
  401258:	b17a      	cbz	r2, 40127a <spi_set_baudrate_div+0x22>
{
  40125a:	b410      	push	{r4}
  40125c:	4614      	mov	r4, r2
  40125e:	eb00 0181 	add.w	r1, r0, r1, lsl #2
        return -1;
	}
	p_spi->SPI_CSR[ul_pcs_ch] &= (~SPI_CSR_SCBR_Msk);
  401262:	6b0b      	ldr	r3, [r1, #48]	; 0x30
  401264:	f423 437f 	bic.w	r3, r3, #65280	; 0xff00
  401268:	630b      	str	r3, [r1, #48]	; 0x30
	p_spi->SPI_CSR[ul_pcs_ch] |= SPI_CSR_SCBR(uc_baudrate_divider);
  40126a:	6b0a      	ldr	r2, [r1, #48]	; 0x30
  40126c:	ea42 2204 	orr.w	r2, r2, r4, lsl #8
  401270:	630a      	str	r2, [r1, #48]	; 0x30
    return 0;
  401272:	2000      	movs	r0, #0
}
  401274:	f85d 4b04 	ldr.w	r4, [sp], #4
  401278:	4770      	bx	lr
        return -1;
  40127a:	f04f 30ff 	mov.w	r0, #4294967295
  40127e:	4770      	bx	lr

00401280 <spi_set_transfer_delay>:
 * \param uc_dlybs Delay before SPCK (in number of MCK clocks).
 * \param uc_dlybct Delay between consecutive transfers (in number of MCK clocks).
 */
void spi_set_transfer_delay(Spi *p_spi, uint32_t ul_pcs_ch,
		uint8_t uc_dlybs, uint8_t uc_dlybct)
{
  401280:	b410      	push	{r4}
  401282:	eb00 0181 	add.w	r1, r0, r1, lsl #2
	p_spi->SPI_CSR[ul_pcs_ch] &= ~(SPI_CSR_DLYBS_Msk | SPI_CSR_DLYBCT_Msk);
  401286:	6b08      	ldr	r0, [r1, #48]	; 0x30
  401288:	b280      	uxth	r0, r0
  40128a:	6308      	str	r0, [r1, #48]	; 0x30
	p_spi->SPI_CSR[ul_pcs_ch] |= SPI_CSR_DLYBS(uc_dlybs)
  40128c:	6b0c      	ldr	r4, [r1, #48]	; 0x30
  40128e:	ea44 6303 	orr.w	r3, r4, r3, lsl #24
  401292:	ea43 4302 	orr.w	r3, r3, r2, lsl #16
  401296:	630b      	str	r3, [r1, #48]	; 0x30
			| SPI_CSR_DLYBCT(uc_dlybct);
}
  401298:	f85d 4b04 	ldr.w	r4, [sp], #4
  40129c:	4770      	bx	lr

0040129e <Dummy_Handler>:

/**
 * \brief Default interrupt handler for unused IRQs.
 */
void Dummy_Handler(void)
{
  40129e:	e7fe      	b.n	40129e <Dummy_Handler>

004012a0 <Reset_Handler>:
{
  4012a0:	b500      	push	{lr}
  4012a2:	b083      	sub	sp, #12
        if (pSrc != pDest) {
  4012a4:	4b25      	ldr	r3, [pc, #148]	; (40133c <Reset_Handler+0x9c>)
  4012a6:	4a26      	ldr	r2, [pc, #152]	; (401340 <Reset_Handler+0xa0>)
  4012a8:	429a      	cmp	r2, r3
  4012aa:	d010      	beq.n	4012ce <Reset_Handler+0x2e>
                for (; pDest < &_erelocate;) {
  4012ac:	4b25      	ldr	r3, [pc, #148]	; (401344 <Reset_Handler+0xa4>)
  4012ae:	4a23      	ldr	r2, [pc, #140]	; (40133c <Reset_Handler+0x9c>)
  4012b0:	429a      	cmp	r2, r3
  4012b2:	d20c      	bcs.n	4012ce <Reset_Handler+0x2e>
  4012b4:	3b01      	subs	r3, #1
  4012b6:	1a9b      	subs	r3, r3, r2
  4012b8:	f023 0303 	bic.w	r3, r3, #3
  4012bc:	3304      	adds	r3, #4
  4012be:	4413      	add	r3, r2
  4012c0:	491f      	ldr	r1, [pc, #124]	; (401340 <Reset_Handler+0xa0>)
                        *pDest++ = *pSrc++;
  4012c2:	f851 0b04 	ldr.w	r0, [r1], #4
  4012c6:	f842 0b04 	str.w	r0, [r2], #4
                for (; pDest < &_erelocate;) {
  4012ca:	429a      	cmp	r2, r3
  4012cc:	d1f9      	bne.n	4012c2 <Reset_Handler+0x22>
        for (pDest = &_szero; pDest < &_ezero;) {
  4012ce:	4b1e      	ldr	r3, [pc, #120]	; (401348 <Reset_Handler+0xa8>)
  4012d0:	4a1e      	ldr	r2, [pc, #120]	; (40134c <Reset_Handler+0xac>)
  4012d2:	429a      	cmp	r2, r3
  4012d4:	d20a      	bcs.n	4012ec <Reset_Handler+0x4c>
  4012d6:	3b01      	subs	r3, #1
  4012d8:	1a9b      	subs	r3, r3, r2
  4012da:	f023 0303 	bic.w	r3, r3, #3
  4012de:	3304      	adds	r3, #4
  4012e0:	4413      	add	r3, r2
                *pDest++ = 0;
  4012e2:	2100      	movs	r1, #0
  4012e4:	f842 1b04 	str.w	r1, [r2], #4
        for (pDest = &_szero; pDest < &_ezero;) {
  4012e8:	4293      	cmp	r3, r2
  4012ea:	d1fb      	bne.n	4012e4 <Reset_Handler+0x44>
        SCB->VTOR = ((uint32_t) pSrc & SCB_VTOR_TBLOFF_Msk);
  4012ec:	4a18      	ldr	r2, [pc, #96]	; (401350 <Reset_Handler+0xb0>)
  4012ee:	4b19      	ldr	r3, [pc, #100]	; (401354 <Reset_Handler+0xb4>)
  4012f0:	f023 037f 	bic.w	r3, r3, #127	; 0x7f
  4012f4:	6093      	str	r3, [r2, #8]
 */
__attribute__( ( always_inline ) ) __STATIC_INLINE uint32_t __get_PRIMASK(void)
{
  uint32_t result;

  __ASM volatile ("MRS %0, primask" : "=r" (result) );
  4012f6:	f3ef 8310 	mrs	r3, PRIMASK
static volatile uint32_t cpu_irq_critical_section_counter;
static volatile bool     cpu_irq_prev_interrupt_state;

static inline irqflags_t cpu_irq_save(void)
{
	volatile irqflags_t flags = cpu_irq_is_enabled();
  4012fa:	fab3 f383 	clz	r3, r3
  4012fe:	095b      	lsrs	r3, r3, #5
  401300:	9301      	str	r3, [sp, #4]
  __ASM volatile ("cpsid i" : : : "memory");
  401302:	b672      	cpsid	i
  __ASM volatile ("dmb");
  401304:	f3bf 8f5f 	dmb	sy
	cpu_irq_disable();
  401308:	2200      	movs	r2, #0
  40130a:	4b13      	ldr	r3, [pc, #76]	; (401358 <Reset_Handler+0xb8>)
  40130c:	701a      	strb	r2, [r3, #0]
	return flags;
  40130e:	9901      	ldr	r1, [sp, #4]
 */
__always_inline static void fpu_enable(void)
{
	irqflags_t flags;
	flags = cpu_irq_save();
	REG_CPACR |=  (0xFu << 20);
  401310:	4a12      	ldr	r2, [pc, #72]	; (40135c <Reset_Handler+0xbc>)
  401312:	6813      	ldr	r3, [r2, #0]
  401314:	f443 0370 	orr.w	r3, r3, #15728640	; 0xf00000
  401318:	6013      	str	r3, [r2, #0]
  __ASM volatile ("dsb");
  40131a:	f3bf 8f4f 	dsb	sy
  __ASM volatile ("isb");
  40131e:	f3bf 8f6f 	isb	sy
	return (flags);
}

static inline void cpu_irq_restore(irqflags_t flags)
{
	if (cpu_irq_is_enabled_flags(flags))
  401322:	b129      	cbz	r1, 401330 <Reset_Handler+0x90>
		cpu_irq_enable();
  401324:	2201      	movs	r2, #1
  401326:	4b0c      	ldr	r3, [pc, #48]	; (401358 <Reset_Handler+0xb8>)
  401328:	701a      	strb	r2, [r3, #0]
  __ASM volatile ("dmb");
  40132a:	f3bf 8f5f 	dmb	sy
  __ASM volatile ("cpsie i" : : : "memory");
  40132e:	b662      	cpsie	i
        __libc_init_array();
  401330:	4b0b      	ldr	r3, [pc, #44]	; (401360 <Reset_Handler+0xc0>)
  401332:	4798      	blx	r3
        main();
  401334:	4b0b      	ldr	r3, [pc, #44]	; (401364 <Reset_Handler+0xc4>)
  401336:	4798      	blx	r3
  401338:	e7fe      	b.n	401338 <Reset_Handler+0x98>
  40133a:	bf00      	nop
  40133c:	20400000 	.word	0x20400000
  401340:	0042595c 	.word	0x0042595c
  401344:	2040084c 	.word	0x2040084c
  401348:	20400d08 	.word	0x20400d08
  40134c:	2040084c 	.word	0x2040084c
  401350:	e000ed00 	.word	0xe000ed00
  401354:	00400000 	.word	0x00400000
  401358:	20400000 	.word	0x20400000
  40135c:	e000ed88 	.word	0xe000ed88
  401360:	00401625 	.word	0x00401625
  401364:	00401539 	.word	0x00401539

00401368 <SystemCoreClockUpdate>:
}

void SystemCoreClockUpdate( void )
{
  /* Determine clock frequency according to clock register values */
  switch (PMC->PMC_MCKR & (uint32_t) PMC_MCKR_CSS_Msk)
  401368:	4b3b      	ldr	r3, [pc, #236]	; (401458 <SystemCoreClockUpdate+0xf0>)
  40136a:	6b1b      	ldr	r3, [r3, #48]	; 0x30
  40136c:	f003 0303 	and.w	r3, r3, #3
  401370:	2b01      	cmp	r3, #1
  401372:	d01d      	beq.n	4013b0 <SystemCoreClockUpdate+0x48>
  401374:	b183      	cbz	r3, 401398 <SystemCoreClockUpdate+0x30>
  401376:	2b02      	cmp	r3, #2
  401378:	d036      	beq.n	4013e8 <SystemCoreClockUpdate+0x80>

    default:
    break;
  }

  if ( (PMC->PMC_MCKR & PMC_MCKR_PRES_Msk) == PMC_MCKR_PRES_CLK_3 )
  40137a:	4b37      	ldr	r3, [pc, #220]	; (401458 <SystemCoreClockUpdate+0xf0>)
  40137c:	6b1b      	ldr	r3, [r3, #48]	; 0x30
  40137e:	f003 0370 	and.w	r3, r3, #112	; 0x70
  401382:	2b70      	cmp	r3, #112	; 0x70
  401384:	d05f      	beq.n	401446 <SystemCoreClockUpdate+0xde>
  {
    SystemCoreClock /= 3U;
  }
  else
  {
    SystemCoreClock >>= ((PMC->PMC_MCKR & PMC_MCKR_PRES_Msk) >> PMC_MCKR_PRES_Pos);
  401386:	4b34      	ldr	r3, [pc, #208]	; (401458 <SystemCoreClockUpdate+0xf0>)
  401388:	6b1a      	ldr	r2, [r3, #48]	; 0x30
  40138a:	4934      	ldr	r1, [pc, #208]	; (40145c <SystemCoreClockUpdate+0xf4>)
  40138c:	f3c2 1202 	ubfx	r2, r2, #4, #3
  401390:	680b      	ldr	r3, [r1, #0]
  401392:	40d3      	lsrs	r3, r2
  401394:	600b      	str	r3, [r1, #0]
  401396:	4770      	bx	lr
      if ( SUPC->SUPC_SR & SUPC_SR_OSCSEL )
  401398:	4b31      	ldr	r3, [pc, #196]	; (401460 <SystemCoreClockUpdate+0xf8>)
  40139a:	695b      	ldr	r3, [r3, #20]
  40139c:	f013 0f80 	tst.w	r3, #128	; 0x80
        SystemCoreClock = CHIP_FREQ_XTAL_32K;
  4013a0:	bf14      	ite	ne
  4013a2:	f44f 4200 	movne.w	r2, #32768	; 0x8000
        SystemCoreClock = CHIP_FREQ_SLCK_RC;
  4013a6:	f44f 42fa 	moveq.w	r2, #32000	; 0x7d00
  4013aa:	4b2c      	ldr	r3, [pc, #176]	; (40145c <SystemCoreClockUpdate+0xf4>)
  4013ac:	601a      	str	r2, [r3, #0]
  4013ae:	e7e4      	b.n	40137a <SystemCoreClockUpdate+0x12>
      if ( PMC->CKGR_MOR & CKGR_MOR_MOSCSEL )
  4013b0:	4b29      	ldr	r3, [pc, #164]	; (401458 <SystemCoreClockUpdate+0xf0>)
  4013b2:	6a1b      	ldr	r3, [r3, #32]
  4013b4:	f013 7f80 	tst.w	r3, #16777216	; 0x1000000
  4013b8:	d003      	beq.n	4013c2 <SystemCoreClockUpdate+0x5a>
        SystemCoreClock = CHIP_FREQ_XTAL_12M;
  4013ba:	4a2a      	ldr	r2, [pc, #168]	; (401464 <SystemCoreClockUpdate+0xfc>)
  4013bc:	4b27      	ldr	r3, [pc, #156]	; (40145c <SystemCoreClockUpdate+0xf4>)
  4013be:	601a      	str	r2, [r3, #0]
  4013c0:	e7db      	b.n	40137a <SystemCoreClockUpdate+0x12>
        SystemCoreClock = CHIP_FREQ_MAINCK_RC_4MHZ;
  4013c2:	4a29      	ldr	r2, [pc, #164]	; (401468 <SystemCoreClockUpdate+0x100>)
  4013c4:	4b25      	ldr	r3, [pc, #148]	; (40145c <SystemCoreClockUpdate+0xf4>)
  4013c6:	601a      	str	r2, [r3, #0]
        switch ( PMC->CKGR_MOR & CKGR_MOR_MOSCRCF_Msk )
  4013c8:	4b23      	ldr	r3, [pc, #140]	; (401458 <SystemCoreClockUpdate+0xf0>)
  4013ca:	6a1b      	ldr	r3, [r3, #32]
  4013cc:	f003 0370 	and.w	r3, r3, #112	; 0x70
  4013d0:	2b10      	cmp	r3, #16
  4013d2:	d005      	beq.n	4013e0 <SystemCoreClockUpdate+0x78>
  4013d4:	2b20      	cmp	r3, #32
  4013d6:	d1d0      	bne.n	40137a <SystemCoreClockUpdate+0x12>
            SystemCoreClock *= 3U;
  4013d8:	4a22      	ldr	r2, [pc, #136]	; (401464 <SystemCoreClockUpdate+0xfc>)
  4013da:	4b20      	ldr	r3, [pc, #128]	; (40145c <SystemCoreClockUpdate+0xf4>)
  4013dc:	601a      	str	r2, [r3, #0]
          break;
  4013de:	e7cc      	b.n	40137a <SystemCoreClockUpdate+0x12>
            SystemCoreClock *= 2U;
  4013e0:	4a22      	ldr	r2, [pc, #136]	; (40146c <SystemCoreClockUpdate+0x104>)
  4013e2:	4b1e      	ldr	r3, [pc, #120]	; (40145c <SystemCoreClockUpdate+0xf4>)
  4013e4:	601a      	str	r2, [r3, #0]
          break;
  4013e6:	e7c8      	b.n	40137a <SystemCoreClockUpdate+0x12>
      if ( PMC->CKGR_MOR & CKGR_MOR_MOSCSEL )
  4013e8:	4b1b      	ldr	r3, [pc, #108]	; (401458 <SystemCoreClockUpdate+0xf0>)
  4013ea:	6a1b      	ldr	r3, [r3, #32]
  4013ec:	f013 7f80 	tst.w	r3, #16777216	; 0x1000000
  4013f0:	d016      	beq.n	401420 <SystemCoreClockUpdate+0xb8>
        SystemCoreClock = CHIP_FREQ_XTAL_12M ;
  4013f2:	4a1c      	ldr	r2, [pc, #112]	; (401464 <SystemCoreClockUpdate+0xfc>)
  4013f4:	4b19      	ldr	r3, [pc, #100]	; (40145c <SystemCoreClockUpdate+0xf4>)
  4013f6:	601a      	str	r2, [r3, #0]
      if ( (uint32_t) (PMC->PMC_MCKR & (uint32_t) PMC_MCKR_CSS_Msk) == PMC_MCKR_CSS_PLLA_CLK )
  4013f8:	4b17      	ldr	r3, [pc, #92]	; (401458 <SystemCoreClockUpdate+0xf0>)
  4013fa:	6b1b      	ldr	r3, [r3, #48]	; 0x30
  4013fc:	f003 0303 	and.w	r3, r3, #3
  401400:	2b02      	cmp	r3, #2
  401402:	d1ba      	bne.n	40137a <SystemCoreClockUpdate+0x12>
        SystemCoreClock *= ((((PMC->CKGR_PLLAR) & CKGR_PLLAR_MULA_Msk) >> CKGR_PLLAR_MULA_Pos) + 1U);
  401404:	4a14      	ldr	r2, [pc, #80]	; (401458 <SystemCoreClockUpdate+0xf0>)
  401406:	6a91      	ldr	r1, [r2, #40]	; 0x28
        SystemCoreClock /= ((((PMC->CKGR_PLLAR) & CKGR_PLLAR_DIVA_Msk) >> CKGR_PLLAR_DIVA_Pos));
  401408:	6a92      	ldr	r2, [r2, #40]	; 0x28
  40140a:	4814      	ldr	r0, [pc, #80]	; (40145c <SystemCoreClockUpdate+0xf4>)
        SystemCoreClock *= ((((PMC->CKGR_PLLAR) & CKGR_PLLAR_MULA_Msk) >> CKGR_PLLAR_MULA_Pos) + 1U);
  40140c:	f3c1 410a 	ubfx	r1, r1, #16, #11
  401410:	6803      	ldr	r3, [r0, #0]
  401412:	fb01 3303 	mla	r3, r1, r3, r3
        SystemCoreClock /= ((((PMC->CKGR_PLLAR) & CKGR_PLLAR_DIVA_Msk) >> CKGR_PLLAR_DIVA_Pos));
  401416:	b2d2      	uxtb	r2, r2
  401418:	fbb3 f3f2 	udiv	r3, r3, r2
  40141c:	6003      	str	r3, [r0, #0]
  40141e:	e7ac      	b.n	40137a <SystemCoreClockUpdate+0x12>
        SystemCoreClock = CHIP_FREQ_MAINCK_RC_4MHZ;
  401420:	4a11      	ldr	r2, [pc, #68]	; (401468 <SystemCoreClockUpdate+0x100>)
  401422:	4b0e      	ldr	r3, [pc, #56]	; (40145c <SystemCoreClockUpdate+0xf4>)
  401424:	601a      	str	r2, [r3, #0]
        switch ( PMC->CKGR_MOR & CKGR_MOR_MOSCRCF_Msk )
  401426:	4b0c      	ldr	r3, [pc, #48]	; (401458 <SystemCoreClockUpdate+0xf0>)
  401428:	6a1b      	ldr	r3, [r3, #32]
  40142a:	f003 0370 	and.w	r3, r3, #112	; 0x70
  40142e:	2b10      	cmp	r3, #16
  401430:	d005      	beq.n	40143e <SystemCoreClockUpdate+0xd6>
  401432:	2b20      	cmp	r3, #32
  401434:	d1e0      	bne.n	4013f8 <SystemCoreClockUpdate+0x90>
            SystemCoreClock *= 3U;
  401436:	4a0b      	ldr	r2, [pc, #44]	; (401464 <SystemCoreClockUpdate+0xfc>)
  401438:	4b08      	ldr	r3, [pc, #32]	; (40145c <SystemCoreClockUpdate+0xf4>)
  40143a:	601a      	str	r2, [r3, #0]
          break;
  40143c:	e7dc      	b.n	4013f8 <SystemCoreClockUpdate+0x90>
            SystemCoreClock *= 2U;
  40143e:	4a0b      	ldr	r2, [pc, #44]	; (40146c <SystemCoreClockUpdate+0x104>)
  401440:	4b06      	ldr	r3, [pc, #24]	; (40145c <SystemCoreClockUpdate+0xf4>)
  401442:	601a      	str	r2, [r3, #0]
          break;
  401444:	e7d8      	b.n	4013f8 <SystemCoreClockUpdate+0x90>
    SystemCoreClock /= 3U;
  401446:	4a05      	ldr	r2, [pc, #20]	; (40145c <SystemCoreClockUpdate+0xf4>)
  401448:	6813      	ldr	r3, [r2, #0]
  40144a:	4909      	ldr	r1, [pc, #36]	; (401470 <SystemCoreClockUpdate+0x108>)
  40144c:	fba1 1303 	umull	r1, r3, r1, r3
  401450:	085b      	lsrs	r3, r3, #1
  401452:	6013      	str	r3, [r2, #0]
  401454:	4770      	bx	lr
  401456:	bf00      	nop
  401458:	400e0600 	.word	0x400e0600
  40145c:	20400004 	.word	0x20400004
  401460:	400e1810 	.word	0x400e1810
  401464:	00b71b00 	.word	0x00b71b00
  401468:	003d0900 	.word	0x003d0900
  40146c:	007a1200 	.word	0x007a1200
  401470:	aaaaaaab 	.word	0xaaaaaaab

00401474 <system_init_flash>:
 * Initialize flash.
 */
void system_init_flash( uint32_t ul_clk )
{
  /* Set FWS for embedded Flash access according to operating frequency */
  if ( ul_clk < CHIP_FREQ_FWS_0 )
  401474:	4b16      	ldr	r3, [pc, #88]	; (4014d0 <system_init_flash+0x5c>)
  401476:	4298      	cmp	r0, r3
  401478:	d913      	bls.n	4014a2 <system_init_flash+0x2e>
  {
    EFC->EEFC_FMR = EEFC_FMR_FWS(0)|EEFC_FMR_CLOE;
  }
  else
  {
    if (ul_clk < CHIP_FREQ_FWS_1)
  40147a:	4b16      	ldr	r3, [pc, #88]	; (4014d4 <system_init_flash+0x60>)
  40147c:	4298      	cmp	r0, r3
  40147e:	d915      	bls.n	4014ac <system_init_flash+0x38>
    {
      EFC->EEFC_FMR = EEFC_FMR_FWS(1)|EEFC_FMR_CLOE;
    }
    else
    {
      if (ul_clk < CHIP_FREQ_FWS_2)
  401480:	4b15      	ldr	r3, [pc, #84]	; (4014d8 <system_init_flash+0x64>)
  401482:	4298      	cmp	r0, r3
  401484:	d916      	bls.n	4014b4 <system_init_flash+0x40>
      {
        EFC->EEFC_FMR = EEFC_FMR_FWS(2)|EEFC_FMR_CLOE;
      }
      else
      {
        if ( ul_clk < CHIP_FREQ_FWS_3 )
  401486:	4b15      	ldr	r3, [pc, #84]	; (4014dc <system_init_flash+0x68>)
  401488:	4298      	cmp	r0, r3
  40148a:	d917      	bls.n	4014bc <system_init_flash+0x48>
        {
          EFC->EEFC_FMR = EEFC_FMR_FWS(3)|EEFC_FMR_CLOE;
        }
        else
        {
          if ( ul_clk < CHIP_FREQ_FWS_4 )
  40148c:	4b14      	ldr	r3, [pc, #80]	; (4014e0 <system_init_flash+0x6c>)
  40148e:	4298      	cmp	r0, r3
  401490:	d918      	bls.n	4014c4 <system_init_flash+0x50>
          {
            EFC->EEFC_FMR = EEFC_FMR_FWS(4)|EEFC_FMR_CLOE;
          }
          else
          {
            if ( ul_clk < CHIP_FREQ_FWS_5 )
  401492:	4b14      	ldr	r3, [pc, #80]	; (4014e4 <system_init_flash+0x70>)
  401494:	4298      	cmp	r0, r3
            {
              EFC->EEFC_FMR = EEFC_FMR_FWS(5)|EEFC_FMR_CLOE;
  401496:	bf94      	ite	ls
  401498:	4a13      	ldrls	r2, [pc, #76]	; (4014e8 <system_init_flash+0x74>)
            }
            else
            {
              EFC->EEFC_FMR = EEFC_FMR_FWS(6)|EEFC_FMR_CLOE;
  40149a:	4a14      	ldrhi	r2, [pc, #80]	; (4014ec <system_init_flash+0x78>)
  40149c:	4b14      	ldr	r3, [pc, #80]	; (4014f0 <system_init_flash+0x7c>)
  40149e:	601a      	str	r2, [r3, #0]
  4014a0:	4770      	bx	lr
    EFC->EEFC_FMR = EEFC_FMR_FWS(0)|EEFC_FMR_CLOE;
  4014a2:	f04f 6280 	mov.w	r2, #67108864	; 0x4000000
  4014a6:	4b12      	ldr	r3, [pc, #72]	; (4014f0 <system_init_flash+0x7c>)
  4014a8:	601a      	str	r2, [r3, #0]
  4014aa:	4770      	bx	lr
      EFC->EEFC_FMR = EEFC_FMR_FWS(1)|EEFC_FMR_CLOE;
  4014ac:	4a11      	ldr	r2, [pc, #68]	; (4014f4 <system_init_flash+0x80>)
  4014ae:	4b10      	ldr	r3, [pc, #64]	; (4014f0 <system_init_flash+0x7c>)
  4014b0:	601a      	str	r2, [r3, #0]
  4014b2:	4770      	bx	lr
        EFC->EEFC_FMR = EEFC_FMR_FWS(2)|EEFC_FMR_CLOE;
  4014b4:	4a10      	ldr	r2, [pc, #64]	; (4014f8 <system_init_flash+0x84>)
  4014b6:	4b0e      	ldr	r3, [pc, #56]	; (4014f0 <system_init_flash+0x7c>)
  4014b8:	601a      	str	r2, [r3, #0]
  4014ba:	4770      	bx	lr
          EFC->EEFC_FMR = EEFC_FMR_FWS(3)|EEFC_FMR_CLOE;
  4014bc:	4a0f      	ldr	r2, [pc, #60]	; (4014fc <system_init_flash+0x88>)
  4014be:	4b0c      	ldr	r3, [pc, #48]	; (4014f0 <system_init_flash+0x7c>)
  4014c0:	601a      	str	r2, [r3, #0]
  4014c2:	4770      	bx	lr
            EFC->EEFC_FMR = EEFC_FMR_FWS(4)|EEFC_FMR_CLOE;
  4014c4:	f04f 2204 	mov.w	r2, #67109888	; 0x4000400
  4014c8:	4b09      	ldr	r3, [pc, #36]	; (4014f0 <system_init_flash+0x7c>)
  4014ca:	601a      	str	r2, [r3, #0]
  4014cc:	4770      	bx	lr
  4014ce:	bf00      	nop
  4014d0:	015ef3bf 	.word	0x015ef3bf
  4014d4:	02bde77f 	.word	0x02bde77f
  4014d8:	041cdb3f 	.word	0x041cdb3f
  4014dc:	057bceff 	.word	0x057bceff
  4014e0:	06dac2bf 	.word	0x06dac2bf
  4014e4:	0839b67f 	.word	0x0839b67f
  4014e8:	04000500 	.word	0x04000500
  4014ec:	04000600 	.word	0x04000600
  4014f0:	400e0c00 	.word	0x400e0c00
  4014f4:	04000100 	.word	0x04000100
  4014f8:	04000200 	.word	0x04000200
  4014fc:	04000300 	.word	0x04000300

00401500 <_sbrk>:
{
	static unsigned char *heap = NULL;
	unsigned char *prev_heap;
	int ramend = (int)&__ram_end__;

	if (heap == NULL) {
  401500:	4b0a      	ldr	r3, [pc, #40]	; (40152c <_sbrk+0x2c>)
  401502:	681b      	ldr	r3, [r3, #0]
  401504:	b153      	cbz	r3, 40151c <_sbrk+0x1c>
		heap = (unsigned char *)&_end;
	}
	prev_heap = heap;
  401506:	4b09      	ldr	r3, [pc, #36]	; (40152c <_sbrk+0x2c>)
  401508:	681b      	ldr	r3, [r3, #0]

	if (((int)prev_heap + incr) > ramend) {
  40150a:	181a      	adds	r2, r3, r0
  40150c:	4908      	ldr	r1, [pc, #32]	; (401530 <_sbrk+0x30>)
  40150e:	4291      	cmp	r1, r2
  401510:	db08      	blt.n	401524 <_sbrk+0x24>
		return (caddr_t) -1;	
	}

	heap += incr;
  401512:	4610      	mov	r0, r2
  401514:	4a05      	ldr	r2, [pc, #20]	; (40152c <_sbrk+0x2c>)
  401516:	6010      	str	r0, [r2, #0]

	return (caddr_t) prev_heap;
  401518:	4618      	mov	r0, r3
  40151a:	4770      	bx	lr
		heap = (unsigned char *)&_end;
  40151c:	4a05      	ldr	r2, [pc, #20]	; (401534 <_sbrk+0x34>)
  40151e:	4b03      	ldr	r3, [pc, #12]	; (40152c <_sbrk+0x2c>)
  401520:	601a      	str	r2, [r3, #0]
  401522:	e7f0      	b.n	401506 <_sbrk+0x6>
		return (caddr_t) -1;	
  401524:	f04f 30ff 	mov.w	r0, #4294967295
}
  401528:	4770      	bx	lr
  40152a:	bf00      	nop
  40152c:	20400c98 	.word	0x20400c98
  401530:	2045fffc 	.word	0x2045fffc
  401534:	20402f08 	.word	0x20402f08

00401538 <main>:
 * Initialize system, UART console, network then start weather client.
 *
 * \return Program return value.
 */
int main(void)
{
  401538:	b500      	push	{lr}
  40153a:	b083      	sub	sp, #12
	// array para escrita no LCD
	//uint8_t stingLCD[256];
	
	/* Initialize the board. */
	sysclk_init();
  40153c:	4b29      	ldr	r3, [pc, #164]	; (4015e4 <main+0xac>)
  40153e:	4798      	blx	r3
	board_init();
  401540:	4b29      	ldr	r3, [pc, #164]	; (4015e8 <main+0xb0>)
  401542:	4798      	blx	r3
  401544:	200a      	movs	r0, #10
  401546:	4c29      	ldr	r4, [pc, #164]	; (4015ec <main+0xb4>)
  401548:	47a0      	blx	r4
  40154a:	200b      	movs	r0, #11
  40154c:	47a0      	blx	r4
  40154e:	200c      	movs	r0, #12
  401550:	47a0      	blx	r4
  401552:	2010      	movs	r0, #16
  401554:	47a0      	blx	r4
  401556:	2011      	movs	r0, #17
  401558:	47a0      	blx	r4
	g_ili9488_display_opt.ul_width = ILI9488_LCD_WIDTH;
  40155a:	4825      	ldr	r0, [pc, #148]	; (4015f0 <main+0xb8>)
  40155c:	f44f 73a0 	mov.w	r3, #320	; 0x140
  401560:	6003      	str	r3, [r0, #0]
	g_ili9488_display_opt.ul_height = ILI9488_LCD_HEIGHT;
  401562:	f44f 73f0 	mov.w	r3, #480	; 0x1e0
  401566:	6043      	str	r3, [r0, #4]
	g_ili9488_display_opt.foreground_color = COLOR_CONVERT(COLOR_WHITE);
  401568:	4b22      	ldr	r3, [pc, #136]	; (4015f4 <main+0xbc>)
  40156a:	6083      	str	r3, [r0, #8]
	g_ili9488_display_opt.background_color = COLOR_CONVERT(COLOR_WHITE);
  40156c:	60c3      	str	r3, [r0, #12]
	ili9488_init(&g_ili9488_display_opt);
  40156e:	4b22      	ldr	r3, [pc, #136]	; (4015f8 <main+0xc0>)
  401570:	4798      	blx	r3
	ili9488_set_foreground_color(COLOR_CONVERT(COLOR_LIGHTBLUE));
  401572:	4822      	ldr	r0, [pc, #136]	; (4015fc <main+0xc4>)
  401574:	4b22      	ldr	r3, [pc, #136]	; (401600 <main+0xc8>)
  401576:	4798      	blx	r3
	ili9488_draw_filled_rectangle(0, 0, ILI9488_LCD_WIDTH-1, ILI9488_LCD_HEIGHT-1);
  401578:	f240 13df 	movw	r3, #479	; 0x1df
  40157c:	f240 123f 	movw	r2, #319	; 0x13f
  401580:	2100      	movs	r1, #0
  401582:	4608      	mov	r0, r1
  401584:	4c1f      	ldr	r4, [pc, #124]	; (401604 <main+0xcc>)
  401586:	47a0      	blx	r4
	ili9488_draw_pixmap(45, 55, fast.width, fast.height, fast.data);
  401588:	4b1f      	ldr	r3, [pc, #124]	; (401608 <main+0xd0>)
  40158a:	9300      	str	r3, [sp, #0]
  40158c:	235a      	movs	r3, #90	; 0x5a
  40158e:	461a      	mov	r2, r3
  401590:	2137      	movs	r1, #55	; 0x37
  401592:	202d      	movs	r0, #45	; 0x2d
  401594:	4c1d      	ldr	r4, [pc, #116]	; (40160c <main+0xd4>)
  401596:	47a0      	blx	r4
	ili9488_draw_pixmap(185, 55, daily.width, daily.height, daily.data);
  401598:	4b1d      	ldr	r3, [pc, #116]	; (401610 <main+0xd8>)
  40159a:	9300      	str	r3, [sp, #0]
  40159c:	235a      	movs	r3, #90	; 0x5a
  40159e:	461a      	mov	r2, r3
  4015a0:	2137      	movs	r1, #55	; 0x37
  4015a2:	20b9      	movs	r0, #185	; 0xb9
  4015a4:	47a0      	blx	r4
	ili9488_draw_pixmap(45, 195, heavy.width, heavy.height, heavy.data);
  4015a6:	4b1b      	ldr	r3, [pc, #108]	; (401614 <main+0xdc>)
  4015a8:	9300      	str	r3, [sp, #0]
  4015aa:	235a      	movs	r3, #90	; 0x5a
  4015ac:	461a      	mov	r2, r3
  4015ae:	21c3      	movs	r1, #195	; 0xc3
  4015b0:	202d      	movs	r0, #45	; 0x2d
  4015b2:	47a0      	blx	r4
	ili9488_draw_pixmap(185, 195, rinse.width, rinse.height, rinse.data);
  4015b4:	4b18      	ldr	r3, [pc, #96]	; (401618 <main+0xe0>)
  4015b6:	9300      	str	r3, [sp, #0]
  4015b8:	235a      	movs	r3, #90	; 0x5a
  4015ba:	461a      	mov	r2, r3
  4015bc:	21c3      	movs	r1, #195	; 0xc3
  4015be:	20b9      	movs	r0, #185	; 0xb9
  4015c0:	47a0      	blx	r4
	ili9488_draw_pixmap(45, 335, centrifuge.width, centrifuge.height, centrifuge.data);
  4015c2:	4b16      	ldr	r3, [pc, #88]	; (40161c <main+0xe4>)
  4015c4:	9300      	str	r3, [sp, #0]
  4015c6:	235a      	movs	r3, #90	; 0x5a
  4015c8:	461a      	mov	r2, r3
  4015ca:	f240 114f 	movw	r1, #335	; 0x14f
  4015ce:	202d      	movs	r0, #45	; 0x2d
  4015d0:	47a0      	blx	r4
	ili9488_draw_pixmap(185, 335, custom.width, custom.height, custom.data);
  4015d2:	4b13      	ldr	r3, [pc, #76]	; (401620 <main+0xe8>)
  4015d4:	9300      	str	r3, [sp, #0]
  4015d6:	235a      	movs	r3, #90	; 0x5a
  4015d8:	461a      	mov	r2, r3
  4015da:	f240 114f 	movw	r1, #335	; 0x14f
  4015de:	20b9      	movs	r0, #185	; 0xb9
  4015e0:	47a0      	blx	r4
  4015e2:	e7fe      	b.n	4015e2 <main+0xaa>
  4015e4:	004001d5 	.word	0x004001d5
  4015e8:	004003d9 	.word	0x004003d9
  4015ec:	00401105 	.word	0x00401105
  4015f0:	20400cd0 	.word	0x20400cd0
  4015f4:	00fcfcfc 	.word	0x00fcfcfc
  4015f8:	00400945 	.word	0x00400945
  4015fc:	00acd8e4 	.word	0x00acd8e4
  401600:	004008b9 	.word	0x004008b9
  401604:	00400b09 	.word	0x00400b09
  401608:	00413c70 	.word	0x00413c70
  40160c:	00400bc5 	.word	0x00400bc5
  401610:	0040dd84 	.word	0x0040dd84
  401614:	00419b5c 	.word	0x00419b5c
  401618:	0041fa48 	.word	0x0041fa48
  40161c:	00401fac 	.word	0x00401fac
  401620:	00407e98 	.word	0x00407e98

00401624 <__libc_init_array>:
  401624:	b570      	push	{r4, r5, r6, lr}
  401626:	4e0f      	ldr	r6, [pc, #60]	; (401664 <__libc_init_array+0x40>)
  401628:	4d0f      	ldr	r5, [pc, #60]	; (401668 <__libc_init_array+0x44>)
  40162a:	1b76      	subs	r6, r6, r5
  40162c:	10b6      	asrs	r6, r6, #2
  40162e:	bf18      	it	ne
  401630:	2400      	movne	r4, #0
  401632:	d005      	beq.n	401640 <__libc_init_array+0x1c>
  401634:	3401      	adds	r4, #1
  401636:	f855 3b04 	ldr.w	r3, [r5], #4
  40163a:	4798      	blx	r3
  40163c:	42a6      	cmp	r6, r4
  40163e:	d1f9      	bne.n	401634 <__libc_init_array+0x10>
  401640:	4e0a      	ldr	r6, [pc, #40]	; (40166c <__libc_init_array+0x48>)
  401642:	4d0b      	ldr	r5, [pc, #44]	; (401670 <__libc_init_array+0x4c>)
  401644:	1b76      	subs	r6, r6, r5
  401646:	f024 f977 	bl	425938 <_init>
  40164a:	10b6      	asrs	r6, r6, #2
  40164c:	bf18      	it	ne
  40164e:	2400      	movne	r4, #0
  401650:	d006      	beq.n	401660 <__libc_init_array+0x3c>
  401652:	3401      	adds	r4, #1
  401654:	f855 3b04 	ldr.w	r3, [r5], #4
  401658:	4798      	blx	r3
  40165a:	42a6      	cmp	r6, r4
  40165c:	d1f9      	bne.n	401652 <__libc_init_array+0x2e>
  40165e:	bd70      	pop	{r4, r5, r6, pc}
  401660:	bd70      	pop	{r4, r5, r6, pc}
  401662:	bf00      	nop
  401664:	00425944 	.word	0x00425944
  401668:	00425944 	.word	0x00425944
  40166c:	0042594c 	.word	0x0042594c
  401670:	00425944 	.word	0x00425944

00401674 <malloc>:
  401674:	4b02      	ldr	r3, [pc, #8]	; (401680 <malloc+0xc>)
  401676:	4601      	mov	r1, r0
  401678:	6818      	ldr	r0, [r3, #0]
  40167a:	f000 b803 	b.w	401684 <_malloc_r>
  40167e:	bf00      	nop
  401680:	20400008 	.word	0x20400008

00401684 <_malloc_r>:
  401684:	e92d 4ff0 	stmdb	sp!, {r4, r5, r6, r7, r8, r9, sl, fp, lr}
  401688:	f101 060b 	add.w	r6, r1, #11
  40168c:	2e16      	cmp	r6, #22
  40168e:	b083      	sub	sp, #12
  401690:	4605      	mov	r5, r0
  401692:	f240 809e 	bls.w	4017d2 <_malloc_r+0x14e>
  401696:	f036 0607 	bics.w	r6, r6, #7
  40169a:	f100 80bd 	bmi.w	401818 <_malloc_r+0x194>
  40169e:	42b1      	cmp	r1, r6
  4016a0:	f200 80ba 	bhi.w	401818 <_malloc_r+0x194>
  4016a4:	f000 fa9e 	bl	401be4 <__malloc_lock>
  4016a8:	f5b6 7ffc 	cmp.w	r6, #504	; 0x1f8
  4016ac:	f0c0 8293 	bcc.w	401bd6 <_malloc_r+0x552>
  4016b0:	0a73      	lsrs	r3, r6, #9
  4016b2:	f000 80b8 	beq.w	401826 <_malloc_r+0x1a2>
  4016b6:	2b04      	cmp	r3, #4
  4016b8:	f200 8179 	bhi.w	4019ae <_malloc_r+0x32a>
  4016bc:	09b3      	lsrs	r3, r6, #6
  4016be:	f103 0039 	add.w	r0, r3, #57	; 0x39
  4016c2:	f103 0e38 	add.w	lr, r3, #56	; 0x38
  4016c6:	00c3      	lsls	r3, r0, #3
  4016c8:	4fbf      	ldr	r7, [pc, #764]	; (4019c8 <_malloc_r+0x344>)
  4016ca:	443b      	add	r3, r7
  4016cc:	f1a3 0108 	sub.w	r1, r3, #8
  4016d0:	685c      	ldr	r4, [r3, #4]
  4016d2:	42a1      	cmp	r1, r4
  4016d4:	d106      	bne.n	4016e4 <_malloc_r+0x60>
  4016d6:	e00c      	b.n	4016f2 <_malloc_r+0x6e>
  4016d8:	2a00      	cmp	r2, #0
  4016da:	f280 80aa 	bge.w	401832 <_malloc_r+0x1ae>
  4016de:	68e4      	ldr	r4, [r4, #12]
  4016e0:	42a1      	cmp	r1, r4
  4016e2:	d006      	beq.n	4016f2 <_malloc_r+0x6e>
  4016e4:	6863      	ldr	r3, [r4, #4]
  4016e6:	f023 0303 	bic.w	r3, r3, #3
  4016ea:	1b9a      	subs	r2, r3, r6
  4016ec:	2a0f      	cmp	r2, #15
  4016ee:	ddf3      	ble.n	4016d8 <_malloc_r+0x54>
  4016f0:	4670      	mov	r0, lr
  4016f2:	693c      	ldr	r4, [r7, #16]
  4016f4:	f8df e2e4 	ldr.w	lr, [pc, #740]	; 4019dc <_malloc_r+0x358>
  4016f8:	4574      	cmp	r4, lr
  4016fa:	f000 81ab 	beq.w	401a54 <_malloc_r+0x3d0>
  4016fe:	6863      	ldr	r3, [r4, #4]
  401700:	f023 0303 	bic.w	r3, r3, #3
  401704:	1b9a      	subs	r2, r3, r6
  401706:	2a0f      	cmp	r2, #15
  401708:	f300 8190 	bgt.w	401a2c <_malloc_r+0x3a8>
  40170c:	2a00      	cmp	r2, #0
  40170e:	f8c7 e014 	str.w	lr, [r7, #20]
  401712:	f8c7 e010 	str.w	lr, [r7, #16]
  401716:	f280 809d 	bge.w	401854 <_malloc_r+0x1d0>
  40171a:	f5b3 7f00 	cmp.w	r3, #512	; 0x200
  40171e:	f080 8161 	bcs.w	4019e4 <_malloc_r+0x360>
  401722:	08db      	lsrs	r3, r3, #3
  401724:	f103 0c01 	add.w	ip, r3, #1
  401728:	1099      	asrs	r1, r3, #2
  40172a:	687a      	ldr	r2, [r7, #4]
  40172c:	f857 803c 	ldr.w	r8, [r7, ip, lsl #3]
  401730:	f8c4 8008 	str.w	r8, [r4, #8]
  401734:	2301      	movs	r3, #1
  401736:	408b      	lsls	r3, r1
  401738:	eb07 01cc 	add.w	r1, r7, ip, lsl #3
  40173c:	4313      	orrs	r3, r2
  40173e:	3908      	subs	r1, #8
  401740:	60e1      	str	r1, [r4, #12]
  401742:	607b      	str	r3, [r7, #4]
  401744:	f847 403c 	str.w	r4, [r7, ip, lsl #3]
  401748:	f8c8 400c 	str.w	r4, [r8, #12]
  40174c:	1082      	asrs	r2, r0, #2
  40174e:	2401      	movs	r4, #1
  401750:	4094      	lsls	r4, r2
  401752:	429c      	cmp	r4, r3
  401754:	f200 808b 	bhi.w	40186e <_malloc_r+0x1ea>
  401758:	421c      	tst	r4, r3
  40175a:	d106      	bne.n	40176a <_malloc_r+0xe6>
  40175c:	f020 0003 	bic.w	r0, r0, #3
  401760:	0064      	lsls	r4, r4, #1
  401762:	421c      	tst	r4, r3
  401764:	f100 0004 	add.w	r0, r0, #4
  401768:	d0fa      	beq.n	401760 <_malloc_r+0xdc>
  40176a:	eb07 09c0 	add.w	r9, r7, r0, lsl #3
  40176e:	46cc      	mov	ip, r9
  401770:	4680      	mov	r8, r0
  401772:	f8dc 300c 	ldr.w	r3, [ip, #12]
  401776:	459c      	cmp	ip, r3
  401778:	d107      	bne.n	40178a <_malloc_r+0x106>
  40177a:	e16d      	b.n	401a58 <_malloc_r+0x3d4>
  40177c:	2a00      	cmp	r2, #0
  40177e:	f280 817b 	bge.w	401a78 <_malloc_r+0x3f4>
  401782:	68db      	ldr	r3, [r3, #12]
  401784:	459c      	cmp	ip, r3
  401786:	f000 8167 	beq.w	401a58 <_malloc_r+0x3d4>
  40178a:	6859      	ldr	r1, [r3, #4]
  40178c:	f021 0103 	bic.w	r1, r1, #3
  401790:	1b8a      	subs	r2, r1, r6
  401792:	2a0f      	cmp	r2, #15
  401794:	ddf2      	ble.n	40177c <_malloc_r+0xf8>
  401796:	f8d3 c00c 	ldr.w	ip, [r3, #12]
  40179a:	f8d3 8008 	ldr.w	r8, [r3, #8]
  40179e:	9300      	str	r3, [sp, #0]
  4017a0:	199c      	adds	r4, r3, r6
  4017a2:	4628      	mov	r0, r5
  4017a4:	f046 0601 	orr.w	r6, r6, #1
  4017a8:	f042 0501 	orr.w	r5, r2, #1
  4017ac:	605e      	str	r6, [r3, #4]
  4017ae:	f8c8 c00c 	str.w	ip, [r8, #12]
  4017b2:	f8cc 8008 	str.w	r8, [ip, #8]
  4017b6:	617c      	str	r4, [r7, #20]
  4017b8:	613c      	str	r4, [r7, #16]
  4017ba:	f8c4 e00c 	str.w	lr, [r4, #12]
  4017be:	f8c4 e008 	str.w	lr, [r4, #8]
  4017c2:	6065      	str	r5, [r4, #4]
  4017c4:	505a      	str	r2, [r3, r1]
  4017c6:	f000 fa13 	bl	401bf0 <__malloc_unlock>
  4017ca:	9b00      	ldr	r3, [sp, #0]
  4017cc:	f103 0408 	add.w	r4, r3, #8
  4017d0:	e01e      	b.n	401810 <_malloc_r+0x18c>
  4017d2:	2910      	cmp	r1, #16
  4017d4:	d820      	bhi.n	401818 <_malloc_r+0x194>
  4017d6:	f000 fa05 	bl	401be4 <__malloc_lock>
  4017da:	2610      	movs	r6, #16
  4017dc:	2318      	movs	r3, #24
  4017de:	2002      	movs	r0, #2
  4017e0:	4f79      	ldr	r7, [pc, #484]	; (4019c8 <_malloc_r+0x344>)
  4017e2:	443b      	add	r3, r7
  4017e4:	f1a3 0208 	sub.w	r2, r3, #8
  4017e8:	685c      	ldr	r4, [r3, #4]
  4017ea:	4294      	cmp	r4, r2
  4017ec:	f000 813d 	beq.w	401a6a <_malloc_r+0x3e6>
  4017f0:	6863      	ldr	r3, [r4, #4]
  4017f2:	68e1      	ldr	r1, [r4, #12]
  4017f4:	68a6      	ldr	r6, [r4, #8]
  4017f6:	f023 0303 	bic.w	r3, r3, #3
  4017fa:	4423      	add	r3, r4
  4017fc:	4628      	mov	r0, r5
  4017fe:	685a      	ldr	r2, [r3, #4]
  401800:	60f1      	str	r1, [r6, #12]
  401802:	f042 0201 	orr.w	r2, r2, #1
  401806:	608e      	str	r6, [r1, #8]
  401808:	605a      	str	r2, [r3, #4]
  40180a:	f000 f9f1 	bl	401bf0 <__malloc_unlock>
  40180e:	3408      	adds	r4, #8
  401810:	4620      	mov	r0, r4
  401812:	b003      	add	sp, #12
  401814:	e8bd 8ff0 	ldmia.w	sp!, {r4, r5, r6, r7, r8, r9, sl, fp, pc}
  401818:	2400      	movs	r4, #0
  40181a:	230c      	movs	r3, #12
  40181c:	4620      	mov	r0, r4
  40181e:	602b      	str	r3, [r5, #0]
  401820:	b003      	add	sp, #12
  401822:	e8bd 8ff0 	ldmia.w	sp!, {r4, r5, r6, r7, r8, r9, sl, fp, pc}
  401826:	2040      	movs	r0, #64	; 0x40
  401828:	f44f 7300 	mov.w	r3, #512	; 0x200
  40182c:	f04f 0e3f 	mov.w	lr, #63	; 0x3f
  401830:	e74a      	b.n	4016c8 <_malloc_r+0x44>
  401832:	4423      	add	r3, r4
  401834:	68e1      	ldr	r1, [r4, #12]
  401836:	685a      	ldr	r2, [r3, #4]
  401838:	68a6      	ldr	r6, [r4, #8]
  40183a:	f042 0201 	orr.w	r2, r2, #1
  40183e:	60f1      	str	r1, [r6, #12]
  401840:	4628      	mov	r0, r5
  401842:	608e      	str	r6, [r1, #8]
  401844:	605a      	str	r2, [r3, #4]
  401846:	f000 f9d3 	bl	401bf0 <__malloc_unlock>
  40184a:	3408      	adds	r4, #8
  40184c:	4620      	mov	r0, r4
  40184e:	b003      	add	sp, #12
  401850:	e8bd 8ff0 	ldmia.w	sp!, {r4, r5, r6, r7, r8, r9, sl, fp, pc}
  401854:	4423      	add	r3, r4
  401856:	4628      	mov	r0, r5
  401858:	685a      	ldr	r2, [r3, #4]
  40185a:	f042 0201 	orr.w	r2, r2, #1
  40185e:	605a      	str	r2, [r3, #4]
  401860:	f000 f9c6 	bl	401bf0 <__malloc_unlock>
  401864:	3408      	adds	r4, #8
  401866:	4620      	mov	r0, r4
  401868:	b003      	add	sp, #12
  40186a:	e8bd 8ff0 	ldmia.w	sp!, {r4, r5, r6, r7, r8, r9, sl, fp, pc}
  40186e:	68bc      	ldr	r4, [r7, #8]
  401870:	6863      	ldr	r3, [r4, #4]
  401872:	f023 0803 	bic.w	r8, r3, #3
  401876:	45b0      	cmp	r8, r6
  401878:	d304      	bcc.n	401884 <_malloc_r+0x200>
  40187a:	eba8 0306 	sub.w	r3, r8, r6
  40187e:	2b0f      	cmp	r3, #15
  401880:	f300 8085 	bgt.w	40198e <_malloc_r+0x30a>
  401884:	f8df 9158 	ldr.w	r9, [pc, #344]	; 4019e0 <_malloc_r+0x35c>
  401888:	4b50      	ldr	r3, [pc, #320]	; (4019cc <_malloc_r+0x348>)
  40188a:	f8d9 2000 	ldr.w	r2, [r9]
  40188e:	681b      	ldr	r3, [r3, #0]
  401890:	3201      	adds	r2, #1
  401892:	4433      	add	r3, r6
  401894:	eb04 0a08 	add.w	sl, r4, r8
  401898:	f000 8155 	beq.w	401b46 <_malloc_r+0x4c2>
  40189c:	f503 5380 	add.w	r3, r3, #4096	; 0x1000
  4018a0:	330f      	adds	r3, #15
  4018a2:	f423 6b7f 	bic.w	fp, r3, #4080	; 0xff0
  4018a6:	f02b 0b0f 	bic.w	fp, fp, #15
  4018aa:	4659      	mov	r1, fp
  4018ac:	4628      	mov	r0, r5
  4018ae:	f000 f9a5 	bl	401bfc <_sbrk_r>
  4018b2:	1c41      	adds	r1, r0, #1
  4018b4:	4602      	mov	r2, r0
  4018b6:	f000 80fc 	beq.w	401ab2 <_malloc_r+0x42e>
  4018ba:	4582      	cmp	sl, r0
  4018bc:	f200 80f7 	bhi.w	401aae <_malloc_r+0x42a>
  4018c0:	4b43      	ldr	r3, [pc, #268]	; (4019d0 <_malloc_r+0x34c>)
  4018c2:	6819      	ldr	r1, [r3, #0]
  4018c4:	4459      	add	r1, fp
  4018c6:	6019      	str	r1, [r3, #0]
  4018c8:	f000 814d 	beq.w	401b66 <_malloc_r+0x4e2>
  4018cc:	f8d9 0000 	ldr.w	r0, [r9]
  4018d0:	3001      	adds	r0, #1
  4018d2:	bf1b      	ittet	ne
  4018d4:	eba2 0a0a 	subne.w	sl, r2, sl
  4018d8:	4451      	addne	r1, sl
  4018da:	f8c9 2000 	streq.w	r2, [r9]
  4018de:	6019      	strne	r1, [r3, #0]
  4018e0:	f012 0107 	ands.w	r1, r2, #7
  4018e4:	f000 8115 	beq.w	401b12 <_malloc_r+0x48e>
  4018e8:	f1c1 0008 	rsb	r0, r1, #8
  4018ec:	f5c1 5180 	rsb	r1, r1, #4096	; 0x1000
  4018f0:	4402      	add	r2, r0
  4018f2:	3108      	adds	r1, #8
  4018f4:	eb02 090b 	add.w	r9, r2, fp
  4018f8:	f3c9 090b 	ubfx	r9, r9, #0, #12
  4018fc:	eba1 0909 	sub.w	r9, r1, r9
  401900:	4649      	mov	r1, r9
  401902:	4628      	mov	r0, r5
  401904:	9301      	str	r3, [sp, #4]
  401906:	9200      	str	r2, [sp, #0]
  401908:	f000 f978 	bl	401bfc <_sbrk_r>
  40190c:	1c43      	adds	r3, r0, #1
  40190e:	e89d 000c 	ldmia.w	sp, {r2, r3}
  401912:	f000 8143 	beq.w	401b9c <_malloc_r+0x518>
  401916:	1a80      	subs	r0, r0, r2
  401918:	4448      	add	r0, r9
  40191a:	f040 0001 	orr.w	r0, r0, #1
  40191e:	6819      	ldr	r1, [r3, #0]
  401920:	60ba      	str	r2, [r7, #8]
  401922:	4449      	add	r1, r9
  401924:	42bc      	cmp	r4, r7
  401926:	6050      	str	r0, [r2, #4]
  401928:	6019      	str	r1, [r3, #0]
  40192a:	d017      	beq.n	40195c <_malloc_r+0x2d8>
  40192c:	f1b8 0f0f 	cmp.w	r8, #15
  401930:	f240 80fb 	bls.w	401b2a <_malloc_r+0x4a6>
  401934:	6860      	ldr	r0, [r4, #4]
  401936:	f1a8 020c 	sub.w	r2, r8, #12
  40193a:	f022 0207 	bic.w	r2, r2, #7
  40193e:	eb04 0e02 	add.w	lr, r4, r2
  401942:	f000 0001 	and.w	r0, r0, #1
  401946:	f04f 0c05 	mov.w	ip, #5
  40194a:	4310      	orrs	r0, r2
  40194c:	2a0f      	cmp	r2, #15
  40194e:	6060      	str	r0, [r4, #4]
  401950:	f8ce c004 	str.w	ip, [lr, #4]
  401954:	f8ce c008 	str.w	ip, [lr, #8]
  401958:	f200 8117 	bhi.w	401b8a <_malloc_r+0x506>
  40195c:	4b1d      	ldr	r3, [pc, #116]	; (4019d4 <_malloc_r+0x350>)
  40195e:	68bc      	ldr	r4, [r7, #8]
  401960:	681a      	ldr	r2, [r3, #0]
  401962:	4291      	cmp	r1, r2
  401964:	bf88      	it	hi
  401966:	6019      	strhi	r1, [r3, #0]
  401968:	4b1b      	ldr	r3, [pc, #108]	; (4019d8 <_malloc_r+0x354>)
  40196a:	681a      	ldr	r2, [r3, #0]
  40196c:	4291      	cmp	r1, r2
  40196e:	6862      	ldr	r2, [r4, #4]
  401970:	bf88      	it	hi
  401972:	6019      	strhi	r1, [r3, #0]
  401974:	f022 0203 	bic.w	r2, r2, #3
  401978:	4296      	cmp	r6, r2
  40197a:	eba2 0306 	sub.w	r3, r2, r6
  40197e:	d801      	bhi.n	401984 <_malloc_r+0x300>
  401980:	2b0f      	cmp	r3, #15
  401982:	dc04      	bgt.n	40198e <_malloc_r+0x30a>
  401984:	4628      	mov	r0, r5
  401986:	f000 f933 	bl	401bf0 <__malloc_unlock>
  40198a:	2400      	movs	r4, #0
  40198c:	e740      	b.n	401810 <_malloc_r+0x18c>
  40198e:	19a2      	adds	r2, r4, r6
  401990:	f043 0301 	orr.w	r3, r3, #1
  401994:	f046 0601 	orr.w	r6, r6, #1
  401998:	6066      	str	r6, [r4, #4]
  40199a:	4628      	mov	r0, r5
  40199c:	60ba      	str	r2, [r7, #8]
  40199e:	6053      	str	r3, [r2, #4]
  4019a0:	f000 f926 	bl	401bf0 <__malloc_unlock>
  4019a4:	3408      	adds	r4, #8
  4019a6:	4620      	mov	r0, r4
  4019a8:	b003      	add	sp, #12
  4019aa:	e8bd 8ff0 	ldmia.w	sp!, {r4, r5, r6, r7, r8, r9, sl, fp, pc}
  4019ae:	2b14      	cmp	r3, #20
  4019b0:	d971      	bls.n	401a96 <_malloc_r+0x412>
  4019b2:	2b54      	cmp	r3, #84	; 0x54
  4019b4:	f200 80a3 	bhi.w	401afe <_malloc_r+0x47a>
  4019b8:	0b33      	lsrs	r3, r6, #12
  4019ba:	f103 006f 	add.w	r0, r3, #111	; 0x6f
  4019be:	f103 0e6e 	add.w	lr, r3, #110	; 0x6e
  4019c2:	00c3      	lsls	r3, r0, #3
  4019c4:	e680      	b.n	4016c8 <_malloc_r+0x44>
  4019c6:	bf00      	nop
  4019c8:	20400438 	.word	0x20400438
  4019cc:	20400ccc 	.word	0x20400ccc
  4019d0:	20400c9c 	.word	0x20400c9c
  4019d4:	20400cc4 	.word	0x20400cc4
  4019d8:	20400cc8 	.word	0x20400cc8
  4019dc:	20400440 	.word	0x20400440
  4019e0:	20400840 	.word	0x20400840
  4019e4:	0a5a      	lsrs	r2, r3, #9
  4019e6:	2a04      	cmp	r2, #4
  4019e8:	d95b      	bls.n	401aa2 <_malloc_r+0x41e>
  4019ea:	2a14      	cmp	r2, #20
  4019ec:	f200 80ae 	bhi.w	401b4c <_malloc_r+0x4c8>
  4019f0:	f102 015c 	add.w	r1, r2, #92	; 0x5c
  4019f4:	00c9      	lsls	r1, r1, #3
  4019f6:	325b      	adds	r2, #91	; 0x5b
  4019f8:	eb07 0c01 	add.w	ip, r7, r1
  4019fc:	5879      	ldr	r1, [r7, r1]
  4019fe:	f1ac 0c08 	sub.w	ip, ip, #8
  401a02:	458c      	cmp	ip, r1
  401a04:	f000 8088 	beq.w	401b18 <_malloc_r+0x494>
  401a08:	684a      	ldr	r2, [r1, #4]
  401a0a:	f022 0203 	bic.w	r2, r2, #3
  401a0e:	4293      	cmp	r3, r2
  401a10:	d273      	bcs.n	401afa <_malloc_r+0x476>
  401a12:	6889      	ldr	r1, [r1, #8]
  401a14:	458c      	cmp	ip, r1
  401a16:	d1f7      	bne.n	401a08 <_malloc_r+0x384>
  401a18:	f8dc 200c 	ldr.w	r2, [ip, #12]
  401a1c:	687b      	ldr	r3, [r7, #4]
  401a1e:	60e2      	str	r2, [r4, #12]
  401a20:	f8c4 c008 	str.w	ip, [r4, #8]
  401a24:	6094      	str	r4, [r2, #8]
  401a26:	f8cc 400c 	str.w	r4, [ip, #12]
  401a2a:	e68f      	b.n	40174c <_malloc_r+0xc8>
  401a2c:	19a1      	adds	r1, r4, r6
  401a2e:	f046 0c01 	orr.w	ip, r6, #1
  401a32:	f042 0601 	orr.w	r6, r2, #1
  401a36:	f8c4 c004 	str.w	ip, [r4, #4]
  401a3a:	4628      	mov	r0, r5
  401a3c:	6179      	str	r1, [r7, #20]
  401a3e:	6139      	str	r1, [r7, #16]
  401a40:	f8c1 e00c 	str.w	lr, [r1, #12]
  401a44:	f8c1 e008 	str.w	lr, [r1, #8]
  401a48:	604e      	str	r6, [r1, #4]
  401a4a:	50e2      	str	r2, [r4, r3]
  401a4c:	f000 f8d0 	bl	401bf0 <__malloc_unlock>
  401a50:	3408      	adds	r4, #8
  401a52:	e6dd      	b.n	401810 <_malloc_r+0x18c>
  401a54:	687b      	ldr	r3, [r7, #4]
  401a56:	e679      	b.n	40174c <_malloc_r+0xc8>
  401a58:	f108 0801 	add.w	r8, r8, #1
  401a5c:	f018 0f03 	tst.w	r8, #3
  401a60:	f10c 0c08 	add.w	ip, ip, #8
  401a64:	f47f ae85 	bne.w	401772 <_malloc_r+0xee>
  401a68:	e02d      	b.n	401ac6 <_malloc_r+0x442>
  401a6a:	68dc      	ldr	r4, [r3, #12]
  401a6c:	42a3      	cmp	r3, r4
  401a6e:	bf08      	it	eq
  401a70:	3002      	addeq	r0, #2
  401a72:	f43f ae3e 	beq.w	4016f2 <_malloc_r+0x6e>
  401a76:	e6bb      	b.n	4017f0 <_malloc_r+0x16c>
  401a78:	4419      	add	r1, r3
  401a7a:	461c      	mov	r4, r3
  401a7c:	684a      	ldr	r2, [r1, #4]
  401a7e:	68db      	ldr	r3, [r3, #12]
  401a80:	f854 6f08 	ldr.w	r6, [r4, #8]!
  401a84:	f042 0201 	orr.w	r2, r2, #1
  401a88:	604a      	str	r2, [r1, #4]
  401a8a:	4628      	mov	r0, r5
  401a8c:	60f3      	str	r3, [r6, #12]
  401a8e:	609e      	str	r6, [r3, #8]
  401a90:	f000 f8ae 	bl	401bf0 <__malloc_unlock>
  401a94:	e6bc      	b.n	401810 <_malloc_r+0x18c>
  401a96:	f103 005c 	add.w	r0, r3, #92	; 0x5c
  401a9a:	f103 0e5b 	add.w	lr, r3, #91	; 0x5b
  401a9e:	00c3      	lsls	r3, r0, #3
  401aa0:	e612      	b.n	4016c8 <_malloc_r+0x44>
  401aa2:	099a      	lsrs	r2, r3, #6
  401aa4:	f102 0139 	add.w	r1, r2, #57	; 0x39
  401aa8:	00c9      	lsls	r1, r1, #3
  401aaa:	3238      	adds	r2, #56	; 0x38
  401aac:	e7a4      	b.n	4019f8 <_malloc_r+0x374>
  401aae:	42bc      	cmp	r4, r7
  401ab0:	d054      	beq.n	401b5c <_malloc_r+0x4d8>
  401ab2:	68bc      	ldr	r4, [r7, #8]
  401ab4:	6862      	ldr	r2, [r4, #4]
  401ab6:	f022 0203 	bic.w	r2, r2, #3
  401aba:	e75d      	b.n	401978 <_malloc_r+0x2f4>
  401abc:	f859 3908 	ldr.w	r3, [r9], #-8
  401ac0:	4599      	cmp	r9, r3
  401ac2:	f040 8086 	bne.w	401bd2 <_malloc_r+0x54e>
  401ac6:	f010 0f03 	tst.w	r0, #3
  401aca:	f100 30ff 	add.w	r0, r0, #4294967295
  401ace:	d1f5      	bne.n	401abc <_malloc_r+0x438>
  401ad0:	687b      	ldr	r3, [r7, #4]
  401ad2:	ea23 0304 	bic.w	r3, r3, r4
  401ad6:	607b      	str	r3, [r7, #4]
  401ad8:	0064      	lsls	r4, r4, #1
  401ada:	429c      	cmp	r4, r3
  401adc:	f63f aec7 	bhi.w	40186e <_malloc_r+0x1ea>
  401ae0:	2c00      	cmp	r4, #0
  401ae2:	f43f aec4 	beq.w	40186e <_malloc_r+0x1ea>
  401ae6:	421c      	tst	r4, r3
  401ae8:	4640      	mov	r0, r8
  401aea:	f47f ae3e 	bne.w	40176a <_malloc_r+0xe6>
  401aee:	0064      	lsls	r4, r4, #1
  401af0:	421c      	tst	r4, r3
  401af2:	f100 0004 	add.w	r0, r0, #4
  401af6:	d0fa      	beq.n	401aee <_malloc_r+0x46a>
  401af8:	e637      	b.n	40176a <_malloc_r+0xe6>
  401afa:	468c      	mov	ip, r1
  401afc:	e78c      	b.n	401a18 <_malloc_r+0x394>
  401afe:	f5b3 7faa 	cmp.w	r3, #340	; 0x154
  401b02:	d815      	bhi.n	401b30 <_malloc_r+0x4ac>
  401b04:	0bf3      	lsrs	r3, r6, #15
  401b06:	f103 0078 	add.w	r0, r3, #120	; 0x78
  401b0a:	f103 0e77 	add.w	lr, r3, #119	; 0x77
  401b0e:	00c3      	lsls	r3, r0, #3
  401b10:	e5da      	b.n	4016c8 <_malloc_r+0x44>
  401b12:	f44f 5180 	mov.w	r1, #4096	; 0x1000
  401b16:	e6ed      	b.n	4018f4 <_malloc_r+0x270>
  401b18:	687b      	ldr	r3, [r7, #4]
  401b1a:	1092      	asrs	r2, r2, #2
  401b1c:	2101      	movs	r1, #1
  401b1e:	fa01 f202 	lsl.w	r2, r1, r2
  401b22:	4313      	orrs	r3, r2
  401b24:	607b      	str	r3, [r7, #4]
  401b26:	4662      	mov	r2, ip
  401b28:	e779      	b.n	401a1e <_malloc_r+0x39a>
  401b2a:	2301      	movs	r3, #1
  401b2c:	6053      	str	r3, [r2, #4]
  401b2e:	e729      	b.n	401984 <_malloc_r+0x300>
  401b30:	f240 5254 	movw	r2, #1364	; 0x554
  401b34:	4293      	cmp	r3, r2
  401b36:	d822      	bhi.n	401b7e <_malloc_r+0x4fa>
  401b38:	0cb3      	lsrs	r3, r6, #18
  401b3a:	f103 007d 	add.w	r0, r3, #125	; 0x7d
  401b3e:	f103 0e7c 	add.w	lr, r3, #124	; 0x7c
  401b42:	00c3      	lsls	r3, r0, #3
  401b44:	e5c0      	b.n	4016c8 <_malloc_r+0x44>
  401b46:	f103 0b10 	add.w	fp, r3, #16
  401b4a:	e6ae      	b.n	4018aa <_malloc_r+0x226>
  401b4c:	2a54      	cmp	r2, #84	; 0x54
  401b4e:	d829      	bhi.n	401ba4 <_malloc_r+0x520>
  401b50:	0b1a      	lsrs	r2, r3, #12
  401b52:	f102 016f 	add.w	r1, r2, #111	; 0x6f
  401b56:	00c9      	lsls	r1, r1, #3
  401b58:	326e      	adds	r2, #110	; 0x6e
  401b5a:	e74d      	b.n	4019f8 <_malloc_r+0x374>
  401b5c:	4b20      	ldr	r3, [pc, #128]	; (401be0 <_malloc_r+0x55c>)
  401b5e:	6819      	ldr	r1, [r3, #0]
  401b60:	4459      	add	r1, fp
  401b62:	6019      	str	r1, [r3, #0]
  401b64:	e6b2      	b.n	4018cc <_malloc_r+0x248>
  401b66:	f3ca 000b 	ubfx	r0, sl, #0, #12
  401b6a:	2800      	cmp	r0, #0
  401b6c:	f47f aeae 	bne.w	4018cc <_malloc_r+0x248>
  401b70:	eb08 030b 	add.w	r3, r8, fp
  401b74:	68ba      	ldr	r2, [r7, #8]
  401b76:	f043 0301 	orr.w	r3, r3, #1
  401b7a:	6053      	str	r3, [r2, #4]
  401b7c:	e6ee      	b.n	40195c <_malloc_r+0x2d8>
  401b7e:	207f      	movs	r0, #127	; 0x7f
  401b80:	f44f 737e 	mov.w	r3, #1016	; 0x3f8
  401b84:	f04f 0e7e 	mov.w	lr, #126	; 0x7e
  401b88:	e59e      	b.n	4016c8 <_malloc_r+0x44>
  401b8a:	f104 0108 	add.w	r1, r4, #8
  401b8e:	4628      	mov	r0, r5
  401b90:	9300      	str	r3, [sp, #0]
  401b92:	f000 f8bf 	bl	401d14 <_free_r>
  401b96:	9b00      	ldr	r3, [sp, #0]
  401b98:	6819      	ldr	r1, [r3, #0]
  401b9a:	e6df      	b.n	40195c <_malloc_r+0x2d8>
  401b9c:	2001      	movs	r0, #1
  401b9e:	f04f 0900 	mov.w	r9, #0
  401ba2:	e6bc      	b.n	40191e <_malloc_r+0x29a>
  401ba4:	f5b2 7faa 	cmp.w	r2, #340	; 0x154
  401ba8:	d805      	bhi.n	401bb6 <_malloc_r+0x532>
  401baa:	0bda      	lsrs	r2, r3, #15
  401bac:	f102 0178 	add.w	r1, r2, #120	; 0x78
  401bb0:	00c9      	lsls	r1, r1, #3
  401bb2:	3277      	adds	r2, #119	; 0x77
  401bb4:	e720      	b.n	4019f8 <_malloc_r+0x374>
  401bb6:	f240 5154 	movw	r1, #1364	; 0x554
  401bba:	428a      	cmp	r2, r1
  401bbc:	d805      	bhi.n	401bca <_malloc_r+0x546>
  401bbe:	0c9a      	lsrs	r2, r3, #18
  401bc0:	f102 017d 	add.w	r1, r2, #125	; 0x7d
  401bc4:	00c9      	lsls	r1, r1, #3
  401bc6:	327c      	adds	r2, #124	; 0x7c
  401bc8:	e716      	b.n	4019f8 <_malloc_r+0x374>
  401bca:	f44f 717e 	mov.w	r1, #1016	; 0x3f8
  401bce:	227e      	movs	r2, #126	; 0x7e
  401bd0:	e712      	b.n	4019f8 <_malloc_r+0x374>
  401bd2:	687b      	ldr	r3, [r7, #4]
  401bd4:	e780      	b.n	401ad8 <_malloc_r+0x454>
  401bd6:	08f0      	lsrs	r0, r6, #3
  401bd8:	f106 0308 	add.w	r3, r6, #8
  401bdc:	e600      	b.n	4017e0 <_malloc_r+0x15c>
  401bde:	bf00      	nop
  401be0:	20400c9c 	.word	0x20400c9c

00401be4 <__malloc_lock>:
  401be4:	4801      	ldr	r0, [pc, #4]	; (401bec <__malloc_lock+0x8>)
  401be6:	f000 b97b 	b.w	401ee0 <__retarget_lock_acquire_recursive>
  401bea:	bf00      	nop
  401bec:	20400cf0 	.word	0x20400cf0

00401bf0 <__malloc_unlock>:
  401bf0:	4801      	ldr	r0, [pc, #4]	; (401bf8 <__malloc_unlock+0x8>)
  401bf2:	f000 b977 	b.w	401ee4 <__retarget_lock_release_recursive>
  401bf6:	bf00      	nop
  401bf8:	20400cf0 	.word	0x20400cf0

00401bfc <_sbrk_r>:
  401bfc:	b538      	push	{r3, r4, r5, lr}
  401bfe:	4c07      	ldr	r4, [pc, #28]	; (401c1c <_sbrk_r+0x20>)
  401c00:	2300      	movs	r3, #0
  401c02:	4605      	mov	r5, r0
  401c04:	4608      	mov	r0, r1
  401c06:	6023      	str	r3, [r4, #0]
  401c08:	f7ff fc7a 	bl	401500 <_sbrk>
  401c0c:	1c43      	adds	r3, r0, #1
  401c0e:	d000      	beq.n	401c12 <_sbrk_r+0x16>
  401c10:	bd38      	pop	{r3, r4, r5, pc}
  401c12:	6823      	ldr	r3, [r4, #0]
  401c14:	2b00      	cmp	r3, #0
  401c16:	d0fb      	beq.n	401c10 <_sbrk_r+0x14>
  401c18:	602b      	str	r3, [r5, #0]
  401c1a:	bd38      	pop	{r3, r4, r5, pc}
  401c1c:	20400d04 	.word	0x20400d04

00401c20 <register_fini>:
  401c20:	4b02      	ldr	r3, [pc, #8]	; (401c2c <register_fini+0xc>)
  401c22:	b113      	cbz	r3, 401c2a <register_fini+0xa>
  401c24:	4802      	ldr	r0, [pc, #8]	; (401c30 <register_fini+0x10>)
  401c26:	f000 b805 	b.w	401c34 <atexit>
  401c2a:	4770      	bx	lr
  401c2c:	00000000 	.word	0x00000000
  401c30:	00401c41 	.word	0x00401c41

00401c34 <atexit>:
  401c34:	2300      	movs	r3, #0
  401c36:	4601      	mov	r1, r0
  401c38:	461a      	mov	r2, r3
  401c3a:	4618      	mov	r0, r3
  401c3c:	f000 b954 	b.w	401ee8 <__register_exitproc>

00401c40 <__libc_fini_array>:
  401c40:	b538      	push	{r3, r4, r5, lr}
  401c42:	4c0a      	ldr	r4, [pc, #40]	; (401c6c <__libc_fini_array+0x2c>)
  401c44:	4d0a      	ldr	r5, [pc, #40]	; (401c70 <__libc_fini_array+0x30>)
  401c46:	1b64      	subs	r4, r4, r5
  401c48:	10a4      	asrs	r4, r4, #2
  401c4a:	d00a      	beq.n	401c62 <__libc_fini_array+0x22>
  401c4c:	f104 4380 	add.w	r3, r4, #1073741824	; 0x40000000
  401c50:	3b01      	subs	r3, #1
  401c52:	eb05 0583 	add.w	r5, r5, r3, lsl #2
  401c56:	3c01      	subs	r4, #1
  401c58:	f855 3904 	ldr.w	r3, [r5], #-4
  401c5c:	4798      	blx	r3
  401c5e:	2c00      	cmp	r4, #0
  401c60:	d1f9      	bne.n	401c56 <__libc_fini_array+0x16>
  401c62:	e8bd 4038 	ldmia.w	sp!, {r3, r4, r5, lr}
  401c66:	f023 be71 	b.w	42594c <_fini>
  401c6a:	bf00      	nop
  401c6c:	0042595c 	.word	0x0042595c
  401c70:	00425958 	.word	0x00425958

00401c74 <_malloc_trim_r>:
  401c74:	b5f8      	push	{r3, r4, r5, r6, r7, lr}
  401c76:	4f24      	ldr	r7, [pc, #144]	; (401d08 <_malloc_trim_r+0x94>)
  401c78:	460c      	mov	r4, r1
  401c7a:	4606      	mov	r6, r0
  401c7c:	f7ff ffb2 	bl	401be4 <__malloc_lock>
  401c80:	68bb      	ldr	r3, [r7, #8]
  401c82:	685d      	ldr	r5, [r3, #4]
  401c84:	f5c4 617e 	rsb	r1, r4, #4064	; 0xfe0
  401c88:	310f      	adds	r1, #15
  401c8a:	f025 0503 	bic.w	r5, r5, #3
  401c8e:	4429      	add	r1, r5
  401c90:	f421 617f 	bic.w	r1, r1, #4080	; 0xff0
  401c94:	f021 010f 	bic.w	r1, r1, #15
  401c98:	f5a1 5480 	sub.w	r4, r1, #4096	; 0x1000
  401c9c:	f5b4 5f80 	cmp.w	r4, #4096	; 0x1000
  401ca0:	db07      	blt.n	401cb2 <_malloc_trim_r+0x3e>
  401ca2:	2100      	movs	r1, #0
  401ca4:	4630      	mov	r0, r6
  401ca6:	f7ff ffa9 	bl	401bfc <_sbrk_r>
  401caa:	68bb      	ldr	r3, [r7, #8]
  401cac:	442b      	add	r3, r5
  401cae:	4298      	cmp	r0, r3
  401cb0:	d004      	beq.n	401cbc <_malloc_trim_r+0x48>
  401cb2:	4630      	mov	r0, r6
  401cb4:	f7ff ff9c 	bl	401bf0 <__malloc_unlock>
  401cb8:	2000      	movs	r0, #0
  401cba:	bdf8      	pop	{r3, r4, r5, r6, r7, pc}
  401cbc:	4261      	negs	r1, r4
  401cbe:	4630      	mov	r0, r6
  401cc0:	f7ff ff9c 	bl	401bfc <_sbrk_r>
  401cc4:	3001      	adds	r0, #1
  401cc6:	d00d      	beq.n	401ce4 <_malloc_trim_r+0x70>
  401cc8:	4b10      	ldr	r3, [pc, #64]	; (401d0c <_malloc_trim_r+0x98>)
  401cca:	68ba      	ldr	r2, [r7, #8]
  401ccc:	6819      	ldr	r1, [r3, #0]
  401cce:	1b2d      	subs	r5, r5, r4
  401cd0:	f045 0501 	orr.w	r5, r5, #1
  401cd4:	4630      	mov	r0, r6
  401cd6:	1b09      	subs	r1, r1, r4
  401cd8:	6055      	str	r5, [r2, #4]
  401cda:	6019      	str	r1, [r3, #0]
  401cdc:	f7ff ff88 	bl	401bf0 <__malloc_unlock>
  401ce0:	2001      	movs	r0, #1
  401ce2:	bdf8      	pop	{r3, r4, r5, r6, r7, pc}
  401ce4:	2100      	movs	r1, #0
  401ce6:	4630      	mov	r0, r6
  401ce8:	f7ff ff88 	bl	401bfc <_sbrk_r>
  401cec:	68ba      	ldr	r2, [r7, #8]
  401cee:	1a83      	subs	r3, r0, r2
  401cf0:	2b0f      	cmp	r3, #15
  401cf2:	ddde      	ble.n	401cb2 <_malloc_trim_r+0x3e>
  401cf4:	4c06      	ldr	r4, [pc, #24]	; (401d10 <_malloc_trim_r+0x9c>)
  401cf6:	4905      	ldr	r1, [pc, #20]	; (401d0c <_malloc_trim_r+0x98>)
  401cf8:	6824      	ldr	r4, [r4, #0]
  401cfa:	f043 0301 	orr.w	r3, r3, #1
  401cfe:	1b00      	subs	r0, r0, r4
  401d00:	6053      	str	r3, [r2, #4]
  401d02:	6008      	str	r0, [r1, #0]
  401d04:	e7d5      	b.n	401cb2 <_malloc_trim_r+0x3e>
  401d06:	bf00      	nop
  401d08:	20400438 	.word	0x20400438
  401d0c:	20400c9c 	.word	0x20400c9c
  401d10:	20400840 	.word	0x20400840

00401d14 <_free_r>:
  401d14:	2900      	cmp	r1, #0
  401d16:	d044      	beq.n	401da2 <_free_r+0x8e>
  401d18:	e92d 41f0 	stmdb	sp!, {r4, r5, r6, r7, r8, lr}
  401d1c:	460d      	mov	r5, r1
  401d1e:	4680      	mov	r8, r0
  401d20:	f7ff ff60 	bl	401be4 <__malloc_lock>
  401d24:	f855 7c04 	ldr.w	r7, [r5, #-4]
  401d28:	4969      	ldr	r1, [pc, #420]	; (401ed0 <_free_r+0x1bc>)
  401d2a:	f027 0301 	bic.w	r3, r7, #1
  401d2e:	f1a5 0408 	sub.w	r4, r5, #8
  401d32:	18e2      	adds	r2, r4, r3
  401d34:	688e      	ldr	r6, [r1, #8]
  401d36:	6850      	ldr	r0, [r2, #4]
  401d38:	42b2      	cmp	r2, r6
  401d3a:	f020 0003 	bic.w	r0, r0, #3
  401d3e:	d05e      	beq.n	401dfe <_free_r+0xea>
  401d40:	07fe      	lsls	r6, r7, #31
  401d42:	6050      	str	r0, [r2, #4]
  401d44:	d40b      	bmi.n	401d5e <_free_r+0x4a>
  401d46:	f855 7c08 	ldr.w	r7, [r5, #-8]
  401d4a:	1be4      	subs	r4, r4, r7
  401d4c:	f101 0e08 	add.w	lr, r1, #8
  401d50:	68a5      	ldr	r5, [r4, #8]
  401d52:	4575      	cmp	r5, lr
  401d54:	443b      	add	r3, r7
  401d56:	d06d      	beq.n	401e34 <_free_r+0x120>
  401d58:	68e7      	ldr	r7, [r4, #12]
  401d5a:	60ef      	str	r7, [r5, #12]
  401d5c:	60bd      	str	r5, [r7, #8]
  401d5e:	1815      	adds	r5, r2, r0
  401d60:	686d      	ldr	r5, [r5, #4]
  401d62:	07ed      	lsls	r5, r5, #31
  401d64:	d53e      	bpl.n	401de4 <_free_r+0xd0>
  401d66:	f043 0201 	orr.w	r2, r3, #1
  401d6a:	6062      	str	r2, [r4, #4]
  401d6c:	50e3      	str	r3, [r4, r3]
  401d6e:	f5b3 7f00 	cmp.w	r3, #512	; 0x200
  401d72:	d217      	bcs.n	401da4 <_free_r+0x90>
  401d74:	08db      	lsrs	r3, r3, #3
  401d76:	1c58      	adds	r0, r3, #1
  401d78:	109a      	asrs	r2, r3, #2
  401d7a:	684d      	ldr	r5, [r1, #4]
  401d7c:	f851 7030 	ldr.w	r7, [r1, r0, lsl #3]
  401d80:	60a7      	str	r7, [r4, #8]
  401d82:	2301      	movs	r3, #1
  401d84:	4093      	lsls	r3, r2
  401d86:	eb01 02c0 	add.w	r2, r1, r0, lsl #3
  401d8a:	432b      	orrs	r3, r5
  401d8c:	3a08      	subs	r2, #8
  401d8e:	60e2      	str	r2, [r4, #12]
  401d90:	604b      	str	r3, [r1, #4]
  401d92:	f841 4030 	str.w	r4, [r1, r0, lsl #3]
  401d96:	60fc      	str	r4, [r7, #12]
  401d98:	4640      	mov	r0, r8
  401d9a:	e8bd 41f0 	ldmia.w	sp!, {r4, r5, r6, r7, r8, lr}
  401d9e:	f7ff bf27 	b.w	401bf0 <__malloc_unlock>
  401da2:	4770      	bx	lr
  401da4:	0a5a      	lsrs	r2, r3, #9
  401da6:	2a04      	cmp	r2, #4
  401da8:	d852      	bhi.n	401e50 <_free_r+0x13c>
  401daa:	099a      	lsrs	r2, r3, #6
  401dac:	f102 0739 	add.w	r7, r2, #57	; 0x39
  401db0:	00ff      	lsls	r7, r7, #3
  401db2:	f102 0538 	add.w	r5, r2, #56	; 0x38
  401db6:	19c8      	adds	r0, r1, r7
  401db8:	59ca      	ldr	r2, [r1, r7]
  401dba:	3808      	subs	r0, #8
  401dbc:	4290      	cmp	r0, r2
  401dbe:	d04f      	beq.n	401e60 <_free_r+0x14c>
  401dc0:	6851      	ldr	r1, [r2, #4]
  401dc2:	f021 0103 	bic.w	r1, r1, #3
  401dc6:	428b      	cmp	r3, r1
  401dc8:	d232      	bcs.n	401e30 <_free_r+0x11c>
  401dca:	6892      	ldr	r2, [r2, #8]
  401dcc:	4290      	cmp	r0, r2
  401dce:	d1f7      	bne.n	401dc0 <_free_r+0xac>
  401dd0:	68c3      	ldr	r3, [r0, #12]
  401dd2:	60a0      	str	r0, [r4, #8]
  401dd4:	60e3      	str	r3, [r4, #12]
  401dd6:	609c      	str	r4, [r3, #8]
  401dd8:	60c4      	str	r4, [r0, #12]
  401dda:	4640      	mov	r0, r8
  401ddc:	e8bd 41f0 	ldmia.w	sp!, {r4, r5, r6, r7, r8, lr}
  401de0:	f7ff bf06 	b.w	401bf0 <__malloc_unlock>
  401de4:	6895      	ldr	r5, [r2, #8]
  401de6:	4f3b      	ldr	r7, [pc, #236]	; (401ed4 <_free_r+0x1c0>)
  401de8:	42bd      	cmp	r5, r7
  401dea:	4403      	add	r3, r0
  401dec:	d040      	beq.n	401e70 <_free_r+0x15c>
  401dee:	68d0      	ldr	r0, [r2, #12]
  401df0:	60e8      	str	r0, [r5, #12]
  401df2:	f043 0201 	orr.w	r2, r3, #1
  401df6:	6085      	str	r5, [r0, #8]
  401df8:	6062      	str	r2, [r4, #4]
  401dfa:	50e3      	str	r3, [r4, r3]
  401dfc:	e7b7      	b.n	401d6e <_free_r+0x5a>
  401dfe:	07ff      	lsls	r7, r7, #31
  401e00:	4403      	add	r3, r0
  401e02:	d407      	bmi.n	401e14 <_free_r+0x100>
  401e04:	f855 2c08 	ldr.w	r2, [r5, #-8]
  401e08:	1aa4      	subs	r4, r4, r2
  401e0a:	4413      	add	r3, r2
  401e0c:	68a0      	ldr	r0, [r4, #8]
  401e0e:	68e2      	ldr	r2, [r4, #12]
  401e10:	60c2      	str	r2, [r0, #12]
  401e12:	6090      	str	r0, [r2, #8]
  401e14:	4a30      	ldr	r2, [pc, #192]	; (401ed8 <_free_r+0x1c4>)
  401e16:	6812      	ldr	r2, [r2, #0]
  401e18:	f043 0001 	orr.w	r0, r3, #1
  401e1c:	4293      	cmp	r3, r2
  401e1e:	6060      	str	r0, [r4, #4]
  401e20:	608c      	str	r4, [r1, #8]
  401e22:	d3b9      	bcc.n	401d98 <_free_r+0x84>
  401e24:	4b2d      	ldr	r3, [pc, #180]	; (401edc <_free_r+0x1c8>)
  401e26:	4640      	mov	r0, r8
  401e28:	6819      	ldr	r1, [r3, #0]
  401e2a:	f7ff ff23 	bl	401c74 <_malloc_trim_r>
  401e2e:	e7b3      	b.n	401d98 <_free_r+0x84>
  401e30:	4610      	mov	r0, r2
  401e32:	e7cd      	b.n	401dd0 <_free_r+0xbc>
  401e34:	1811      	adds	r1, r2, r0
  401e36:	6849      	ldr	r1, [r1, #4]
  401e38:	07c9      	lsls	r1, r1, #31
  401e3a:	d444      	bmi.n	401ec6 <_free_r+0x1b2>
  401e3c:	6891      	ldr	r1, [r2, #8]
  401e3e:	68d2      	ldr	r2, [r2, #12]
  401e40:	60ca      	str	r2, [r1, #12]
  401e42:	4403      	add	r3, r0
  401e44:	f043 0001 	orr.w	r0, r3, #1
  401e48:	6091      	str	r1, [r2, #8]
  401e4a:	6060      	str	r0, [r4, #4]
  401e4c:	50e3      	str	r3, [r4, r3]
  401e4e:	e7a3      	b.n	401d98 <_free_r+0x84>
  401e50:	2a14      	cmp	r2, #20
  401e52:	d816      	bhi.n	401e82 <_free_r+0x16e>
  401e54:	f102 075c 	add.w	r7, r2, #92	; 0x5c
  401e58:	00ff      	lsls	r7, r7, #3
  401e5a:	f102 055b 	add.w	r5, r2, #91	; 0x5b
  401e5e:	e7aa      	b.n	401db6 <_free_r+0xa2>
  401e60:	10aa      	asrs	r2, r5, #2
  401e62:	2301      	movs	r3, #1
  401e64:	684d      	ldr	r5, [r1, #4]
  401e66:	4093      	lsls	r3, r2
  401e68:	432b      	orrs	r3, r5
  401e6a:	604b      	str	r3, [r1, #4]
  401e6c:	4603      	mov	r3, r0
  401e6e:	e7b0      	b.n	401dd2 <_free_r+0xbe>
  401e70:	f043 0201 	orr.w	r2, r3, #1
  401e74:	614c      	str	r4, [r1, #20]
  401e76:	610c      	str	r4, [r1, #16]
  401e78:	60e5      	str	r5, [r4, #12]
  401e7a:	60a5      	str	r5, [r4, #8]
  401e7c:	6062      	str	r2, [r4, #4]
  401e7e:	50e3      	str	r3, [r4, r3]
  401e80:	e78a      	b.n	401d98 <_free_r+0x84>
  401e82:	2a54      	cmp	r2, #84	; 0x54
  401e84:	d806      	bhi.n	401e94 <_free_r+0x180>
  401e86:	0b1a      	lsrs	r2, r3, #12
  401e88:	f102 076f 	add.w	r7, r2, #111	; 0x6f
  401e8c:	00ff      	lsls	r7, r7, #3
  401e8e:	f102 056e 	add.w	r5, r2, #110	; 0x6e
  401e92:	e790      	b.n	401db6 <_free_r+0xa2>
  401e94:	f5b2 7faa 	cmp.w	r2, #340	; 0x154
  401e98:	d806      	bhi.n	401ea8 <_free_r+0x194>
  401e9a:	0bda      	lsrs	r2, r3, #15
  401e9c:	f102 0778 	add.w	r7, r2, #120	; 0x78
  401ea0:	00ff      	lsls	r7, r7, #3
  401ea2:	f102 0577 	add.w	r5, r2, #119	; 0x77
  401ea6:	e786      	b.n	401db6 <_free_r+0xa2>
  401ea8:	f240 5054 	movw	r0, #1364	; 0x554
  401eac:	4282      	cmp	r2, r0
  401eae:	d806      	bhi.n	401ebe <_free_r+0x1aa>
  401eb0:	0c9a      	lsrs	r2, r3, #18
  401eb2:	f102 077d 	add.w	r7, r2, #125	; 0x7d
  401eb6:	00ff      	lsls	r7, r7, #3
  401eb8:	f102 057c 	add.w	r5, r2, #124	; 0x7c
  401ebc:	e77b      	b.n	401db6 <_free_r+0xa2>
  401ebe:	f44f 777e 	mov.w	r7, #1016	; 0x3f8
  401ec2:	257e      	movs	r5, #126	; 0x7e
  401ec4:	e777      	b.n	401db6 <_free_r+0xa2>
  401ec6:	f043 0101 	orr.w	r1, r3, #1
  401eca:	6061      	str	r1, [r4, #4]
  401ecc:	6013      	str	r3, [r2, #0]
  401ece:	e763      	b.n	401d98 <_free_r+0x84>
  401ed0:	20400438 	.word	0x20400438
  401ed4:	20400440 	.word	0x20400440
  401ed8:	20400844 	.word	0x20400844
  401edc:	20400ccc 	.word	0x20400ccc

00401ee0 <__retarget_lock_acquire_recursive>:
  401ee0:	4770      	bx	lr
  401ee2:	bf00      	nop

00401ee4 <__retarget_lock_release_recursive>:
  401ee4:	4770      	bx	lr
  401ee6:	bf00      	nop

00401ee8 <__register_exitproc>:
  401ee8:	e92d 43f8 	stmdb	sp!, {r3, r4, r5, r6, r7, r8, r9, lr}
  401eec:	4d2c      	ldr	r5, [pc, #176]	; (401fa0 <__register_exitproc+0xb8>)
  401eee:	4606      	mov	r6, r0
  401ef0:	6828      	ldr	r0, [r5, #0]
  401ef2:	4698      	mov	r8, r3
  401ef4:	460f      	mov	r7, r1
  401ef6:	4691      	mov	r9, r2
  401ef8:	f7ff fff2 	bl	401ee0 <__retarget_lock_acquire_recursive>
  401efc:	4b29      	ldr	r3, [pc, #164]	; (401fa4 <__register_exitproc+0xbc>)
  401efe:	681c      	ldr	r4, [r3, #0]
  401f00:	f8d4 3148 	ldr.w	r3, [r4, #328]	; 0x148
  401f04:	2b00      	cmp	r3, #0
  401f06:	d03e      	beq.n	401f86 <__register_exitproc+0x9e>
  401f08:	685a      	ldr	r2, [r3, #4]
  401f0a:	2a1f      	cmp	r2, #31
  401f0c:	dc1c      	bgt.n	401f48 <__register_exitproc+0x60>
  401f0e:	f102 0e01 	add.w	lr, r2, #1
  401f12:	b176      	cbz	r6, 401f32 <__register_exitproc+0x4a>
  401f14:	eb03 0182 	add.w	r1, r3, r2, lsl #2
  401f18:	2401      	movs	r4, #1
  401f1a:	f8c1 9088 	str.w	r9, [r1, #136]	; 0x88
  401f1e:	f8d3 0188 	ldr.w	r0, [r3, #392]	; 0x188
  401f22:	4094      	lsls	r4, r2
  401f24:	4320      	orrs	r0, r4
  401f26:	2e02      	cmp	r6, #2
  401f28:	f8c3 0188 	str.w	r0, [r3, #392]	; 0x188
  401f2c:	f8c1 8108 	str.w	r8, [r1, #264]	; 0x108
  401f30:	d023      	beq.n	401f7a <__register_exitproc+0x92>
  401f32:	3202      	adds	r2, #2
  401f34:	f8c3 e004 	str.w	lr, [r3, #4]
  401f38:	6828      	ldr	r0, [r5, #0]
  401f3a:	f843 7022 	str.w	r7, [r3, r2, lsl #2]
  401f3e:	f7ff ffd1 	bl	401ee4 <__retarget_lock_release_recursive>
  401f42:	2000      	movs	r0, #0
  401f44:	e8bd 83f8 	ldmia.w	sp!, {r3, r4, r5, r6, r7, r8, r9, pc}
  401f48:	4b17      	ldr	r3, [pc, #92]	; (401fa8 <__register_exitproc+0xc0>)
  401f4a:	b30b      	cbz	r3, 401f90 <__register_exitproc+0xa8>
  401f4c:	f44f 70c8 	mov.w	r0, #400	; 0x190
  401f50:	f7ff fb90 	bl	401674 <malloc>
  401f54:	4603      	mov	r3, r0
  401f56:	b1d8      	cbz	r0, 401f90 <__register_exitproc+0xa8>
  401f58:	f8d4 2148 	ldr.w	r2, [r4, #328]	; 0x148
  401f5c:	6002      	str	r2, [r0, #0]
  401f5e:	2100      	movs	r1, #0
  401f60:	6041      	str	r1, [r0, #4]
  401f62:	460a      	mov	r2, r1
  401f64:	f8c4 0148 	str.w	r0, [r4, #328]	; 0x148
  401f68:	f04f 0e01 	mov.w	lr, #1
  401f6c:	f8c0 1188 	str.w	r1, [r0, #392]	; 0x188
  401f70:	f8c0 118c 	str.w	r1, [r0, #396]	; 0x18c
  401f74:	2e00      	cmp	r6, #0
  401f76:	d0dc      	beq.n	401f32 <__register_exitproc+0x4a>
  401f78:	e7cc      	b.n	401f14 <__register_exitproc+0x2c>
  401f7a:	f8d3 118c 	ldr.w	r1, [r3, #396]	; 0x18c
  401f7e:	430c      	orrs	r4, r1
  401f80:	f8c3 418c 	str.w	r4, [r3, #396]	; 0x18c
  401f84:	e7d5      	b.n	401f32 <__register_exitproc+0x4a>
  401f86:	f504 73a6 	add.w	r3, r4, #332	; 0x14c
  401f8a:	f8c4 3148 	str.w	r3, [r4, #328]	; 0x148
  401f8e:	e7bb      	b.n	401f08 <__register_exitproc+0x20>
  401f90:	6828      	ldr	r0, [r5, #0]
  401f92:	f7ff ffa7 	bl	401ee4 <__retarget_lock_release_recursive>
  401f96:	f04f 30ff 	mov.w	r0, #4294967295
  401f9a:	e8bd 83f8 	ldmia.w	sp!, {r3, r4, r5, r6, r7, r8, r9, pc}
  401f9e:	bf00      	nop
  401fa0:	20400848 	.word	0x20400848
  401fa4:	00425934 	.word	0x00425934
  401fa8:	00401675 	.word	0x00401675

00401fac <image_data_centrifuge>:
  401fac:	ffffffff ffffffff ffffffff ffffffff     ................
  401fbc:	ffffffff ffffffff ffffffff ffffffff     ................
  401fcc:	ffffffff ffffffff ffffffff ffffffff     ................
  401fdc:	ffffffff ffffffff ffffffff ffffffff     ................
  401fec:	ffffffff ffffffff ffffffff ffffffff     ................
  401ffc:	ffffffff ffffffff ffffffff ffffffff     ................
  40200c:	ffffffff ffffffff ffffffff ffffffff     ................
  40201c:	ffffffff ffffffff ffffffff ffffffff     ................
  40202c:	ffffffff ffffffff ffffffff ffffffff     ................
  40203c:	ffffffff ffffffff ffffffff ffffffff     ................
  40204c:	ffffffff ffffffff ffffffff ffffffff     ................
  40205c:	ffffffff ffffffff ffffffff ffffffff     ................
  40206c:	ffffffff ffffffff ffffffff ffffffff     ................
  40207c:	ffffffff ffffffff ffffffff ffffffff     ................
  40208c:	ffffffff ffffffff ffffffff ffffffff     ................
  40209c:	ffffffff ffffffff ffffffff ffffffff     ................
  4020ac:	ffffffff ffffffff ffffffff ffffffff     ................
  4020bc:	ffffffff ffffffff ffffffff ffffffff     ................
  4020cc:	ffffffff ffffffff ffffffff ffffffff     ................
  4020dc:	ffffffff ffffffff ffffffff ffffffff     ................
  4020ec:	ffffffff ffffffff ffffffff ffffffff     ................
  4020fc:	ffffffff ffffffff ffffffff ffffffff     ................
  40210c:	ffffffff ffffffff ffffffff ffffffff     ................
  40211c:	ffffffff ffffffff ffffffff 000000ff     ................
	...
  402154:	ffff0000 ffffffff ffffffff ffffffff     ................
  402164:	ffffffff ffffffff ffffffff ffffffff     ................
  402174:	ffffffff ffffffff ffffffff ffffffff     ................
  402184:	ffffffff ffffffff ffffffff ffffffff     ................
  402194:	ffffffff ffffffff ffffffff ffffffff     ................
  4021a4:	ffffffff ffffffff ffffffff ffffffff     ................
  4021b4:	ffffffff ffffffff ffffffff ffffffff     ................
  4021c4:	ffffffff ffffffff ffffffff ffffffff     ................
  4021d4:	ffffffff ffffffff ffffffff ffffffff     ................
  4021e4:	ffffffff ffffffff ffffffff ffffffff     ................
  4021f4:	ffffffff ffffffff ffffffff ffffffff     ................
  402204:	ffffffff ffffffff ffffffff ffffffff     ................
  402214:	ffffffff ffffffff ffffffff ffffffff     ................
  402224:	ffffffff ffffffff ffffffff ffffffff     ................
  402234:	00ffffff 00000000 00000000 00000000     ................
	...
  402264:	ffffffff ffffffff ffffffff ffffffff     ................
  402274:	ffffffff ffffffff ffffffff ffffffff     ................
  402284:	ffffffff ffffffff ffffffff ffffffff     ................
  402294:	ffffffff ffffffff ffffffff ffffffff     ................
  4022a4:	ffffffff ffffffff ffffffff ffffffff     ................
  4022b4:	ffffffff ffffffff ffffffff ffffffff     ................
  4022c4:	ffffffff ffffffff ffffffff ffffffff     ................
  4022d4:	ffffffff ffffffff ffffffff ffffffff     ................
  4022e4:	ffffffff ffffffff ffffffff ffffffff     ................
  4022f4:	ffffffff ffffffff ffffffff ffffffff     ................
  402304:	ffffffff ffffffff ffffffff ffffffff     ................
  402314:	ffffffff ffffffff ffffffff ffffffff     ................
  402324:	ffffffff ffffffff ffffffff 00ffffff     ................
	...
  402384:	ffffffff ffffffff ffffffff ffffffff     ................
  402394:	ffffffff ffffffff ffffffff ffffffff     ................
  4023a4:	ffffffff ffffffff ffffffff ffffffff     ................
  4023b4:	ffffffff ffffffff ffffffff ffffffff     ................
  4023c4:	ffffffff ffffffff ffffffff ffffffff     ................
  4023d4:	ffffffff ffffffff ffffffff ffffffff     ................
  4023e4:	ffffffff ffffffff ffffffff ffffffff     ................
  4023f4:	ffffffff ffffffff ffffffff ffffffff     ................
  402404:	ffffffff ffffffff ffffffff ffffffff     ................
  402414:	ffffffff ffffffff ffffffff ffffffff     ................
  402424:	ffffffff ffffffff ffffffff ffffffff     ................
  402434:	ffffffff 00000000 00000000 00000000     ................
	...
  4024a0:	ffffff00 ffffffff ffffffff ffffffff     ................
  4024b0:	ffffffff ffffffff ffffffff ffffffff     ................
  4024c0:	ffffffff ffffffff ffffffff ffffffff     ................
  4024d0:	ffffffff ffffffff ffffffff ffffffff     ................
  4024e0:	ffffffff ffffffff ffffffff ffffffff     ................
  4024f0:	ffffffff ffffffff ffffffff ffffffff     ................
  402500:	ffffffff ffffffff ffffffff ffffffff     ................
  402510:	ffffffff ffffffff ffffffff ffffffff     ................
  402520:	ffffffff ffffffff ffffffff ffffffff     ................
  402530:	ffffffff ffffffff ffffffff ffffffff     ................
  402540:	ffffffff 0000ffff 00000000 00000000     ................
	...
  4025ac:	ff000000 ffffffff ffffffff ffffffff     ................
  4025bc:	ffffffff ffffffff ffffffff ffffffff     ................
  4025cc:	ffffffff ffffffff ffffffff ffffffff     ................
  4025dc:	ffffffff ffffffff ffffffff ffffffff     ................
  4025ec:	ffffffff ffffffff ffffffff ffffffff     ................
  4025fc:	ffffffff ffffffff ffffffff ffffffff     ................
  40260c:	ffffffff ffffffff ffffffff ffffffff     ................
  40261c:	ffffffff ffffffff ffffffff ffffffff     ................
  40262c:	ffffffff ffffffff ffffffff ffffffff     ................
  40263c:	ffffffff ffffffff ffffffff 00ffffff     ................
	...
  4026c4:	ffff0000 ffffffff ffffffff ffffffff     ................
  4026d4:	ffffffff ffffffff ffffffff ffffffff     ................
  4026e4:	ffffffff ffffffff ffffffff ffffffff     ................
  4026f4:	ffffffff ffffffff ffffffff ffffffff     ................
  402704:	ffffffff ffffffff ffffffff ffffffff     ................
  402714:	ffffffff ffffffff ffffffff ffffffff     ................
  402724:	ffffffff ffffffff ffffffff ffffffff     ................
  402734:	ffffffff ffffffff ffffffff ffffffff     ................
  402744:	ffffffff ffffffff ffffffff 00000000     ................
	...
  4027dc:	ffffff00 ffffffff ffffffff ffffffff     ................
  4027ec:	ffffffff ffffffff ffffffff ffffffff     ................
  4027fc:	ffffffff ffffffff ffffffff ffffffff     ................
  40280c:	ffffffff ffffffff ffffffff ffffffff     ................
  40281c:	ffffffff ffffffff ffffffff ffffffff     ................
  40282c:	ffffffff ffffffff ffffffff ffffffff     ................
  40283c:	ffffffff ffffffff ffffffff ffffffff     ................
  40284c:	ffffffff ffffffff ffffffff ffffffff     ................
  40285c:	0000ffff 00000000 00000000 00000000     ................
	...
  4028e8:	ff000000 ffffffff ffffffff ffffffff     ................
  4028f8:	ffffffff ffffffff ffffffff ffffffff     ................
  402908:	ffffffff ffffffff ffffffff ffffffff     ................
  402918:	ffffffff ffffffff ffffffff ffffffff     ................
  402928:	ffffffff ffffffff ffffffff ffffffff     ................
  402938:	ffffffff ffffffff ffffffff ffffffff     ................
  402948:	ffffffff ffffffff ffffffff ffffffff     ................
  402958:	ffffffff ffffffff 00ffffff 00000000     ................
	...
  4029fc:	ffffffff ffffffff ffffffff ffffffff     ................
  402a0c:	ffffffff ffffffff ffffffff ffffffff     ................
  402a1c:	ffffffff ffffffff ffffffff ffffffff     ................
  402a2c:	ffffffff ffffffff ffffffff ffffffff     ................
  402a3c:	ffffffff ffffffff ffffffff ffffffff     ................
  402a4c:	ffffffff ffffffff ffffffff ffffffff     ................
  402a5c:	ffffffff ffffffff ffffffff ffffffff     ................
  402a6c:	0000ffff 00000000 00000000 00000000     ................
	...
  402b10:	ffffffff ffffffff ffffffff ffffffff     ................
  402b20:	ffffffff ffffffff ffffffff ffffffff     ................
  402b30:	ffffffff ffffffff ffffffff ffffffff     ................
  402b40:	ffffffff ffffffff ffffffff ffffffff     ................
  402b50:	ffffffff ffffffff ffffffff ffffffff     ................
  402b60:	ffffffff ffffffff ffffffff ffffffff     ................
  402b70:	ffffffff ffffffff ffffffff 00000000     ................
	...
  402c1c:	ffff0000 ffffffff ffffffff ffffffff     ................
  402c2c:	ffffffff ffffffff ffffffff ffffffff     ................
  402c3c:	ffffffff ffffffff ffffffff ffffffff     ................
  402c4c:	ffffffff ffffffff ffffffff ffffffff     ................
  402c5c:	ffffffff ffffffff ffffffff ffffffff     ................
  402c6c:	ffffffff ffffffff ffffffff ffffffff     ................
  402c7c:	ffffffff ffffffff 00000000 00000000     ................
	...
  402cd4:	ffffff00 ffffffff ffffffff ffffffff     ................
	...
  402d34:	ffffff00 ffffffff ffffffff ffffffff     ................
  402d44:	ffffffff ffffffff ffffffff ffffffff     ................
  402d54:	ffffffff ffffffff ffffffff ffffffff     ................
  402d64:	ffffffff ffffffff ffffffff ffffffff     ................
  402d74:	ffffffff ffffffff ffffffff ffffffff     ................
  402d84:	ffffffff ffffffff 00ffffff 00000000     ................
	...
  402dd4:	ff000000 ffffffff ffffffff ffffffff     ................
  402de4:	ffffffff ffffffff ffffffff ffffffff     ................
  402df4:	ffffffff ffffffff ffffffff ffffffff     ................
  402e04:	00ffffff 00000000 00000000 00000000     ................
	...
  402e44:	ffff0000 ffffffff ffffffff ffffffff     ................
  402e54:	ffffffff ffffffff ffffffff ffffffff     ................
  402e64:	ffffffff ffffffff ffffffff ffffffff     ................
  402e74:	ffffffff ffffffff ffffffff ffffffff     ................
  402e84:	ffffffff ffffffff ffffffff ffffffff     ................
  402e94:	ffffffff ffffffff 000000ff 00000000     ................
	...
  402ee4:	ffffff00 ffffffff ffffffff ffffffff     ................
  402ef4:	ffffffff ffffffff ffffffff ffffffff     ................
  402f04:	ffffffff ffffffff ffffffff ffffffff     ................
  402f14:	000000ff 00000000 00000000 00000000     ................
	...
  402f54:	ffffffff ffffffff ffffffff ffffffff     ................
  402f64:	ffffffff ffffffff ffffffff ffffffff     ................
  402f74:	ffffffff ffffffff ffffffff ffffffff     ................
  402f84:	ffffffff ffffffff ffffffff ffffffff     ................
  402f94:	ffffffff ffffffff ffffffff ffffffff     ................
  402fa4:	000000ff 00000000 00000000 00000000     ................
	...
  402fec:	ffffff00 ffffffff ffffffff ffffffff     ................
  402ffc:	ffffffff ffffffff ffffffff ffffffff     ................
  40300c:	ffffffff ffffffff ffffffff ffffffff     ................
  40301c:	ffffffff ffffffff ffffffff ffffffff     ................
  40302c:	ffffffff 0000ffff 00000000 00000000     ................
	...
  403068:	ffffffff ffffffff ffffffff ffffffff     ................
  403078:	ffffffff ffffffff ffffffff ffffffff     ................
  403088:	ffffffff ffffffff ffffffff ffffffff     ................
  403098:	ffffffff ffffffff ffffffff ffffffff     ................
  4030a8:	ffffffff ffffffff 00000000 00000000     ................
	...
  4030f8:	ffffffff ffffffff ffffffff ffffffff     ................
  403108:	ffffffff ffffffff ffffffff ffffffff     ................
  403118:	ffffffff ffffffff ffffffff ffffffff     ................
  403128:	ffffffff ffffffff ffffffff ffffffff     ................
  403138:	ffffffff ffffffff 00ffffff 00000000     ................
	...
  403178:	ffffff00 ffffffff ffffffff ffffffff     ................
  403188:	ffffffff ffffffff ffffffff ffffffff     ................
  403198:	ffffffff ffffffff ffffffff ffffffff     ................
  4031a8:	ffffffff ffffffff ffffffff ffffffff     ................
  4031b8:	ffffffff 0000ffff 00000000 00000000     ................
	...
  403204:	ffff0000 ffffffff ffffffff ffffffff     ................
  403214:	ffffffff ffffffff ffffffff ffffffff     ................
  403224:	ffffffff ffffffff ffffffff ffffffff     ................
  403234:	ffffffff ffffffff ffffffff ffffffff     ................
  403244:	ffffffff ffffffff ffffffff 000000ff     ................
	...
  403284:	ff000000 ffffffff ffffffff ffffffff     ................
  403294:	ffffffff ffffffff ffffffff ffffffff     ................
  4032a4:	ffffffff ffffffff ffffffff ffffffff     ................
  4032b4:	ffffffff ffffffff ffffffff ffffffff     ................
  4032c4:	0000ffff 00000000 00000000 00000000     ................
	...
  40330c:	ffff0000 ffffffff ffffffff ffffffff     ................
  40331c:	ffffffff ffffffff ffffffff ffffffff     ................
  40332c:	ffffffff ffffffff ffffffff ffffffff     ................
  40333c:	ffffffff ffffffff ffffffff ffffffff     ................
  40334c:	ffffffff ffffffff ffffffff ffffffff     ................
  40335c:	ffffffff ffffffff ffffffff 00000000     ................
	...
  403394:	ffffff00 ffffffff ffffffff ffffffff     ................
  4033a4:	ffffffff ffffffff ffffffff ffffffff     ................
  4033b4:	ffffffff ffffffff ffffffff ffffffff     ................
  4033c4:	ffffffff ffffffff ffffffff 000000ff     ................
	...
  40341c:	ffffffff ffffffff ffffffff ffffffff     ................
  40342c:	ffffffff ffffffff ffffffff ffffffff     ................
  40343c:	ffffffff ffffffff ffffffff ffffffff     ................
  40344c:	ffffffff ffffffff ffffffff ffffffff     ................
  40345c:	ffffffff ffffffff ffffffff ffffffff     ................
  40346c:	ffffffff ffffffff ffffffff ffffffff     ................
	...
  4034a8:	ffffff00 ffffffff ffffffff ffffffff     ................
  4034b8:	ffffffff ffffffff ffffffff ffffffff     ................
  4034c8:	ffffffff ffffffff ffffffff ffffffff     ................
  4034d8:	ffffffff 00ffffff 00000000 00000000     ................
	...
  403528:	ffff0000 ffffffff ffffffff ffffffff     ................
  403538:	ffffffff ffffffff ffffffff ffffffff     ................
  403548:	ffffffff ffffffff ffffffff ffffffff     ................
  403558:	ffffffff ffffffff ffffffff ffffffff     ................
  403568:	ffffffff ffffffff ffffffff ffffffff     ................
  403578:	ffffffff ffffffff ffffffff ffffffff     ................
  403588:	0000ffff 00000000 00000000 00000000     ................
	...
  4035b4:	ff000000 ffffffff ffffffff ffffffff     ................
  4035c4:	ffffffff ffffffff ffffffff ffffffff     ................
  4035d4:	ffffffff ffffffff ffffffff ffffffff     ................
  4035e4:	ffffffff ffffffff 000000ff 00000000     ................
	...
  403638:	ffffffff ffffffff ffffffff ffffffff     ................
  403648:	ffffffff ffffffff ffffffff ffffffff     ................
  403658:	ffffffff ffffffff ffffffff ffffffff     ................
  403668:	ffffffff ffffffff ffffffff ffffffff     ................
  403678:	ffffffff ffffffff ffffffff ffffffff     ................
  403688:	ffffffff ffffffff ffffffff ffffffff     ................
  403698:	00ffffff 00000000 00000000 00000000     ................
	...
  4036c8:	ffffffff ffffffff ffffffff ffffffff     ................
  4036d8:	ffffffff ffffffff ffffffff ffffffff     ................
  4036e8:	ffffffff ffffffff ffffffff 000000ff     ................
	...
  40371c:	ff000000 0000ffff 00000000 00000000     ................
	...
  403744:	ffff0000 ffffffff ffffffff ffffffff     ................
  403754:	ffffffff ffffffff ffffffff ffffffff     ................
  403764:	ffffffff ffffffff ffffffff ffffffff     ................
  403774:	ffffffff ffffffff ffffffff ffffffff     ................
  403784:	ffffffff ffffffff ffffffff ffffffff     ................
  403794:	ffffffff ffffffff ffffffff ffffffff     ................
  4037a4:	ffffffff ffffffff 00ffffff 00000000     ................
	...
  4037d4:	ffff0000 ffffffff ffffffff ffffffff     ................
  4037e4:	ffffffff ffffffff ffffffff ffffffff     ................
  4037f4:	ffffffff ffffffff ffffffff 00ffffff     ................
	...
  40382c:	ffffff00 00000000 00000000 00000000     ................
	...
  403854:	ffffffff ffffffff ffffffff ffffffff     ................
  403864:	ffffffff ffffffff ffffffff ffffffff     ................
  403874:	ffffffff ffffffff ffffffff ffffffff     ................
  403884:	ffffffff ffffffff ffffffff ffffffff     ................
  403894:	ffffffff ffffffff ffffffff ffffffff     ................
  4038a4:	ffffffff ffffffff ffffffff ffffffff     ................
  4038b4:	ffffffff ffffffff 000000ff 00000000     ................
	...
  4038e4:	ffffffff ffffffff ffffffff ffffffff     ................
  4038f4:	ffffffff ffffffff ffffffff ffffffff     ................
  403904:	ffffffff ffffffff 0000ffff 00000000     ................
	...
  403934:	ffffff00 ffffffff 0000ffff 00000000     ................
	...
  403960:	ffff0000 ffffffff ffffffff ffffffff     ................
  403970:	ffffffff ffffffff ffffffff ffffffff     ................
  403980:	ffffffff ffffffff ffffffff ffffffff     ................
  403990:	ffffffff ffffffff ffffffff ffffffff     ................
  4039a0:	ffffffff ffffffff ffffffff ffffffff     ................
  4039b0:	ffffffff ffffffff ffffffff ffffffff     ................
  4039c0:	ffffffff ffffffff ffffffff 0000ffff     ................
	...
  4039f8:	ffffffff ffffffff ffffffff ffffffff     ................
  403a08:	ffffffff ffffffff ffffffff ffffffff     ................
  403a18:	ffffffff 00000000 00000000 00000000     ................
	...
  403a40:	ffffffff ffffffff ffffffff 00000000     ................
	...
  403a70:	ffffffff ffffffff ffffffff ffffffff     ................
  403a80:	ffffffff ffffffff ffffffff ffffffff     ................
  403a90:	ffffffff ffffffff ffffffff ffffffff     ................
  403aa0:	ffffffff ffffffff ffffffff ffffffff     ................
  403ab0:	ffffffff ffffffff ffffffff ffffffff     ................
  403ac0:	ffffffff ffffffff ffffffff ffffffff     ................
  403ad0:	ffffffff ffffffff ffffffff ffffffff     ................
  403ae0:	0000ffff 00000000 00000000 00000000     ................
	...
  403b04:	ffff0000 ffffffff ffffffff ffffffff     ................
  403b14:	ffffffff ffffffff ffffffff ffffffff     ................
  403b24:	ffffffff 0000ffff 00000000 00000000     ................
	...
  403b4c:	ffff0000 ffffffff ffffffff 0000ffff     ................
	...
  403b7c:	ffff0000 ffffffff ffffffff ffffffff     ................
  403b8c:	ffffffff ffffffff ffffffff ffffffff     ................
  403b9c:	ffffffff ffffffff ffffffff ffffffff     ................
  403bac:	ffffffff ffffffff ffffffff ffffffff     ................
  403bbc:	ffffffff ffffffff ffffffff ffffffff     ................
  403bcc:	ffffffff ffffffff ffffffff ffffffff     ................
  403bdc:	ffffffff ffffffff ffffffff ffffffff     ................
  403bec:	ffffffff 00000000 00000000 00000000     ................
	...
  403c14:	ffffffff ffffffff ffffffff ffffffff     ................
  403c24:	ffffffff ffffffff ffffffff ffffffff     ................
  403c34:	ffffffff 00000000 00000000 00000000     ................
	...
  403c5c:	ffffffff ffffffff ffffffff ffffffff     ................
  403c6c:	0000ffff 00000000 00000000 00000000     ................
	...
  403c8c:	ffffffff ffffffff ffffffff ffffffff     ................
  403c9c:	ffffffff ffffffff ffffffff ffffffff     ................
  403cac:	ffffffff ffffffff ffffffff ffffffff     ................
  403cbc:	ffffffff ffffffff ffffffff ffffffff     ................
  403ccc:	ffffffff ffffffff ffffffff ffffffff     ................
  403cdc:	ffffffff ffffffff ffffffff ffffffff     ................
  403cec:	ffffffff ffffffff ffffffff ffffffff     ................
  403cfc:	ffffffff 000000ff 00000000 00000000     ................
	...
  403d24:	ffffff00 ffffffff ffffffff ffffffff     ................
  403d34:	ffffffff ffffffff ffffffff 00000000     ................
	...
  403d64:	ffffffff ffffffff ffffffff ffffffff     ................
  403d74:	ffffffff ffffffff 00000000 00000000     ................
	...
  403da0:	ffffffff ffffffff ffffffff ffffffff     ................
  403db0:	ffffffff ffffffff ffffffff ffffffff     ................
  403dc0:	ffffffff ffffffff ffffffff ffffffff     ................
  403dd0:	ffffffff ffffffff ffffffff ffffffff     ................
  403de0:	ffffffff ffffffff ffffffff ffffffff     ................
  403df0:	ffffffff ffffffff ffffffff ffffffff     ................
  403e00:	ffffffff ffffffff ffffffff 00ffffff     ................
	...
  403e30:	ff000000 ffffffff ffffffff ffffffff     ................
  403e40:	ffffffff ffffffff ffffffff 0000ffff     ................
	...
  403e70:	ffff0000 ffffffff ffffffff ffffffff     ................
  403e80:	ffffffff ffffffff 0000ffff 00000000     ................
	...
  403eac:	ffff0000 ffffffff ffffffff ffffffff     ................
  403ebc:	ffffffff ffffffff ffffffff ffffffff     ................
  403ecc:	ffffffff ffffffff ffffffff ffffffff     ................
  403edc:	ffffffff ffffffff ffffffff ffffffff     ................
  403eec:	ffffffff ffffffff ffffffff ffffffff     ................
  403efc:	ffffffff ffffffff ffffffff ffffffff     ................
  403f0c:	ffffffff ffffffff ffffffff ffffffff     ................
  403f1c:	000000ff 00000000 00000000 00000000     ................
	...
  403f40:	ffffff00 ffffffff ffffffff ffffffff     ................
  403f50:	ffffffff ffffffff ffffffff 00000000     ................
	...
  403f80:	ffffffff ffffffff ffffffff ffffffff     ................
  403f90:	ffffffff ffffffff 00000000 00000000     ................
	...
  403fbc:	ffffffff ffffffff ffffffff ffffffff     ................
  403fcc:	ffffffff ffffffff ffffffff ffffffff     ................
  403fdc:	ffffffff ffffffff ffffffff ffffffff     ................
  403fec:	ffffffff ffffffff ffffffff ffffffff     ................
  403ffc:	ffffffff ffffffff ffffffff ffffffff     ................
  40400c:	ffffffff ffffffff ffffffff ffffffff     ................
  40401c:	ffffffff ffffffff ffffffff ffffffff     ................
  40402c:	ffffffff 000000ff 00000000 00000000     ................
	...
  404054:	ffffff00 ffffffff ffffffff ffffffff     ................
  404064:	00ffffff 00000000 00000000 00000000     ................
	...
  404088:	ff000000 ffffffff ffffffff ffffffff     ................
  404098:	ffffffff ffffffff ffffffff 0000ffff     ................
	...
  4040cc:	ffffff00 ffffffff ffffffff ffffffff     ................
  4040dc:	ffffffff ffffffff ffffffff ffffffff     ................
  4040ec:	ffffffff ffffffff ffffffff ffffffff     ................
  4040fc:	ffffffff ffffffff ffffffff ffffffff     ................
  40410c:	ffffffff ffffffff ffffffff ffffffff     ................
  40411c:	ffffffff ffffffff ffffffff ffffffff     ................
  40412c:	ffffffff ffffffff ffffffff ffffffff     ................
  40413c:	00ffffff 00000000 00000000 00000000     ................
	...
  404160:	ff000000 ffffffff ffffffff ffffffff     ................
  404170:	ffffffff 000000ff 00000000 00000000     ................
	...
  404198:	ffffff00 ffffffff ffffffff ffffffff     ................
  4041a8:	ffffffff ffffffff ffffffff 00000000     ................
	...
  4041d8:	ff000000 ffffffff ffffffff ffffffff     ................
  4041e8:	ffffffff ffffffff ffffffff ffffffff     ................
  4041f8:	ffffffff ffffffff ffffffff ffffffff     ................
  404208:	ffffffff ffffffff ffffffff ffffffff     ................
  404218:	ffffffff ffffffff ffffffff ffffffff     ................
  404228:	ffffffff ffffffff ffffffff ffffffff     ................
  404238:	ffffffff ffffffff ffffffff ffffffff     ................
  404248:	ffffffff 000000ff 00000000 00000000     ................
	...
  404270:	ffffff00 ffffffff ffffffff ffffffff     ................
  404280:	00ffffff 00000000 00000000 00000000     ................
	...
  4042a4:	ff000000 ffffffff ffffffff ffffffff     ................
  4042b4:	ffffffff ffffffff ffffffff ffffffff     ................
  4042c4:	000000ff 00000000 00000000 00000000     ................
	...
  4042e8:	ffffff00 ffffffff ffffffff ffffffff     ................
  4042f8:	ffffffff ffffffff ffffffff ffffffff     ................
  404308:	ffffffff ffffffff ffffffff ffffffff     ................
  404318:	ffffffff ffffffff ffffffff ffffffff     ................
  404328:	ffffffff ffffffff 000000ff 00000000     ................
	...
  404340:	ffffffff ffffffff ffffffff ffffffff     ................
  404350:	ffffffff ffffffff ffffffff 0000ffff     ................
	...
  40437c:	ff000000 ffffffff ffffffff ffffffff     ................
  40438c:	ffffffff 000000ff 00000000 00000000     ................
	...
  4043ac:	ff000000 ffffffff ffffffff ffffffff     ................
  4043bc:	ffffffff ffffffff ffffffff ffffffff     ................
  4043cc:	ffffffff 00ffffff 00000000 00000000     ................
	...
  4043f4:	ffffffff ffffffff ffffffff ffffffff     ................
  404404:	ffffffff ffffffff ffffffff ffffffff     ................
  404414:	ffffffff ffffffff ffffffff ffffffff     ................
  404424:	ffffffff ffffffff ffffffff 00ffffff     ................
	...
  404460:	ffffffff ffffffff ffffffff 00000000     ................
	...
  404490:	ffffffff ffffffff ffffffff 00ffffff     ................
	...
  4044bc:	ffffff00 ffffffff ffffffff ffffffff     ................
  4044cc:	ffffffff ffffffff ffffffff ffffffff     ................
  4044dc:	ffffffff 000000ff 00000000 00000000     ................
	...
  404500:	ffff0000 ffffffff ffffffff ffffffff     ................
  404510:	ffffffff ffffffff ffffffff ffffffff     ................
  404520:	ffffffff ffffffff ffffffff ffffffff     ................
  404530:	ffffffff ffffffff ffffffff ffffffff     ................
  404540:	000000ff 00000000 00000000 00000000     ................
	...
  40456c:	ffff0000 ffffffff ffffffff 0000ffff     ................
	...
  40459c:	ffff0000 ffffffff ffffffff ffffffff     ................
  4045ac:	000000ff 00000000 00000000 00000000     ................
	...
  4045c8:	ff000000 ffffffff ffffffff ffffffff     ................
  4045d8:	ffffffff ffffffff ffffffff ffffffff     ................
  4045e8:	ffffffff ffffffff ffffffff 000000ff     ................
	...
  404608:	ffff0000 ffffffff ffffffff ffffffff     ................
  404618:	ffffffff ffffffff ffffffff ffffffff     ................
  404628:	ffffffff ffffffff ffffffff ffffffff     ................
  404638:	ffffffff ffffffff ffffffff ffffffff     ................
  404648:	ffffffff 00ffffff 00000000 00000000     ................
	...
  404684:	ffffff00 00000000 00000000 00000000     ................
	...
  4046ac:	ffffffff ffffffff 000000ff 00000000     ................
	...
  4046d8:	ffffff00 ffffffff ffffffff ffffffff     ................
  4046e8:	ffffffff ffffffff ffffffff ffffffff     ................
  4046f8:	ffffffff ffffffff ffffffff 0000ffff     ................
	...
  404714:	ffffff00 ffffffff ffffffff ffffffff     ................
  404724:	ffffffff ffffffff ffffffff ffffffff     ................
  404734:	ffffffff ffffffff ffffffff ffffffff     ................
  404744:	ffffffff ffffffff ffffffff ffffffff     ................
  404754:	ffffffff ffffffff 000000ff 00000000     ................
	...
  4047b8:	ffff0000 ffffffff 00ffffff 00000000     ................
	...
  4047e4:	ff000000 ffffffff ffffffff ffffffff     ................
  4047f4:	ffffffff ffffffff ffffffff ffffffff     ................
  404804:	ffffffff ffffffff ffffffff ffffffff     ................
	...
  404820:	ff000000 ffffffff ffffffff ffffffff     ................
  404830:	ffffffff ffffffff ffffffff ffffffff     ................
  404840:	ffffffff ffffffff ffffffff ffffffff     ................
  404850:	ffffffff ffffffff ffffffff ffffffff     ................
  404860:	ffffffff ffffffff 00ffffff 00000000     ................
	...
  4048c8:	ffffffff ffffffff 000000ff 00000000     ................
	...
  4048f4:	ffffff00 ffffffff ffffffff ffffffff     ................
  404904:	ffffffff ffffffff ffffffff ffffffff     ................
  404914:	ffffffff ffffffff ffffffff ffffffff     ................
  404924:	ffffffff ff000000 ffffffff ffffffff     ................
  404934:	ffffffff ffffffff ffffffff ffffffff     ................
  404944:	ffffffff ffffffff ffffffff ffffffff     ................
  404954:	ffffffff ffffffff ffffffff ffffffff     ................
  404964:	ffffffff ffffffff ffffffff ffffffff     ................
  404974:	ffffffff ffffffff 00000000 00000000     ................
	...
  4049d4:	ffff0000 ffffffff 00ffffff 00000000     ................
	...
  404a00:	ff000000 ffffffff ffffffff ffffffff     ................
  404a10:	ffffffff ffffffff ffffffff ffffffff     ................
  404a20:	ffffffff ffffffff ffffffff ffffffff     ................
  404a30:	ffffffff ffffffff ffffffff ffffffff     ................
  404a40:	ffffffff ffffffff ffffffff ffffffff     ................
  404a50:	ffffffff ffffffff ffffffff ffffffff     ................
  404a60:	ffffffff ffffffff ffffffff ffffffff     ................
  404a70:	ffffffff ffffffff ffffffff ffffffff     ................
  404a80:	ffffffff ffffffff 0000ffff 00000000     ................
	...
  404ae4:	ffffffff ffffffff 000000ff 00000000     ................
	...
  404b10:	ffffff00 ffffffff ffffffff ffffffff     ................
  404b20:	ffffffff ffffffff ffffffff ffffffff     ................
  404b30:	ffffffff ffffffff ffffffff ffffffff     ................
  404b40:	ffffffff ffffffff ffffffff ffffffff     ................
  404b50:	ffffffff ffffffff ffffffff ffffffff     ................
  404b60:	ffffffff ffffffff ffffffff ffffffff     ................
  404b70:	ffffffff ffffffff ffffffff ffffffff     ................
  404b80:	ffffffff ffffffff ffffffff ffffffff     ................
  404b90:	ffffffff ffffffff 00000000 00000000     ................
	...
  404bf0:	ffff0000 ffffffff 00ffffff 00000000     ................
	...
  404c1c:	ffffffff ffffffff ffffffff ffffffff     ................
  404c2c:	ffffffff ffffffff ffffffff ffffffff     ................
  404c3c:	ffffffff ffffffff ffffffff ffffffff     ................
  404c4c:	ffffffff ffffffff ffffffff ffffffff     ................
  404c5c:	ffffffff ffffffff ffffffff ffffffff     ................
  404c6c:	ffffffff ffffffff ffffffff ffffffff     ................
  404c7c:	ffffffff ffffffff ffffffff ffffffff     ................
  404c8c:	ffffffff ffffffff ffffffff ffffffff     ................
  404c9c:	ffffffff ffffffff 0000ffff 00000000     ................
	...
  404d00:	ffffffff ffffffff 000000ff 00000000     ................
	...
  404d28:	ffff0000 ffffffff ffffffff ffffffff     ................
  404d38:	ffffffff ffffffff ffffffff ffffffff     ................
  404d48:	ffffffff ffffffff ffffffff ffffffff     ................
  404d58:	ffffffff ffffffff ffffffff ffffffff     ................
  404d68:	ffffffff ffffffff ffffffff ffffffff     ................
  404d78:	ffffffff ffffffff ffffffff ffffffff     ................
  404d88:	ffffffff ffffffff ffffffff ffffffff     ................
  404d98:	ffffffff ffffffff ffffffff ffffffff     ................
  404da8:	ffffffff ffffffff ffffffff ffffffff     ................
  404db8:	0000ffff 00000000 00000000 00000000     ................
	...
  404e0c:	ffff0000 ffffffff 00ffffff 00000000     ................
	...
  404e38:	ffffffff ffffffff ffffffff ffffffff     ................
  404e48:	ffffffff ffffffff ffffffff ffffffff     ................
  404e58:	ffffffff ffffffff ffffffff ffffffff     ................
  404e68:	ffffffff ffffffff ffffffff ffffffff     ................
  404e78:	ffffffff ffffffff ffffffff ffffffff     ................
  404e88:	ffffffff ffffffff ffffffff ffffffff     ................
  404e98:	ffffffff ffffffff ffffffff ffffffff     ................
  404ea8:	ffffffff ffffffff ffffffff ffffffff     ................
  404eb8:	ffffffff ffffffff ffffffff ffffffff     ................
	...
  404f1c:	ffffffff ffffffff 000000ff 00000000     ................
	...
  404f44:	ffff0000 ffffffff ffffffff ffffffff     ................
  404f54:	ffffffff ffffffff ffffffff ffffffff     ................
  404f64:	ffffffff ffffffff ffffffff ffffffff     ................
  404f74:	ffffffff ffffffff ffffffff ffffffff     ................
  404f84:	ffffffff ffffffff ffffffff ffffffff     ................
  404f94:	ffffffff ffffffff ffffffff ffffffff     ................
  404fa4:	ffffffff ffffffff ffffffff ffffffff     ................
  404fb4:	ffffffff ffffffff ffffffff ffffffff     ................
  404fc4:	ffffffff ffffffff ffffffff ffffffff     ................
  404fd4:	ffffffff ffffffff ffffffff ffffffff     ................
  404fe4:	ffffffff ffffffff ffffffff 000000ff     ................
	...
  405028:	ffff0000 ffffffff 00ffffff 00000000     ................
	...
  405054:	ffffffff ffffffff ffffffff ffffffff     ................
  405064:	ffffffff ffffffff ffffffff ffffffff     ................
  405074:	ffffffff ffffffff ffffffff ffffffff     ................
  405084:	ffffffff ffffffff ffffffff ffffffff     ................
  405094:	ffffffff ffffffff ffffffff ffffffff     ................
  4050a4:	ffffffff ffffffff ffffffff ffffffff     ................
  4050b4:	ffffffff ffffffff ffffffff ffffffff     ................
  4050c4:	ffffffff ffffffff ffffffff ffffffff     ................
  4050d4:	ffffffff ffffffff ffffffff ffffffff     ................
  4050e4:	ffffffff ffffffff ffffffff ffffffff     ................
  4050f4:	ffffffff ffffffff ffffffff 0000ffff     ................
	...
  405138:	ffffffff ffffffff 000000ff 00000000     ................
	...
  405160:	ffff0000 ffffffff ffffffff ffffffff     ................
  405170:	ffffffff ffffffff ffffffff ffffffff     ................
  405180:	ffffffff ffffffff ffffffff ffffffff     ................
  405190:	ffffffff ffffffff ffffffff ffffffff     ................
  4051a0:	ffffffff ffffffff ffffffff ffffffff     ................
  4051b0:	ffffffff ffffffff ffffffff ffffffff     ................
  4051c0:	ffffffff ffffffff ffffffff ffffffff     ................
  4051d0:	ffffffff ffffffff ffffffff ffffffff     ................
  4051e0:	ffffffff ffffffff ffffffff ffffffff     ................
  4051f0:	ffffffff ffffffff ffffffff ffffffff     ................
  405200:	ffffffff ffffffff ffffffff ffffffff     ................
	...
  405244:	ffff0000 ffffffff 00ffffff 00000000     ................
	...
  405270:	ff000000 ffffffff ffffffff ffffffff     ................
  405280:	ffffffff ffffffff ffffffff ffffffff     ................
  405290:	ffffffff ffffffff ffffffff ffffffff     ................
  4052a0:	ffffffff ffffffff ffffffff ffffffff     ................
  4052b0:	ffffffff ffffffff ffffffff ffffffff     ................
  4052c0:	ffffffff ffffffff ffffffff ffffffff     ................
  4052d0:	ffffffff ffffffff ffffffff ffffffff     ................
  4052e0:	ffffffff ffffffff ffffffff ffffffff     ................
  4052f0:	ffffffff ffffffff ffffffff ffffffff     ................
  405300:	ffffffff ffffffff ffffffff ffffffff     ................
  405310:	ffffffff ffffffff ffffffff ffffffff     ................
  405320:	ffffffff 00000000 00000000 00000000     ................
	...
  405354:	ffffffff ffffffff 000000ff 00000000     ................
	...
  405380:	ffffff00 ffffffff ffffffff ffffffff     ................
  405390:	ffffffff ffffffff ffffffff ffffffff     ................
  4053a0:	ffffffff ffffffff ffffffff ffffffff     ................
  4053b0:	ffffffff ffffffff ffffffff ffffffff     ................
  4053c0:	ffffffff ffffffff ffffffff ffffffff     ................
  4053d0:	ffffffff ffffffff ffffffff ffffffff     ................
  4053e0:	ffffffff ffffffff ffffffff ffffffff     ................
  4053f0:	ffffffff ffffffff ffffffff ffffffff     ................
  405400:	ffffffff ffffffff ffffffff ffffffff     ................
  405410:	ffffffff ffffffff ffffffff ffffffff     ................
  405420:	ffffffff ffffffff ffffffff ffffffff     ................
  405430:	ffffffff 000000ff 00000000 00000000     ................
	...
  405460:	ffff0000 ffffffff 00ffffff 00000000     ................
	...
  40548c:	ff000000 ffffffff ffffffff ffffffff     ................
  40549c:	ffffffff ffffffff ffffffff ffffffff     ................
  4054ac:	ffffffff ffffffff ffffffff ffffffff     ................
  4054bc:	ffffffff ffffffff ffffffff ffffffff     ................
  4054cc:	ffffffff ffffffff ffffffff ffffffff     ................
  4054dc:	ffffffff ffffffff ffffffff ffffffff     ................
  4054ec:	ffffffff ffffffff ffffffff ffffffff     ................
  4054fc:	ffffffff ffffffff ffffffff ffffffff     ................
  40550c:	ffffffff ffffffff ffffffff ffffffff     ................
  40551c:	ffffffff ffffffff ffffffff ffffffff     ................
  40552c:	ffffffff ffffffff ffffffff ffffffff     ................
  40553c:	ffffffff 00ffffff 00000000 00000000     ................
	...
  405570:	ffffffff ffffffff 000000ff 00000000     ................
	...
  40559c:	ffffff00 ffffffff ffffffff ffffffff     ................
  4055ac:	ffffffff ffffffff ffffffff ffffffff     ................
  4055bc:	ffffffff ffffffff ffffffff ffffffff     ................
  4055cc:	ffffffff ffffffff ffffffff ffffffff     ................
  4055dc:	ffffffff ffffffff ffffffff ffffffff     ................
  4055ec:	ffffffff ffffffff ffffffff ffffffff     ................
  4055fc:	ffffffff ffffffff ffffffff ffffffff     ................
  40560c:	ffffffff ffffffff ffffffff ffffffff     ................
  40561c:	ffffffff ffffffff ffffffff ffffffff     ................
  40562c:	ffffffff ffffffff ffffffff ffffffff     ................
  40563c:	ffffffff ffffffff ffffffff ffffffff     ................
  40564c:	ffffffff ffffffff 00ffffff 00000000     ................
	...
  40567c:	ffff0000 ffffffff ffffffff ffffffff     ................
  40568c:	000000ff 00000000 00000000 00000000     ................
	...
  4056a8:	ff000000 ffffffff ffffffff ffffffff     ................
  4056b8:	ffffffff ffffffff ffffffff ffffffff     ................
  4056c8:	ffffffff ffffffff ffffffff ffffffff     ................
  4056d8:	ffffffff ffffffff ffffffff ffffffff     ................
  4056e8:	ffffffff ffffffff ffffffff ffffffff     ................
  4056f8:	ffffffff ffffffff ffffffff ffffffff     ................
  405708:	ffffffff ffffffff ffffffff ffffffff     ................
  405718:	ffffffff ffffffff ffffffff ffffffff     ................
  405728:	ffffffff ffffffff ffffffff ffffffff     ................
  405738:	ffffffff ffffffff ffffffff ffffffff     ................
  405748:	ffffffff ffffffff ffffffff ffffffff     ................
  405758:	ffffffff ffffffff ffffffff 000000ff     ................
	...
  40578c:	ffffffff ffffffff ffffffff 00ffffff     ................
	...
  4057b8:	ffffff00 ffffffff ffffffff ffffffff     ................
  4057c8:	ffffffff ffffffff ffffffff ffffffff     ................
  4057d8:	ffffffff ffffffff ffffffff ffffffff     ................
  4057e8:	ffffffff ffffffff ffffffff ffffffff     ................
  4057f8:	ffffffff ffffffff ffffffff ffffffff     ................
  405808:	ffffffff ffffffff ffffffff ffffffff     ................
  405818:	ffffffff ffffffff ffffffff ffffffff     ................
  405828:	ffffffff ffffffff ffffffff ffffffff     ................
  405838:	ffffffff ffffffff ffffffff ffffffff     ................
  405848:	ffffffff ffffffff ffffffff ffffffff     ................
  405858:	ffffffff ffffffff ffffffff ffffffff     ................
  405868:	ffffffff ffffffff 00ffffff 00000000     ................
	...
  405898:	ffff0000 ffffffff ffffffff ffffffff     ................
  4058a8:	000000ff 00000000 00000000 00000000     ................
	...
  4058c4:	ff000000 ffffffff ffffffff ffffffff     ................
  4058d4:	ffffffff ffffffff ffffffff ffffffff     ................
  4058e4:	ffffffff ffffffff ffffffff ffffffff     ................
  4058f4:	ffffffff ffffffff ffffffff ffffffff     ................
  405904:	ffffffff ffffffff ffffffff ffffffff     ................
  405914:	ffffffff ffffffff ffffffff ffffffff     ................
  405924:	ffffffff ffffffff ffffffff ffffffff     ................
  405934:	ffffffff ffffffff ffffffff ffffffff     ................
  405944:	ffffffff ffffffff ffffffff ffffffff     ................
  405954:	ffffffff ffffffff ffffffff ffffffff     ................
  405964:	ffffffff ffffffff ffffffff ffffffff     ................
  405974:	ffffffff ffffffff ffffffff 000000ff     ................
	...
  4059a8:	ffffffff ffffffff ffffffff 00ffffff     ................
	...
  4059d8:	ff000000 ffffffff ffffffff ffffffff     ................
  4059e8:	ffffffff ffffffff ffffffff ffffffff     ................
  4059f8:	ffffffff ffffffff ffffffff ffffffff     ................
  405a08:	ffffffff ffffffff ffffffff ffffffff     ................
  405a18:	ffffffff ffffffff ffffffff ffffffff     ................
  405a28:	ffffffff ffffffff ffffffff ffffffff     ................
  405a38:	ffffffff ffffffff ffffffff ffffffff     ................
  405a48:	ffffffff ffffffff ffffffff ffffffff     ................
  405a58:	ffffffff ffffffff ffffffff ffffffff     ................
  405a68:	ffffffff ffffffff ffffffff ffffffff     ................
  405a78:	ffffffff ffffffff ffffffff ffffffff     ................
  405a88:	ffffffff 00ffffff 00000000 00000000     ................
	...
  405ab0:	ff000000 ffffffff ffffffff ffffffff     ................
  405ac0:	ffffffff 000000ff 00000000 00000000     ................
	...
  405ae8:	ffffff00 ffffffff ffffffff ffffffff     ................
  405af8:	ffffffff ffffffff ffffffff ffffffff     ................
  405b08:	ffffffff ffffffff ffffffff ffffffff     ................
  405b18:	ffffffff ffffffff ffffffff ffffffff     ................
  405b28:	ffffffff ffffffff ffffffff ffffffff     ................
  405b38:	ffffffff ffffffff ffffffff ffffffff     ................
  405b48:	ffffffff ffffffff ffffffff ffffffff     ................
  405b58:	ffffffff ffffffff ffffffff ffffffff     ................
  405b68:	ffffffff ffffffff ffffffff ffffffff     ................
  405b78:	ffffffff ffffffff ffffffff ffffffff     ................
  405b88:	ffffffff ffffffff ffffffff ffffffff     ................
  405b98:	ffffffff 000000ff 00000000 00000000     ................
	...
  405bc0:	ffffff00 ffffffff ffffffff ffffffff     ................
  405bd0:	00ffffff 00000000 00000000 00000000     ................
	...
  405bf4:	ff000000 ffffffff ffffffff ffffffff     ................
  405c04:	ffffffff ffffffff ffffffff ffffffff     ................
  405c14:	ffffffff ffffffff ffffffff ffffffff     ................
  405c24:	ffffffff ffffffff ffffffff ffffffff     ................
  405c34:	ffffffff ffffffff ffffffff ffffffff     ................
  405c44:	ffffffff ffffffff ffffffff ffffffff     ................
  405c54:	ffffffff ffffffff ffffffff ffffffff     ................
  405c64:	ffffffff ffffffff ffffffff ffffffff     ................
  405c74:	ffffffff ffffffff ffffffff ffffffff     ................
  405c84:	ffffffff ffffffff ffffffff ffffffff     ................
  405c94:	ffffffff ffffffff ffffffff ffffffff     ................
  405ca4:	ffffffff 00ffffff 00000000 00000000     ................
	...
  405ccc:	ff000000 ffffffff ffffffff ffffffff     ................
  405cdc:	ffffffff ffffffff 00000000 00000000     ................
	...
  405d08:	ffffffff ffffffff ffffffff ffffffff     ................
  405d18:	ffffffff ffffffff ffffffff ffffffff     ................
  405d28:	ffffffff ffffffff ffffffff ffffffff     ................
  405d38:	ffffffff ffffffff ffffffff 00ffffff     ................
	...
  405d5c:	ff000000 ffffffff ffffffff ffffffff     ................
  405d6c:	ffffffff ffffffff ffffffff ffffffff     ................
  405d7c:	ffffffff ffffffff ffffffff ffffffff     ................
  405d8c:	ffffffff ffffffff ffffffff ffffffff     ................
  405d9c:	ffffffff ffffffff ffffffff ffffffff     ................
  405dac:	ffffffff ffffffff ffffffff 000000ff     ................
	...
  405ddc:	ffffff00 ffffffff ffffffff ffffffff     ................
  405dec:	ffffffff 0000ffff 00000000 00000000     ................
	...
  405e14:	ffff0000 ffffffff ffffffff ffffffff     ................
  405e24:	ffffffff ffffffff ffffffff ffffffff     ................
  405e34:	ffffffff ffffffff ffffffff ffffffff     ................
  405e44:	ffffffff ffffffff ffffffff ffffffff     ................
  405e54:	000000ff 00000000 00000000 00000000     ................
	...
  405e6c:	ffffff00 ffffffff ffffffff ffffffff     ................
  405e7c:	ffffffff ffffffff ffffffff ffffffff     ................
  405e8c:	ffffffff ffffffff ffffffff ffffffff     ................
  405e9c:	ffffffff ffffffff ffffffff ffffffff     ................
  405eac:	ffffffff ffffffff ffffffff ffffffff     ................
  405ebc:	ffffffff ffffffff 00ffffff 00000000     ................
	...
  405ee8:	ff000000 ffffffff ffffffff ffffffff     ................
  405ef8:	ffffffff ffffffff 00000000 00000000     ................
	...
  405f24:	ffffffff ffffffff ffffffff ffffffff     ................
  405f34:	ffffffff ffffffff ffffffff ffffffff     ................
  405f44:	ffffffff ffffffff ffffffff ffffffff     ................
  405f54:	ffffffff ffffffff ffffffff 00ffffff     ................
	...
  405f84:	ffffffff ffffffff ffffffff ffffffff     ................
  405f94:	ffffffff ffffffff ffffffff ffffffff     ................
  405fa4:	ffffffff ffffffff ffffffff ffffffff     ................
  405fb4:	ffffffff ffffffff ffffffff ffffffff     ................
  405fc4:	ffffffff ffffffff 00ffffff 00000000     ................
	...
  405ff0:	ff000000 ffffffff ffffffff ffffffff     ................
  406000:	ffffffff ffffffff ffffffff 0000ffff     ................
	...
  406038:	ffffffff ffffffff ffffffff ffffffff     ................
  406048:	ffffffff ffffffff ffffffff ffffffff     ................
  406058:	ffffffff ffffffff ffffffff ffffffff     ................
  406068:	ffffffff 0000ffff 00000000 00000000     ................
	...
  406090:	ffff0000 ffffffff ffffffff ffffffff     ................
  4060a0:	ffffffff ffffffff ffffffff ffffffff     ................
  4060b0:	ffffffff ffffffff ffffffff ffffffff     ................
  4060c0:	ffffffff ffffffff ffffffff ffffffff     ................
  4060d0:	ffffffff ffffffff ffffffff 000000ff     ................
	...
  406100:	ffffff00 ffffffff ffffffff ffffffff     ................
  406110:	ffffffff ffffffff ffffffff 00000000     ................
	...
  406144:	ffff0000 ffffffff ffffffff ffffffff     ................
  406154:	ffffffff ffffffff ffffffff ffffffff     ................
  406164:	ffffffff ffffffff ffffffff ffffffff     ................
  406174:	ffffffff ffffffff 00000000 00000000     ................
	...
  4061a0:	ffffffff ffffffff ffffffff ffffffff     ................
  4061b0:	ffffffff ffffffff ffffffff ffffffff     ................
  4061c0:	ffffffff ffffffff ffffffff ffffffff     ................
  4061d0:	ffffffff ffffffff ffffffff ffffffff     ................
  4061e0:	ffffffff ffffffff 00ffffff 00000000     ................
	...
  40620c:	ff000000 ffffffff ffffffff ffffffff     ................
  40621c:	ffffffff ffffffff ffffffff ffffffff     ................
  40622c:	ffffffff 00000000 00000000 00000000     ................
	...
  406254:	ffffffff ffffffff ffffffff ffffffff     ................
  406264:	ffffffff ffffffff ffffffff ffffffff     ................
  406274:	ffffffff ffffffff ffffffff ffffffff     ................
	...
  4062ac:	ffff0000 ffffffff ffffffff ffffffff     ................
  4062bc:	ffffffff ffffffff ffffffff ffffffff     ................
  4062cc:	ffffffff ffffffff ffffffff ffffffff     ................
  4062dc:	ffffffff ffffffff ffffffff ffffffff     ................
  4062ec:	ffffffff ffffffff 0000ffff 00000000     ................
	...
  40631c:	ffffff00 ffffffff ffffffff ffffffff     ................
  40632c:	ffffffff ffffffff ffffffff ffffffff     ................
  40633c:	0000ffff 00000000 00000000 00000000     ................
	...
  406368:	ff000000 ffffffff ffffffff ffffffff     ................
  406378:	ffffffff ffffffff ffffffff ffffffff     ................
  406388:	ffffffff 00ffffff 00000000 00000000     ................
	...
  4063b4:	ffff0000 ffffffff ffffffff ffffffff     ................
  4063c4:	ffffffff ffffffff ffffffff ffffffff     ................
  4063d4:	ffffffff ffffffff ffffffff ffffffff     ................
  4063e4:	ffffffff ffffffff ffffffff ffffffff     ................
  4063f4:	ffffffff ffffffff 0000ffff 00000000     ................
	...
  406428:	ffffffff ffffffff ffffffff ffffffff     ................
  406438:	ffffffff ffffffff ffffffff ffffffff     ................
  406448:	ffffffff 00000000 00000000 00000000     ................
	...
  406478:	ffffff00 ffffffff ffffffff ffffffff     ................
  406488:	ffffffff ffffffff ffffffff ffffffff     ................
  406498:	ffffffff 000000ff 00000000 00000000     ................
	...
  4064c4:	ffffffff ffffffff ffffffff ffffffff     ................
  4064d4:	ffffffff ffffffff ffffffff ffffffff     ................
  4064e4:	ffffffff ffffffff ffffffff ffffffff     ................
  4064f4:	ffffffff ffffffff ffffffff ffffffff     ................
  406504:	ffffffff ffffffff 00000000 00000000     ................
	...
  406534:	ffff0000 ffffffff ffffffff ffffffff     ................
  406544:	ffffffff ffffffff ffffffff ffffffff     ................
  406554:	ffffffff ffffffff 000000ff 00000000     ................
	...
  406590:	ffffffff ffffffff ffffffff ffffffff     ................
  4065a0:	0000ffff 00000000 00000000 00000000     ................
	...
  4065d0:	ffff0000 ffffffff ffffffff ffffffff     ................
  4065e0:	ffffffff ffffffff ffffffff ffffffff     ................
  4065f0:	ffffffff ffffffff ffffffff ffffffff     ................
  406600:	ffffffff ffffffff ffffffff ffffffff     ................
  406610:	ffffffff ffffffff 0000ffff 00000000     ................
	...
  406644:	ffffffff ffffffff ffffffff ffffffff     ................
  406654:	ffffffff ffffffff ffffffff ffffffff     ................
  406664:	ffffffff 00ffffff 00000000 00000000     ................
	...
  4066dc:	ffffff00 ffffffff ffffffff ffffffff     ................
  4066ec:	ffffffff ffffffff ffffffff ffffffff     ................
  4066fc:	ffffffff ffffffff ffffffff ffffffff     ................
  40670c:	ffffffff ffffffff ffffffff ffffffff     ................
  40671c:	ffffffff ffffffff 000000ff 00000000     ................
	...
  40674c:	ffffffff ffffffff ffffffff ffffffff     ................
  40675c:	ffffffff ffffffff ffffffff ffffffff     ................
  40676c:	ffffffff ffffffff ffffffff 000000ff     ................
	...
  4067e8:	ff000000 ffffffff ffffffff ffffffff     ................
  4067f8:	ffffffff ffffffff ffffffff ffffffff     ................
  406808:	ffffffff ffffffff ffffffff ffffffff     ................
  406818:	ffffffff ffffffff ffffffff ffffffff     ................
  406828:	ffffffff ffffffff 00ffffff 00000000     ................
	...
  406858:	ffff0000 ffffffff ffffffff ffffffff     ................
  406868:	ffffffff ffffffff ffffffff ffffffff     ................
  406878:	ffffffff ffffffff ffffffff ffffffff     ................
  406888:	ffffffff 000000ff 00000000 00000000     ................
	...
  4068f8:	ffffff00 ffffffff ffffffff ffffffff     ................
  406908:	ffffffff ffffffff ffffffff ffffffff     ................
  406918:	ffffffff ffffffff ffffffff ffffffff     ................
  406928:	ffffffff ffffffff ffffffff ffffffff     ................
  406938:	00ffffff 00000000 00000000 00000000     ................
	...
  406964:	ffffff00 ffffffff ffffffff ffffffff     ................
  406974:	ffffffff ffffffff ffffffff ffffffff     ................
  406984:	ffffffff ffffffff ffffffff ffffffff     ................
  406994:	ffffffff ffffffff 0000ffff 00000000     ................
	...
  406a00:	ffffff00 ffffffff ffffffff ffffffff     ................
  406a10:	ffffffff ffffffff ffffffff ffffffff     ................
  406a20:	ffffffff ffffffff ffffffff ffffffff     ................
  406a30:	ffffffff ffffffff ffffffff ffffffff     ................
	...
  406a70:	ff000000 ffffffff ffffffff ffffffff     ................
  406a80:	ffffffff ffffffff ffffffff ffffffff     ................
  406a90:	ffffffff ffffffff ffffffff ffffffff     ................
  406aa0:	ffffffff ffffffff ffffffff 00000000     ................
	...
  406b0c:	ff000000 ffffffff ffffffff ffffffff     ................
  406b1c:	ffffffff ffffffff ffffffff ffffffff     ................
  406b2c:	ffffffff ffffffff ffffffff ffffffff     ................
  406b3c:	ffffffff ffffffff ffffffff ffffffff     ................
  406b4c:	0000ffff 00000000 00000000 00000000     ................
	...
  406b80:	ffffff00 ffffffff ffffffff ffffffff     ................
  406b90:	ffffffff ffffffff ffffffff ffffffff     ................
  406ba0:	ffffffff ffffffff ffffffff ffffffff     ................
  406bb0:	ffffffff ffffffff ffffffff ffffffff     ................
	...
  406c18:	ffff0000 ffffffff ffffffff ffffffff     ................
  406c28:	ffffffff ffffffff ffffffff ffffffff     ................
  406c38:	ffffffff ffffffff ffffffff ffffffff     ................
  406c48:	ffffffff ffffffff ffffffff ffffffff     ................
  406c58:	000000ff 00000000 00000000 00000000     ................
	...
  406c88:	ffffff00 ffffffff ffffffff ffffffff     ................
  406c98:	ffffffff ffffffff ffffffff ffffffff     ................
  406ca8:	ffffffff ffffffff ffffffff ffffffff     ................
  406cb8:	ffffffff ffffffff ffffffff ffffffff     ................
  406cc8:	ffffffff 0000ffff 00000000 00000000     ................
	...
  406d1c:	ff000000 ffffffff ffffffff ffffffff     ................
  406d2c:	ffffffff ffffffff ffffffff ffffffff     ................
  406d3c:	ffffffff ffffffff ffffffff ffffffff     ................
  406d4c:	ffffffff ffffffff ffffffff ffffffff     ................
  406d5c:	0000ffff 00000000 00000000 00000000     ................
	...
  406d94:	ffffffff ffffffff ffffffff ffffffff     ................
  406da4:	ffffffff ffffffff ffffffff ffffffff     ................
  406db4:	ffffffff ffffffff ffffffff ffffffff     ................
  406dc4:	ffffffff ffffffff ffffffff ffffffff     ................
  406dd4:	ffffffff ffffffff 00000000 00000000     ................
	...
  406e2c:	ffffff00 ffffffff ffffffff ffffffff     ................
  406e3c:	ffffffff ffffffff ffffffff ffffffff     ................
  406e4c:	ffffffff ffffffff ffffffff ffffffff     ................
  406e5c:	ffffffff ffffffff ffffffff ffffffff     ................
	...
  406ea0:	ffff0000 ffffffff ffffffff ffffffff     ................
  406eb0:	ffffffff ffffffff ffffffff ffffffff     ................
  406ec0:	ffffffff ffffffff ffffffff ffffffff     ................
  406ed0:	ffffffff ffffffff ffffffff ffffffff     ................
  406ee0:	ffffffff ffffffff ffffffff 000000ff     ................
	...
  406f34:	ffffff00 ffffffff ffffffff ffffffff     ................
  406f44:	ffffffff ffffffff ffffffff ffffffff     ................
  406f54:	ffffffff ffffffff ffffffff ffffffff     ................
  406f64:	ffffffff ffffffff ffffffff 000000ff     ................
	...
  406fa8:	ffff0000 ffffffff ffffffff ffffffff     ................
  406fb8:	ffffffff ffffffff ffffffff ffffffff     ................
  406fc8:	ffffffff ffffffff ffffffff ffffffff     ................
  406fd8:	ffffffff ffffffff ffffffff ffffffff     ................
  406fe8:	ffffffff ffffffff ffffffff ffffffff     ................
  406ff8:	ffffffff ffffffff 000000ff 00000000     ................
	...
  407048:	ffffff00 ffffffff ffffffff ffffffff     ................
  407058:	ffffffff ffffffff ffffffff ffffffff     ................
  407068:	ffffffff ffffffff 00000000 00000000     ................
	...
  4070b4:	ffffff00 ffffffff ffffffff ffffffff     ................
  4070c4:	ffffffff ffffffff ffffffff ffffffff     ................
  4070d4:	ffffffff ffffffff ffffffff ffffffff     ................
  4070e4:	ffffffff ffffffff ffffffff ffffffff     ................
  4070f4:	ffffffff ffffffff ffffffff ffffffff     ................
  407104:	ffffffff ffffffff 00ffffff 00000000     ................
	...
  407154:	ff000000 ffffffff ffffffff ffffffff     ................
  407164:	ffffffff ffffffff ffffffff ffffffff     ................
  407174:	ffffffff ffffffff 0000ffff 00000000     ................
	...
  4071c0:	ff000000 ffffffff ffffffff ffffffff     ................
  4071d0:	ffffffff ffffffff ffffffff ffffffff     ................
  4071e0:	ffffffff ffffffff ffffffff ffffffff     ................
  4071f0:	ffffffff ffffffff ffffffff ffffffff     ................
  407200:	ffffffff ffffffff ffffffff ffffffff     ................
  407210:	ffffffff ffffffff ffffffff ffffffff     ................
  407220:	ffffffff 0000ffff 00000000 00000000     ................
	...
  4072c8:	ff000000 ffffffff ffffffff ffffffff     ................
  4072d8:	ffffffff ffffffff ffffffff ffffffff     ................
  4072e8:	ffffffff ffffffff ffffffff ffffffff     ................
  4072f8:	ffffffff ffffffff ffffffff ffffffff     ................
  407308:	ffffffff ffffffff ffffffff ffffffff     ................
  407318:	ffffffff ffffffff ffffffff ffffffff     ................
  407328:	ffffffff ffffffff ffffffff 00ffffff     ................
	...
  4073d4:	ffff0000 ffffffff ffffffff ffffffff     ................
  4073e4:	ffffffff ffffffff ffffffff ffffffff     ................
  4073f4:	ffffffff ffffffff ffffffff ffffffff     ................
  407404:	ffffffff ffffffff ffffffff ffffffff     ................
  407414:	ffffffff ffffffff ffffffff ffffffff     ................
  407424:	ffffffff ffffffff ffffffff ffffffff     ................
  407434:	ffffffff ffffffff ffffffff ffffffff     ................
  407444:	000000ff 00000000 00000000 00000000     ................
	...
  4074e4:	ffffffff ffffffff ffffffff ffffffff     ................
  4074f4:	ffffffff ffffffff ffffffff ffffffff     ................
  407504:	ffffffff ffffffff ffffffff ffffffff     ................
  407514:	ffffffff ffffffff ffffffff ffffffff     ................
  407524:	ffffffff ffffffff ffffffff ffffffff     ................
  407534:	ffffffff ffffffff ffffffff ffffffff     ................
  407544:	ffffffff ffffffff ffffffff ffffffff     ................
  407554:	ffffffff 000000ff 00000000 00000000     ................
	...
  4075e8:	ffffff00 ffffffff ffffffff ffffffff     ................
  4075f8:	ffffffff ffffffff ffffffff ffffffff     ................
  407608:	ffffffff ffffffff ffffffff ffffffff     ................
  407618:	ffffffff ffffffff ffffffff ffffffff     ................
  407628:	ffffffff ffffffff ffffffff ffffffff     ................
  407638:	ffffffff ffffffff ffffffff ffffffff     ................
  407648:	ffffffff ffffffff ffffffff ffffffff     ................
  407658:	ffffffff ffffffff ffffffff ffffffff     ................
  407668:	ffffffff ffffffff 00000000 00000000     ................
	...
  4076f0:	ffffff00 ffffffff ffffffff ffffffff     ................
  407700:	ffffffff ffffffff ffffffff ffffffff     ................
  407710:	ffffffff ffffffff ffffffff ffffffff     ................
  407720:	ffffffff ffffffff ffffffff ffffffff     ................
  407730:	ffffffff ffffffff ffffffff ffffffff     ................
  407740:	ffffffff ffffffff ffffffff ffffffff     ................
  407750:	ffffffff ffffffff ffffffff ffffffff     ................
  407760:	ffffffff ffffffff ffffffff ffffffff     ................
  407770:	ffffffff ffffffff ffffffff 0000ffff     ................
	...
  4077fc:	ff000000 ffffffff ffffffff ffffffff     ................
  40780c:	ffffffff ffffffff ffffffff ffffffff     ................
  40781c:	ffffffff ffffffff ffffffff ffffffff     ................
  40782c:	ffffffff ffffffff ffffffff ffffffff     ................
  40783c:	ffffffff ffffffff ffffffff ffffffff     ................
  40784c:	ffffffff ffffffff ffffffff ffffffff     ................
  40785c:	ffffffff ffffffff ffffffff ffffffff     ................
  40786c:	ffffffff ffffffff ffffffff ffffffff     ................
  40787c:	ffffffff ffffffff ffffffff ffffffff     ................
  40788c:	ffffffff ffffffff 000000ff 00000000     ................
	...
  407904:	ffffffff ffffffff ffffffff ffffffff     ................
  407914:	ffffffff ffffffff ffffffff ffffffff     ................
  407924:	ffffffff ffffffff ffffffff ffffffff     ................
  407934:	ffffffff ffffffff ffffffff ffffffff     ................
  407944:	ffffffff ffffffff ffffffff ffffffff     ................
  407954:	ffffffff ffffffff ffffffff ffffffff     ................
  407964:	ffffffff ffffffff ffffffff ffffffff     ................
  407974:	ffffffff ffffffff ffffffff ffffffff     ................
  407984:	ffffffff ffffffff ffffffff ffffffff     ................
  407994:	ffffffff ffffffff ffffffff ffffffff     ................
  4079a4:	ffffffff ffffffff 00000000 00000000     ................
	...
  407a04:	ffff0000 ffffffff ffffffff ffffffff     ................
  407a14:	ffffffff ffffffff ffffffff ffffffff     ................
  407a24:	ffffffff ffffffff ffffffff ffffffff     ................
  407a34:	ffffffff ffffffff ffffffff ffffffff     ................
  407a44:	ffffffff ffffffff ffffffff ffffffff     ................
  407a54:	ffffffff ffffffff ffffffff ffffffff     ................
  407a64:	ffffffff ffffffff ffffffff ffffffff     ................
  407a74:	ffffffff ffffffff ffffffff ffffffff     ................
  407a84:	ffffffff ffffffff ffffffff ffffffff     ................
  407a94:	ffffffff ffffffff ffffffff ffffffff     ................
  407aa4:	ffffffff ffffffff ffffffff ffffffff     ................
  407ab4:	ffffffff 0000ffff 00000000 00000000     ................
	...
  407b14:	ffffffff ffffffff ffffffff ffffffff     ................
  407b24:	ffffffff ffffffff ffffffff ffffffff     ................
  407b34:	ffffffff ffffffff ffffffff ffffffff     ................
  407b44:	ffffffff ffffffff ffffffff ffffffff     ................
  407b54:	ffffffff ffffffff ffffffff ffffffff     ................
  407b64:	ffffffff ffffffff ffffffff ffffffff     ................
  407b74:	ffffffff ffffffff ffffffff ffffffff     ................
  407b84:	ffffffff ffffffff ffffffff ffffffff     ................
  407b94:	ffffffff ffffffff ffffffff ffffffff     ................
  407ba4:	ffffffff ffffffff ffffffff ffffffff     ................
  407bb4:	ffffffff ffffffff ffffffff ffffffff     ................
  407bc4:	ffffffff ffffffff ffffffff ffffffff     ................
  407bd4:	ffffffff 0000ffff 00000000 00000000     ................
	...
  407c10:	ff000000 ffffffff ffffffff ffffffff     ................
  407c20:	ffffffff ffffffff ffffffff ffffffff     ................
  407c30:	ffffffff ffffffff ffffffff ffffffff     ................
  407c40:	ffffffff ffffffff ffffffff ffffffff     ................
  407c50:	ffffffff ffffffff ffffffff ffffffff     ................
  407c60:	ffffffff ffffffff ffffffff ffffffff     ................
  407c70:	ffffffff ffffffff ffffffff ffffffff     ................
  407c80:	ffffffff ffffffff ffffffff ffffffff     ................
  407c90:	ffffffff ffffffff ffffffff ffffffff     ................
  407ca0:	ffffffff ffffffff ffffffff ffffffff     ................
  407cb0:	ffffffff ffffffff ffffffff ffffffff     ................
  407cc0:	ffffffff ffffffff ffffffff ffffffff     ................
  407cd0:	ffffffff ffffffff ffffffff ffffffff     ................
  407ce0:	ffffffff ffffffff ffffffff ffffffff     ................
  407cf0:	ffffffff ffffffff ffffffff ffffffff     ................
  407d00:	ffffffff ffffffff ffffffff ffffffff     ................
  407d10:	ffffffff ffffffff ffffffff ffffffff     ................
  407d20:	ffffffff ffffffff ffffffff ffffffff     ................
  407d30:	ffffffff ffffffff ffffffff ffffffff     ................
  407d40:	ffffffff ffffffff ffffffff ffffffff     ................
  407d50:	ffffffff ffffffff ffffffff ffffffff     ................
  407d60:	ffffffff ffffffff ffffffff ffffffff     ................
  407d70:	ffffffff ffffffff ffffffff ffffffff     ................
  407d80:	ffffffff ffffffff ffffffff ffffffff     ................
  407d90:	ffffffff ffffffff ffffffff ffffffff     ................
  407da0:	ffffffff ffffffff ffffffff ffffffff     ................
  407db0:	ffffffff ffffffff ffffffff ffffffff     ................
  407dc0:	ffffffff ffffffff ffffffff ffffffff     ................
  407dd0:	ffffffff ffffffff ffffffff ffffffff     ................
  407de0:	ffffffff ffffffff ffffffff ffffffff     ................
  407df0:	ffffffff ffffffff ffffffff ffffffff     ................
  407e00:	ffffffff ffffffff ffffffff ffffffff     ................
  407e10:	ffffffff ffffffff ffffffff ffffffff     ................
  407e20:	ffffffff ffffffff ffffffff ffffffff     ................
  407e30:	ffffffff ffffffff ffffffff ffffffff     ................
  407e40:	ffffffff ffffffff ffffffff ffffffff     ................
  407e50:	ffffffff ffffffff ffffffff ffffffff     ................
  407e60:	ffffffff ffffffff ffffffff ffffffff     ................
  407e70:	ffffffff ffffffff ffffffff ffffffff     ................
  407e80:	ffffffff ffffffff ffffffff ffffffff     ................
  407e90:	ffffffff ffffffff                       ........

00407e98 <image_data_custom>:
  407e98:	ffffffff ffffffff ffffffff ffffffff     ................
  407ea8:	ffffffff ffffffff ffffffff ffffffff     ................
  407eb8:	ffffffff ffffffff ffffffff ffffffff     ................
	...
  407ed0:	ffffff00 ffffffff ffffffff ffffffff     ................
  407ee0:	ffffffff ffffffff ffffffff ffffffff     ................
  407ef0:	ffffffff ffffffff ffffffff ffffffff     ................
  407f00:	ffffffff ffffffff ffffffff ffffffff     ................
  407f10:	ffffffff ffffffff ffffffff ffffffff     ................
  407f20:	ffffffff ffffffff ffffffff ffffffff     ................
  407f30:	ffffffff ffffffff ffffffff ffffffff     ................
  407f40:	ffffffff ffffffff ffffffff ffffffff     ................
  407f50:	ffffffff ffffffff ffffffff ffffffff     ................
  407f60:	ffffffff ffffffff ffffffff ffffffff     ................
  407f70:	ffffffff ffffffff ffffffff ffffffff     ................
  407f80:	ffffffff ffffffff ffffffff ffffffff     ................
  407f90:	ffffffff ffffffff ffffffff ffffffff     ................
  407fa0:	ffffffff ffffffff ffffffff ffffffff     ................
  407fb0:	ffffffff ffffffff ffffffff ffffffff     ................
  407fc0:	ffffffff 00ffffff 00000000 00000000     ................
	...
  407fec:	ffff0000 ffffffff ffffffff ffffffff     ................
  407ffc:	ffffffff ffffffff ffffffff ffffffff     ................
  40800c:	ffffffff ffffffff ffffffff ffffffff     ................
  40801c:	ffffffff ffffffff ffffffff ffffffff     ................
  40802c:	ffffffff ffffffff ffffffff ffffffff     ................
  40803c:	ffffffff ffffffff ffffffff ffffffff     ................
  40804c:	ffffffff ffffffff ffffffff ffffffff     ................
  40805c:	ffffffff ffffffff ffffffff ffffffff     ................
  40806c:	ffffffff ffffffff ffffffff ffffffff     ................
  40807c:	ffffffff ffffffff ffffffff ffffffff     ................
  40808c:	ffffffff ffffffff ffffffff ffffffff     ................
  40809c:	ffffffff ffffffff ffffffff ffffffff     ................
  4080ac:	ffffffff ffffffff ffffffff ffffffff     ................
  4080bc:	ffffffff ffffffff ffffffff ffffffff     ................
  4080cc:	00ffffff 00000000 00000000 00000000     ................
	...
  408104:	ffffff00 ffffffff ffffffff ffffffff     ................
  408114:	ffffffff ffffffff ffffffff ffffffff     ................
  408124:	ffffffff ffffffff ffffffff ffffffff     ................
  408134:	ffffffff ffffffff ffffffff ffffffff     ................
  408144:	ffffffff ffffffff ffffffff ffffffff     ................
  408154:	ffffffff ffffffff ffffffff ffffffff     ................
  408164:	ffffffff ffffffff ffffffff ffffffff     ................
  408174:	ffffffff ffffffff ffffffff ffffffff     ................
  408184:	ffffffff ffffffff ffffffff ffffffff     ................
  408194:	ffffffff ffffffff ffffffff ffffffff     ................
  4081a4:	ffffffff ffffffff ffffffff ffffffff     ................
  4081b4:	ffffffff ffffffff ffffffff ffffffff     ................
  4081c4:	ffffffff ffffffff ffffffff ffffffff     ................
  4081d4:	ffffffff ffffffff 000000ff 00000000     ................
	...
  408218:	ffffff00 ffffffff ffffffff ffffffff     ................
  408228:	ffffffff ffffffff ffffffff ffffffff     ................
  408238:	ffffffff ffffffff ffffffff ffffffff     ................
  408248:	ffffffff ffffffff ffffffff ffffffff     ................
  408258:	ffffffff ffffffff ffffffff ffffffff     ................
  408268:	ffffffff ffffffff ffffffff ffffffff     ................
  408278:	ffffffff ffffffff ffffffff ffffffff     ................
  408288:	ffffffff ffffffff ffffffff ffffffff     ................
  408298:	ffffffff ffffffff ffffffff ffffffff     ................
  4082a8:	ffffffff ffffffff ffffffff ffffffff     ................
  4082b8:	00ffffff 00000000 00000000 ff000000     ................
  4082c8:	ffffffff ffffffff ffffffff ffffffff     ................
  4082d8:	ffffffff ffffffff ffffffff ffffffff     ................
	...
  40832c:	ffffff00 ffffffff ffffffff ffffffff     ................
  40833c:	ffffffff ffffffff ffffffff ffffffff     ................
  40834c:	ffffffff ffffffff ffffffff ffffffff     ................
  40835c:	ffffffff ffffffff ffffffff ffffffff     ................
  40836c:	ffffffff ffffffff ffffffff ffffffff     ................
  40837c:	ffffffff ffffffff ffffffff ffffffff     ................
  40838c:	ffffffff ffffffff ffffffff ffffffff     ................
  40839c:	ffffffff ffffffff ffffffff ffffffff     ................
  4083ac:	ffffffff ffffffff ffffffff ffffffff     ................
  4083bc:	000000ff 00000000 00000000 00000000     ................
	...
  4083d8:	ffffffff ffffffff ffffffff ffffffff     ................
  4083e8:	ffffffff ffffffff ffffffff ffffffff     ................
  4083f8:	000000ff 00000000 00000000 00000000     ................
	...
  408410:	ffffff00 ffffffff ffffffff ffffffff     ................
  408420:	00ffffff 00000000 00000000 00000000     ................
	...
  40843c:	ffff0000 ffffffff ffffffff ffffffff     ................
  40844c:	ffffffff ffffffff ffffffff ffffffff     ................
  40845c:	ffffffff ffffffff ffffffff ffffffff     ................
  40846c:	ffffffff ffffffff ffffffff ffffffff     ................
  40847c:	ffffffff ffffffff ffffffff ffffffff     ................
  40848c:	ffffffff ffffffff ffffffff ffffffff     ................
  40849c:	ffffffff ffffffff ffffffff ffffffff     ................
  4084ac:	ffffffff ffffffff ffffffff ffffffff     ................
  4084bc:	00ffffff 00000000 00000000 00000000     ................
	...
  4084e4:	ffff0000 ffffffff ffffffff ffffffff     ................
  4084f4:	ffffffff ffffffff ffffffff ffffffff     ................
  408504:	ffffffff 0000ffff 00000000 00000000     ................
	...
  408520:	ffff0000 ffffffff ffffffff ffffffff     ................
  408530:	ffffffff ffffffff 0000ffff 00000000     ................
	...
  40854c:	ff000000 ffffffff ffffffff ffffffff     ................
  40855c:	ffffffff ffffffff ffffffff ffffffff     ................
  40856c:	ffffffff ffffffff ffffffff ffffffff     ................
  40857c:	ffffffff ffffffff ffffffff ffffffff     ................
  40858c:	ffffffff ffffffff ffffffff ffffffff     ................
  40859c:	ffffffff ffffffff ffffffff ffffffff     ................
  4085ac:	ffffffff ffffffff ffffffff ffffffff     ................
  4085bc:	ffffffff 000000ff 00000000 00000000     ................
	...
  4085f4:	ffffffff ffffffff ffffffff ffffffff     ................
  408604:	ffffffff ffffffff ffffffff ffffffff     ................
  408614:	ffffffff ffffffff 0000ffff 00000000     ................
	...
  408634:	ffff0000 ffffffff ffffffff ffffffff     ................
  408644:	ffffffff ffffffff 0000ffff 00000000     ................
	...
  408660:	ffffffff ffffffff ffffffff ffffffff     ................
  408670:	ffffffff ffffffff ffffffff ffffffff     ................
  408680:	ffffffff ffffffff ffffffff ffffffff     ................
  408690:	ffffffff ffffffff ffffffff ffffffff     ................
  4086a0:	ffffffff ffffffff ffffffff ffffffff     ................
  4086b0:	ffffffff ffffffff ffffffff ffffffff     ................
  4086c0:	ffffffff 0000ffff 00000000 00000000     ................
	...
  4086fc:	ff000000 ffffffff ffffffff ffffffff     ................
  40870c:	ffffffff ffffffff ffffffff ffffffff     ................
  40871c:	ffffffff ffffffff ffffffff ffffffff     ................
  40872c:	ffffffff 0000ffff 00000000 00000000     ................
	...
  408744:	ff000000 ffffffff ffffffff ffffffff     ................
  408754:	ffffffff ffffffff 00ffffff 00000000     ................
	...
  408770:	ffffff00 ffffffff ffffffff ffffffff     ................
  408780:	ffffffff ffffffff ffffffff ffffffff     ................
  408790:	ffffffff ffffffff ffffffff ffffffff     ................
  4087a0:	ffffffff ffffffff ffffffff ffffffff     ................
  4087b0:	ffffffff ffffffff ffffffff ffffffff     ................
  4087c0:	ffffffff ffffffff ffffffff 0000ffff     ................
	...
  4087f8:	ffffffff ffffffff 000000ff 00000000     ................
  408808:	00000000 ffffff00 ffffffff ffffffff     ................
  408818:	ffffffff ffffffff ffffffff ffffffff     ................
  408828:	ffffffff ffffffff ffffffff ffffffff     ................
  408838:	ffffffff ffffffff 00ffffff 00000000     ................
	...
  408858:	ffffffff ffffffff ffffffff ffffffff     ................
  408868:	ffffffff ffffffff 00ffffff 00000000     ................
  408878:	00000000 ff000000 ffffffff ffffffff     ................
  408888:	ffffffff ffffffff ffffffff ffffffff     ................
  408898:	ffffffff ffffffff ffffffff ffffffff     ................
  4088a8:	ffffffff ffffffff ffffffff ffffffff     ................
  4088b8:	ffffffff ffffffff ffffffff ffffffff     ................
  4088c8:	ffffffff ffffffff ffffffff ffffffff     ................
  4088d8:	000000ff 00000000 00000000 00000000     ................
	...
  4088f8:	ffff0000 ffffffff ffffffff ffffffff     ................
  408908:	ffffffff 00ffffff 00000000 00000000     ................
  408918:	ff000000 ffffffff ffffffff ffffffff     ................
  408928:	ffffffff ffffffff ffffffff ffffffff     ................
  408938:	ffffffff ffffffff ffffffff ffffffff     ................
  408948:	ffffffff ffffffff ffffffff 00ffffff     ................
	...
  408964:	ffff0000 ffffffff ffffffff ffffffff     ................
  408974:	ffffffff ffffffff ffffffff 000000ff     ................
	...
  408990:	ffffffff ffffffff ffffffff ffffffff     ................
  4089a0:	ffffffff ffffffff ffffffff ffffffff     ................
  4089b0:	ffffffff ffffffff ffffffff ffffffff     ................
  4089c0:	ffffffff ffffffff ffffffff ffffffff     ................
  4089d0:	ffffffff ffffffff ffffffff ffffffff     ................
  4089e0:	ffffffff 00000000 00000000 00000000     ................
	...
  4089fc:	ff000000 ffffffff ffffffff ffffffff     ................
  408a0c:	ffffffff ffffffff ffffffff 0000ffff     ................
	...
  408a28:	ffffff00 ffffffff ffffffff ffffffff     ................
  408a38:	ffffffff ffffffff ffffffff ffffffff     ................
  408a48:	ffffffff ffffffff ffffffff ffffffff     ................
  408a58:	ffffffff ffffffff ffffffff ffffffff     ................
	...
  408a74:	ff000000 ffffffff ffffffff ffffffff     ................
  408a84:	ffffffff ffffffff ffffffff 0000ffff     ................
	...
  408a9c:	ffff0000 ffffffff ffffffff ffffffff     ................
  408aac:	ffffffff ffffffff ffffffff ffffffff     ................
  408abc:	ffffffff ffffffff ffffffff ffffffff     ................
  408acc:	ffffffff ffffffff ffffffff ffffffff     ................
  408adc:	ffffffff ffffffff ffffffff ffffffff     ................
  408aec:	00ffffff 00000000 00000000 00000000     ................
	...
  408b10:	ffffffff ffffffff ffffffff ffffffff     ................
  408b20:	ffffffff ffffffff 00000000 00000000     ................
  408b30:	00000000 ffffffff ffffffff ffffffff     ................
  408b40:	ffffffff ffffffff ffffffff ffffffff     ................
  408b50:	ffffffff ffffffff ffffffff ffffffff     ................
  408b60:	ffffffff ffffffff ffffffff ffffffff     ................
  408b70:	ffffffff ffffffff 000000ff 00000000     ................
  408b80:	00000000 ffffff00 ffffffff ffffffff     ................
  408b90:	ffffffff ffffffff ffffffff ffffffff     ................
	...
  408bac:	ffffffff ffffffff ffffffff ffffffff     ................
  408bbc:	ffffffff ffffffff ffffffff ffffffff     ................
  408bcc:	ffffffff ffffffff ffffffff ffffffff     ................
  408bdc:	ffffffff ffffffff ffffffff ffffffff     ................
  408bec:	ffffffff ffffffff ffffffff 0000ffff     ................
	...
  408c0c:	00ffffff 00000000 00000000 00000000     ................
  408c1c:	00000000 ffffff00 ffffffff ffffffff     ................
  408c2c:	ffffffff ffffffff 0000ffff 00000000     ................
  408c3c:	00000000 ffff0000 ffffffff ffffffff     ................
  408c4c:	ffffffff ffffffff ffffffff ffffffff     ................
  408c5c:	ffffffff ffffffff ffffffff ffffffff     ................
  408c6c:	ffffffff ffffffff ffffffff ffffffff     ................
  408c7c:	ffffffff ffffffff 00ffffff 00000000     ................
  408c8c:	00000000 ff000000 ffffffff ffffffff     ................
  408c9c:	ffffffff ffffffff ffffffff ffffffff     ................
  408cac:	0000ffff 00000000 00000000 ffff0000     ................
  408cbc:	ffffffff ffffffff ffffffff ffffffff     ................
  408ccc:	ffffffff ffffffff ffffffff ffffffff     ................
  408cdc:	ffffffff ffffffff ffffffff ffffffff     ................
  408cec:	ffffffff ffffffff ffffffff ffffffff     ................
  408cfc:	ffffffff ffffffff 000000ff 00000000     ................
	...
  408d14:	ff000000 ffffffff ffffffff 00000000     ................
	...
  408d30:	ffff0000 ffffffff ffffffff ffffffff     ................
  408d40:	ffffffff 00000000 00000000 00000000     ................
  408d50:	ffffffff ffffffff ffffffff ffffffff     ................
  408d60:	ffffffff ffffffff ffffffff ffffffff     ................
  408d70:	ffffffff ffffffff ffffffff ffffffff     ................
  408d80:	ffffffff ffffffff ffffffff ffffffff     ................
  408d90:	ffffffff 000000ff 00000000 00000000     ................
  408da0:	ffffff00 ffffffff ffffffff ffffffff     ................
  408db0:	ffffffff ffffffff ffffffff 00000000     ................
	...
  408dc8:	ffffffff ffffffff ffffffff ffffffff     ................
  408dd8:	ffffffff ffffffff ffffffff ffffffff     ................
  408de8:	ffffffff ffffffff ffffffff ffffffff     ................
  408df8:	ffffffff ffffffff ffffffff ffffffff     ................
  408e08:	ffffffff ffffffff 00000000 00000000     ................
	...
  408e20:	ffff0000 ffffffff ffffffff ffffffff     ................
  408e30:	000000ff 00000000 00000000 00000000     ................
  408e40:	ff000000 ffffffff ffffffff 00ffffff     ................
	...
  408e5c:	ffff0000 ffffffff ffffffff ffffffff     ................
  408e6c:	ffffffff ffffffff ffffffff ffffffff     ................
  408e7c:	ffffffff ffffffff ffffffff ffffffff     ................
  408e8c:	ffffffff ffffffff ffffffff ffffffff     ................
  408e9c:	ffffffff 00ffffff 00000000 00000000     ................
  408eac:	ff000000 ffffffff ffffffff ffffffff     ................
  408ebc:	ffffffff ffffffff ffffffff 0000ffff     ................
	...
  408ed4:	ffff0000 ffffffff ffffffff ffffffff     ................
  408ee4:	ffffffff ffffffff ffffffff ffffffff     ................
  408ef4:	ffffffff ffffffff ffffffff ffffffff     ................
  408f04:	ffffffff ffffffff ffffffff ffffffff     ................
  408f14:	ffffffff 00ffffff 00000000 00000000     ................
	...
  408f2c:	ffffff00 ffffffff ffffffff ffffffff     ................
  408f3c:	ffffffff 0000ffff 00000000 00000000     ................
	...
  408f54:	ffffffff ffffffff 000000ff 00000000     ................
  408f64:	00000000 ffffff00 ffffffff ffffffff     ................
  408f74:	ffffffff 00ffffff 00000000 00000000     ................
  408f84:	ff000000 ffffffff ffffffff ffffffff     ................
  408f94:	ffffffff ffffffff ffffffff ffffffff     ................
  408fa4:	ffffffff ffffffff ffffffff 000000ff     ................
	...
  408fbc:	ffffff00 ffffffff ffffffff ffffffff     ................
  408fcc:	ffffffff ffffffff ffffffff 00000000     ................
	...
  408fe4:	ff000000 ffffffff ffffffff ffffffff     ................
  408ff4:	ffffffff ffffffff ffffffff ffffffff     ................
  409004:	ffffffff ffffffff ffffffff ffffffff     ................
  409014:	ffffffff ffffffff ffffffff ffffffff     ................
  409024:	0000ffff 00000000 00000000 00000000     ................
  409034:	00000000 ffffffff ffffffff ffffffff     ................
  409044:	ffffffff ffffffff ffffffff 00ffffff     ................
	...
  409064:	ffffff00 00ffffff 00000000 00000000     ................
  409074:	ff000000 ffffffff ffffffff ffffffff     ................
  409084:	ffffffff 000000ff 00000000 00000000     ................
  409094:	00000000 ff000000 ffffffff ffffffff     ................
  4090a4:	ffffffff ffffffff ffffffff ffffffff     ................
  4090b4:	ffffffff ffffffff 00000000 00000000     ................
  4090c4:	00000000 ff000000 ffffffff ffffffff     ................
  4090d4:	ffffffff ffffffff ffffffff ffffffff     ................
  4090e4:	ffffffff 000000ff 00000000 00000000     ................
  4090f4:	ffffff00 ffffffff ffffffff ffffffff     ................
  409104:	ffffffff ffffffff ffffffff ffffffff     ................
  409114:	ffffffff ffffffff ffffffff ffffffff     ................
  409124:	ffffffff ffffffff ffffffff 000000ff     ................
	...
  409140:	ff000000 ffffffff ffffffff ffffffff     ................
  409150:	ffffffff ffffffff ffffffff ffffffff     ................
  409160:	ffffffff 00000000 00000000 00000000     ................
	...
  409184:	ffffff00 ffffffff ffffffff ffffffff     ................
  409194:	00ffffff 00000000 00000000 00000000     ................
	...
  4091ac:	ffffffff ffffffff ffffffff ffffffff     ................
  4091bc:	ffffffff ffffffff 00ffffff 00000000     ................
	...
  4091d4:	ffff0000 ffffffff ffffffff ffffffff     ................
  4091e4:	ffffffff ffffffff ffffffff ffffffff     ................
  4091f4:	00ffffff 00000000 00000000 ff000000     ................
  409204:	ffffffff ffffffff ffffffff ffffffff     ................
  409214:	ffffffff ffffffff ffffffff ffffffff     ................
  409224:	ffffffff ffffffff ffffffff ffffffff     ................
  409234:	ffffffff ffffffff 00000000 00000000     ................
	...
  40924c:	ffff0000 ffffffff ffffffff ffffffff     ................
  40925c:	ffffffff ffffffff ffffffff ffffffff     ................
  40926c:	ffffffff ffffffff 000000ff 00000000     ................
	...
  409290:	ff000000 ffffffff ffffffff ffffffff     ................
  4092a0:	ffffffff 000000ff 00000000 00000000     ................
	...
  4092c0:	ffffffff ffffffff ffffffff ffffffff     ................
  4092d0:	0000ffff 00000000 00000000 00000000     ................
  4092e0:	00000000 ffffffff ffffffff ffffffff     ................
  4092f0:	ffffffff ffffffff ffffffff ffffffff     ................
  409300:	ffffffff 000000ff 00000000 00000000     ................
  409310:	ffffff00 ffffffff ffffffff ffffffff     ................
  409320:	ffffffff ffffffff ffffffff ffffffff     ................
  409330:	ffffffff ffffffff ffffffff ffffffff     ................
  409340:	ffffffff 00ffffff 00000000 00000000     ................
	...
  409358:	ffffff00 ffffffff ffffffff ffffffff     ................
  409368:	ffffffff ffffffff ffffffff ffffffff     ................
  409378:	ffffffff ffffffff ffffffff 0000ffff     ................
	...
  40939c:	ffff0000 ffffffff ffffffff ffffffff     ................
  4093ac:	ffffffff 00ffffff 00000000 00000000     ................
	...
  4093d4:	ffffffff ffffffff 000000ff 00000000     ................
	...
  4093ec:	ff000000 ffffffff ffffffff ffffffff     ................
  4093fc:	ffffffff ffffffff ffffffff ffffffff     ................
  40940c:	ffffffff 00ffffff 00000000 00000000     ................
  40941c:	ff000000 ffffffff ffffffff ffffffff     ................
  40942c:	ffffffff ffffffff ffffffff ffffffff     ................
  40943c:	ffffffff ffffffff ffffffff ffffffff     ................
  40944c:	ffffffff 0000ffff 00000000 00000000     ................
	...
  409464:	ffffffff ffffffff ffffffff ffffffff     ................
  409474:	ffffffff ffffffff ffffffff ffffffff     ................
  409484:	ffffffff ffffffff ffffffff ffffffff     ................
  409494:	00ffffff 00000000 00000000 00000000     ................
	...
  4094ac:	ffffffff ffffffff ffffffff ffffffff     ................
  4094bc:	ffffffff 000000ff 00000000 00000000     ................
	...
  4094f8:	ffff0000 ffffffff ffffffff ffffffff     ................
  409508:	ffffffff ffffffff ffffffff ffffffff     ................
  409518:	ffffffff ffffffff 000000ff 00000000     ................
  409528:	00000000 ffffff00 ffffffff ffffffff     ................
  409538:	ffffffff ffffffff ffffffff ffffffff     ................
  409548:	ffffffff ffffffff ffffffff ffffffff     ................
  409558:	ffffffff 000000ff 00000000 00000000     ................
  409568:	00000000 ff000000 ffffffff ffffffff     ................
  409578:	ffffffff ffffffff ffffffff ffffffff     ................
  409588:	ffffffff ffffffff ffffffff ffffffff     ................
  409598:	ffffffff ffffffff ffffffff ffffffff     ................
	...
  4095b8:	ffff0000 ffffffff ffffffff ffffffff     ................
  4095c8:	ffffffff 00ffffff 00000000 00000000     ................
  4095d8:	00000000 ffff0000 000000ff 00000000     ................
	...
  409604:	ffffff00 ffffffff ffffffff ffffffff     ................
  409614:	ffffffff ffffffff ffffffff ffffffff     ................
  409624:	ffffffff ffffffff 00ffffff 00000000     ................
	...
  40963c:	ffff0000 ffffffff ffffffff ffffffff     ................
  40964c:	ffffffff ffffffff ffffffff ffffffff     ................
  40965c:	ffffffff ffffffff ffffffff 00000000     ................
	...
  409678:	ffff0000 ffffffff ffffffff ffffffff     ................
  409688:	ffffffff 00ffffff 00000000 00000000     ................
  409698:	ff000000 ffffffff ffffffff ffffffff     ................
  4096a8:	ffffffff ffffffff ffffffff 0000ffff     ................
	...
  4096c8:	ffffffff ffffffff ffffffff ffffffff     ................
  4096d8:	ffffffff 000000ff 00000000 00000000     ................
  4096e8:	00000000 ffffffff ffffffff 000000ff     ................
	...
  409710:	ffffffff ffffffff ffffffff ffffffff     ................
  409720:	ffffffff ffffffff ffffffff ffffffff     ................
  409730:	ffffffff ffffffff ffffffff 000000ff     ................
	...
  40974c:	ff000000 ffffffff ffffffff ffffffff     ................
  40975c:	ffffffff ffffffff ffffffff ffffffff     ................
  40976c:	ffffffff 00ffffff 00000000 00000000     ................
	...
  409784:	ffffff00 ffffffff ffffffff ffffffff     ................
  409794:	ffffffff 0000ffff 00000000 00000000     ................
  4097a4:	00000000 ffffff00 ffffffff ffffffff     ................
  4097b4:	ffffffff ffffffff ffffffff 000000ff     ................
	...
  4097d0:	ff000000 ffffffff ffffffff ffffffff     ................
  4097e0:	ffffffff ffffffff ffffffff 0000ffff     ................
	...
  4097fc:	ffffff00 ffffffff ffffffff 000000ff     ................
	...
  409818:	ffffffff ffffffff ffffffff ffffffff     ................
  409828:	ffffffff ffffffff ffffffff ffffffff     ................
  409838:	ffffffff ffffffff ffffffff ffffffff     ................
  409848:	ffffffff 0000ffff 00000000 00000000     ................
	...
  409860:	ffffffff ffffffff ffffffff ffffffff     ................
  409870:	ffffffff ffffffff ffffffff 0000ffff     ................
	...
  409890:	ffffffff ffffffff ffffffff ffffffff     ................
  4098a0:	ffffffff 000000ff 00000000 00000000     ................
  4098b0:	00000000 ff000000 ffffffff ffffffff     ................
  4098c0:	ffffffff ffffffff ffffffff 00000000     ................
	...
  4098dc:	ffff0000 ffffffff ffffffff ffffffff     ................
  4098ec:	ffffffff ffffffff ffffffff ffffffff     ................
  4098fc:	00ffffff 00000000 00000000 00000000     ................
  40990c:	ffff0000 ffffffff ffffffff ffffffff     ................
  40991c:	ffffffff ffffffff ffffffff ffffffff     ................
  40992c:	ffffffff ffffffff ffffffff ffffffff     ................
  40993c:	ffffffff ffffffff ffffffff ffffffff     ................
  40994c:	ffffffff ffffffff ffffffff ffffffff     ................
  40995c:	00ffffff 00000000 00000000 00000000     ................
  40996c:	00000000 ffffff00 ffffffff ffffffff     ................
  40997c:	ffffffff ffffffff ffffffff 000000ff     ................
	...
  409998:	ff000000 ffffffff ffffffff ffffffff     ................
  4099a8:	ffffffff ffffffff 00000000 00000000     ................
	...
  4099c0:	ffff0000 ffffffff ffffffff ffffffff     ................
  4099d0:	ffffffff 00ffffff 00000000 00000000     ................
	...
  4099e8:	ffffff00 ffffffff ffffffff ffffffff     ................
  4099f8:	ffffffff ffffffff ffffffff ffffffff     ................
  409a08:	ffffffff ffffffff 00000000 00000000     ................
  409a18:	00000000 ff000000 ffffffff ffffffff     ................
  409a28:	ffffffff ffffffff ffffffff ffffffff     ................
  409a38:	ffffffff ffffffff ffffffff ffffffff     ................
  409a48:	ffffffff ffffffff ffffffff ffffffff     ................
  409a58:	ffffffff ffffffff ffffffff ffffffff     ................
  409a68:	ffffffff ffffffff 00000000 00000000     ................
	...
  409a80:	ffff0000 ffffffff ffffffff ffffffff     ................
  409a90:	ffffffff 00000000 00000000 00000000     ................
  409aa0:	00000000 ffff0000 ffffffff ffffffff     ................
  409ab0:	ffffffff ffffffff 00ffffff 00000000     ................
	...
  409acc:	ffffff00 ffffffff ffffffff ffffffff     ................
  409adc:	ffffffff 0000ffff 00000000 00000000     ................
	...
  409af4:	ffffffff ffffffff ffffffff ffffffff     ................
  409b04:	ffffffff ffffffff ffffffff ffffffff     ................
  409b14:	ffffffff ffffffff 0000ffff 00000000     ................
	...
  409b30:	ffffffff ffffffff ffffffff ffffffff     ................
  409b40:	ffffffff ffffffff ffffffff ffffffff     ................
  409b50:	ffffffff ffffffff ffffffff ffffffff     ................
  409b60:	ffffffff ffffffff 000000ff 00000000     ................
  409b70:	ffff0000 ffffffff ffffffff ffffffff     ................
  409b80:	000000ff 00000000 00000000 00000000     ................
  409b90:	ff000000 ffffffff ffffffff 00ffffff     ................
	...
  409bb0:	ffffff00 ffffffff ffffffff ffffffff     ................
  409bc0:	ffffffff 0000ffff 00000000 00000000     ................
	...
  409bd8:	ffffffff ffffffff ffffffff ffffffff     ................
  409be8:	ffffffff 000000ff 00000000 00000000     ................
  409bf8:	00000000 ff000000 ffffffff ffffffff     ................
  409c08:	ffffffff ffffffff ffffffff ffffffff     ................
  409c18:	ffffffff ffffffff ffffffff ffffffff     ................
  409c28:	ffffffff 00ffffff 00000000 00000000     ................
  409c38:	00000000 ffff0000 ffffffff ffffffff     ................
  409c48:	ffffffff ffffffff ffffffff ffffffff     ................
  409c58:	ffffffff ffffffff ffffffff ffffffff     ................
  409c68:	ffffffff ffffffff ffffffff 00000000     ................
	...
  409c80:	ff000000 ffffffff ffffffff ffffffff     ................
  409c90:	0000ffff 00000000 00000000 00000000     ................
  409ca0:	00000000 ffffffff 0000ffff 00000000     ................
	...
  409cbc:	ffffffff ffffffff ffffffff ffffffff     ................
  409ccc:	ffffffff 000000ff 00000000 00000000     ................
  409cdc:	00000000 ff000000 ffffffff ffffffff     ................
  409cec:	ffffffff ffffffff ffffffff 00000000     ................
	...
  409d08:	ffff0000 ffffffff ffffffff ffffffff     ................
  409d18:	ffffffff ffffffff ffffffff ffffffff     ................
  409d28:	ffffffff ffffffff ffffffff ffffffff     ................
  409d38:	ffffffff ffffffff 00000000 00000000     ................
  409d48:	00000000 ff000000 ffffffff ffffffff     ................
  409d58:	ffffffff ffffffff ffffffff ffffffff     ................
  409d68:	ffffffff ffffffff ffffffff ffffffff     ................
  409d78:	ffffffff ffffffff 0000ffff 00000000     ................
	...
  409d94:	ffffffff ffffffff ffffffff 00ffffff     ................
	...
  409dc4:	ff000000 ffffffff ffffffff ffffffff     ................
  409dd4:	ffffffff ffffffff 00000000 00000000     ................
	...
  409dec:	ffff0000 ffffffff ffffffff ffffffff     ................
  409dfc:	ffffffff 00ffffff 00000000 00000000     ................
	...
  409e14:	ffffff00 ffffffff ffffffff ffffffff     ................
  409e24:	ffffffff ffffffff ffffffff ffffffff     ................
  409e34:	ffffffff ffffffff ffffffff ffffffff     ................
  409e44:	ffffffff ffffffff ffffffff 000000ff     ................
	...
  409e60:	ffffffff ffffffff ffffffff ffffffff     ................
  409e70:	ffffffff ffffffff ffffffff ffffffff     ................
  409e80:	ffffffff ffffffff ffffffff ffffffff     ................
  409e90:	00ffffff 00000000 00000000 00000000     ................
  409ea0:	00000000 ffffff00 ffffffff ffffffff     ................
  409eb0:	ffffffff 00000000 00000000 00000000     ................
	...
  409ed0:	ffff0000 ffffffff ffffffff ffffffff     ................
  409ee0:	ffffffff 00ffffff 00000000 00000000     ................
	...
  409ef8:	ffffff00 ffffffff ffffffff ffffffff     ................
  409f08:	ffffffff 0000ffff 00000000 00000000     ................
	...
  409f20:	ffffffff ffffffff ffffffff ffffffff     ................
  409f30:	ffffffff ffffffff ffffffff ffffffff     ................
  409f40:	ffffffff ffffffff ffffffff ffffffff     ................
  409f50:	ffffffff ffffffff ffffffff ffffffff     ................
  409f60:	0000ffff 00000000 00000000 00000000     ................
  409f70:	00000000 ffffffff ffffffff ffffffff     ................
  409f80:	ffffffff ffffffff ffffffff ffffffff     ................
  409f90:	ffffffff ffffffff ffffffff ffffffff     ................
  409fa0:	ffffffff 00000000 00000000 00000000     ................
  409fb0:	00000000 ffff0000 ffffffff ffffffff     ................
  409fc0:	ffffffff 000000ff 00000000 00000000     ................
	...
  409fdc:	ffffff00 ffffffff ffffffff ffffffff     ................
  409fec:	ffffffff 0000ffff 00000000 00000000     ................
	...
  40a004:	ffffffff ffffffff ffffffff ffffffff     ................
  40a014:	ffffffff 000000ff 00000000 00000000     ................
  40a024:	00000000 ff000000 ffffffff ffffffff     ................
  40a034:	ffffffff ffffffff ffffffff ffffffff     ................
  40a044:	ffffffff ffffffff ffffffff ffffffff     ................
  40a054:	ffffffff ffffffff ffffffff ffffffff     ................
  40a064:	ffffffff ffffffff ffffffff 00000000     ................
	...
  40a0a4:	ffff0000 ffffffff ffffffff ffffffff     ................
  40a0b4:	000000ff 00000000 00000000 00000000     ................
  40a0c4:	ff000000 ffffffff ffffffff ffffffff     ................
  40a0d4:	0000ffff 00000000 00000000 00000000     ................
  40a0e4:	00000000 ffffffff ffffffff ffffffff     ................
  40a0f4:	ffffffff ffffffff 000000ff 00000000     ................
	...
  40a10c:	ff000000 ffffffff ffffffff ffffffff     ................
  40a11c:	ffffffff ffffffff 00000000 00000000     ................
	...
  40a134:	ffff0000 ffffffff ffffffff ffffffff     ................
  40a144:	ffffffff ffffffff ffffffff ffffffff     ................
  40a154:	ffffffff ffffffff ffffffff ffffffff     ................
  40a164:	ffffffff ffffffff ffffffff ffffffff     ................
  40a174:	ffffffff ffffffff ffffffff 000000ff     ................
	...
  40a1b4:	ff000000 ffffffff ffffffff ffffffff     ................
  40a1c4:	0000ffff 00000000 00000000 00000000     ................
  40a1d4:	00000000 ffffffff ffffffff 000000ff     ................
	...
  40a1f0:	ff000000 ffffffff ffffffff ffffffff     ................
  40a200:	ffffffff ffffffff 00000000 00000000     ................
	...
  40a218:	ffff0000 ffffffff ffffffff ffffffff     ................
  40a228:	ffffffff 00ffffff 00000000 00000000     ................
	...
  40a240:	ffffff00 ffffffff ffffffff ffffffff     ................
  40a250:	ffffffff ffffffff ffffffff ffffffff     ................
  40a260:	ffffffff ffffffff ffffffff ffffffff     ................
  40a270:	ffffffff ffffffff ffffffff ffffffff     ................
  40a280:	ffffffff ffffffff ffffffff ffffffff     ................
  40a290:	0000ffff 00000000 00000000 00000000     ................
	...
  40a2c8:	ffffffff ffffffff ffffffff 00ffffff     ................
	...
  40a2e8:	ffffff00 00000000 00000000 00000000     ................
  40a2f8:	00000000 ffff0000 ffffffff ffffffff     ................
  40a308:	ffffffff ffffffff 00ffffff 00000000     ................
	...
  40a324:	ffffff00 ffffffff ffffffff ffffffff     ................
  40a334:	ffffffff 0000ffff 00000000 00000000     ................
	...
  40a34c:	ffffffff ffffffff ffffffff ffffffff     ................
  40a35c:	ffffffff ffffffff ffffffff ffffffff     ................
  40a36c:	ffffffff ffffffff ffffffff ffffffff     ................
  40a37c:	ffffffff ffffffff ffffffff ffffffff     ................
  40a38c:	ffffffff ffffffff ffffffff ffffffff     ................
  40a39c:	ffffffff ffffffff 0000ffff 00000000     ................
	...
  40a3d8:	ffffff00 ffffffff ffffffff ffffffff     ................
	...
  40a408:	ffffff00 ffffffff ffffffff ffffffff     ................
  40a418:	ffffffff 0000ffff 00000000 00000000     ................
	...
  40a430:	ffffffff ffffffff ffffffff ffffffff     ................
  40a440:	ffffffff 000000ff 00000000 00000000     ................
  40a450:	00000000 ff000000 ffffffff ffffffff     ................
  40a460:	ffffffff ffffffff ffffffff ffffffff     ................
  40a470:	ffffffff ffffffff ffffffff ffffffff     ................
  40a480:	ffffffff ffffffff ffffffff ffffffff     ................
  40a490:	ffffffff ffffffff ffffffff ffffffff     ................
  40a4a0:	ffffffff ffffffff ffffffff ffffffff     ................
  40a4b0:	ffffffff ffffffff ffffffff ffffffff     ................
  40a4c0:	ffffffff ffffffff ffffffff ffffffff     ................
  40a4d0:	ffffffff ffffffff 00000000 00000000     ................
	...
  40a4e8:	ffff0000 ffffffff ffffffff ffffffff     ................
  40a4f8:	000000ff 00000000 00000000 00000000     ................
	...
  40a514:	ffffffff ffffffff ffffffff ffffffff     ................
  40a524:	ffffffff 000000ff 00000000 00000000     ................
  40a534:	00000000 ff000000 ffffffff ffffffff     ................
  40a544:	ffffffff ffffffff ffffffff 00000000     ................
	...
  40a560:	ffff0000 ffffffff ffffffff ffffffff     ................
  40a570:	ffffffff ffffffff ffffffff ffffffff     ................
  40a580:	ffffffff ffffffff ffffffff ffffffff     ................
  40a590:	ffffffff ffffffff ffffffff ffffffff     ................
  40a5a0:	ffffffff ffffffff ffffffff ffffffff     ................
  40a5b0:	ffffffff ffffffff ffffffff ffffffff     ................
  40a5c0:	ffffffff ffffffff ffffffff ffffffff     ................
  40a5d0:	ffffffff ffffffff ffffffff ffffffff     ................
  40a5e0:	ffffffff ffffffff 000000ff 00000000     ................
	...
  40a5f8:	ff000000 ffffffff ffffffff ffffffff     ................
  40a608:	0000ffff 00000000 00000000 00000000     ................
  40a618:	00000000 ff000000 ffffffff ffffffff     ................
  40a628:	ffffffff ffffffff ffffffff 00000000     ................
	...
  40a644:	ffff0000 ffffffff ffffffff ffffffff     ................
  40a654:	ffffffff 00ffffff 00000000 00000000     ................
	...
  40a66c:	ffffff00 ffffffff ffffffff ffffffff     ................
  40a67c:	ffffffff ffffffff ffffffff ffffffff     ................
  40a68c:	ffffffff ffffffff ffffffff ffffffff     ................
  40a69c:	ffffffff ffffffff ffffffff ffffffff     ................
  40a6ac:	ffffffff ffffffff ffffffff ffffffff     ................
  40a6bc:	ffffffff ffffffff ffffffff ffffffff     ................
  40a6cc:	ffffffff ffffffff ffffffff ffffffff     ................
  40a6dc:	ffffffff ffffffff ffffffff ffffffff     ................
  40a6ec:	ffffffff ffffffff ffffffff 0000ffff     ................
	...
  40a70c:	ffffffff ffffffff ffffffff 00000000     ................
	...
  40a728:	ffff0000 ffffffff ffffffff ffffffff     ................
  40a738:	ffffffff 00ffffff 00000000 00000000     ................
	...
  40a750:	ffffff00 ffffffff ffffffff ffffffff     ................
  40a760:	ffffffff 0000ffff 00000000 00000000     ................
	...
  40a778:	ffffffff ffffffff ffffffff ffffffff     ................
  40a788:	ffffffff ffffffff ffffffff ffffffff     ................
  40a798:	ffffffff ffffffff ffffffff ffffffff     ................
  40a7a8:	ffffffff ffffffff ffffffff ffffffff     ................
  40a7b8:	ffffffff ffffffff ffffffff ffffffff     ................
  40a7c8:	ffffffff ffffffff ffffffff ffffffff     ................
  40a7d8:	ffffffff ffffffff ffffffff ffffffff     ................
  40a7e8:	ffffffff ffffffff ffffffff ffffffff     ................
  40a7f8:	ffffffff ffffffff ffffffff ffffffff     ................
  40a808:	00ffffff 00000000 00000000 00000000     ................
  40a818:	00000000 ffffff00 00ffffff 00000000     ................
	...
  40a834:	ffffff00 ffffffff ffffffff ffffffff     ................
  40a844:	ffffffff 0000ffff 00000000 00000000     ................
	...
  40a85c:	ffffffff ffffffff ffffffff ffffffff     ................
  40a86c:	ffffffff 000000ff 00000000 00000000     ................
  40a87c:	00000000 ff000000 ffffffff ffffffff     ................
  40a88c:	ffffffff ffffffff ffffffff ffffffff     ................
  40a89c:	ffffffff ffffffff ffffffff ffffffff     ................
  40a8ac:	ffffffff ffffffff ffffffff ffffffff     ................
  40a8bc:	ffffffff ffffffff ffffffff ffffffff     ................
  40a8cc:	ffffffff ffffffff ffffffff ffffffff     ................
  40a8dc:	ffffffff ffffffff ffffffff ffffffff     ................
  40a8ec:	ffffffff ffffffff ffffffff ffffffff     ................
  40a8fc:	ffffffff ffffffff ffffffff ffffffff     ................
  40a90c:	ffffffff ffffffff ffffffff ffffffff     ................
	...
  40a940:	ffffffff ffffffff ffffffff ffffffff     ................
  40a950:	ffffffff 000000ff 00000000 00000000     ................
  40a960:	00000000 ff000000 ffffffff ffffffff     ................
  40a970:	ffffffff ffffffff ffffffff 00000000     ................
	...
  40a98c:	ffff0000 ffffffff ffffffff ffffffff     ................
  40a99c:	ffffffff ffffffff ffffffff ffffffff     ................
  40a9ac:	ffffffff ffffffff ffffffff ffffffff     ................
  40a9bc:	ffffffff ffffffff ffffffff ffffffff     ................
  40a9cc:	ffffffff ffffffff ffffffff ffffffff     ................
  40a9dc:	ffffffff ffffffff ffffffff ffffffff     ................
  40a9ec:	ffffffff ffffffff ffffffff ffffffff     ................
  40a9fc:	ffffffff ffffffff ffffffff ffffffff     ................
  40aa0c:	ffffffff ffffffff ffffffff ffffffff     ................
  40aa1c:	ffffffff ffffffff ffffffff ffffffff     ................
  40aa2c:	000000ff 00000000 00000000 00000000     ................
	...
  40aa48:	ff000000 ffffffff ffffffff ffffffff     ................
  40aa58:	ffffffff ffffffff 00000000 00000000     ................
	...
  40aa70:	ffff0000 ffffffff ffffffff ffffffff     ................
  40aa80:	ffffffff 00ffffff 00000000 00000000     ................
	...
  40aa98:	ffffff00 ffffffff ffffffff ffffffff     ................
  40aaa8:	ffffffff ffffffff ffffffff ffffffff     ................
  40aab8:	ffffffff ffffffff ffffffff ffffffff     ................
  40aac8:	ffffffff ffffffff ffffffff ffffffff     ................
  40aad8:	ffffffff ffffffff ffffffff ffffffff     ................
  40aae8:	ffffffff ffffffff ffffffff ffffffff     ................
  40aaf8:	ffffffff ffffffff ffffffff ffffffff     ................
  40ab08:	ffffffff ffffffff ffffffff ffffffff     ................
  40ab18:	ffffffff ffffffff ffffffff ffffffff     ................
  40ab28:	ffffffff ffffffff ffffffff ffffffff     ................
  40ab38:	ffffffff 0000ffff 00000000 00000000     ................
	...
  40ab54:	ffff0000 ffffffff ffffffff ffffffff     ................
  40ab64:	ffffffff 00ffffff 00000000 00000000     ................
	...
  40ab7c:	ffffff00 ffffffff ffffffff ffffffff     ................
  40ab8c:	ffffffff 0000ffff 00000000 00000000     ................
	...
  40aba4:	ffffffff ffffffff ffffffff ffffffff     ................
  40abb4:	ffffffff ffffffff ffffffff ffffffff     ................
  40abc4:	ffffffff ffffffff ffffffff ffffffff     ................
  40abd4:	ffffffff ffffffff ffffffff ffffffff     ................
  40abe4:	ffffffff ffffffff ffffffff ffffffff     ................
  40abf4:	ffffffff ffffffff ffffffff ffffffff     ................
  40ac04:	ffffffff ffffffff ffffffff ffffffff     ................
  40ac14:	ffffffff ffffffff ffffffff ffffffff     ................
  40ac24:	ffffffff ffffffff ffffffff ffffffff     ................
  40ac34:	ffffffff ffffffff ffffffff ffffffff     ................
  40ac44:	ffffffff ffffffff 00ffffff 00000000     ................
	...
  40ac60:	ffffff00 ffffffff ffffffff ffffffff     ................
  40ac70:	ffffffff 0000ffff 00000000 00000000     ................
	...
  40ac88:	ffffffff ffffffff ffffffff ffffffff     ................
  40ac98:	ffffffff 000000ff 00000000 00000000     ................
  40aca8:	00000000 ff000000 ffffffff ffffffff     ................
  40acb8:	ffffffff ffffffff ffffffff ffffffff     ................
  40acc8:	ffffffff ffffffff ffffffff ffffffff     ................
  40acd8:	ffffffff ffffffff ffffffff ffffffff     ................
  40ace8:	ffffffff ffffffff ffffffff ffffffff     ................
  40acf8:	ffffffff ffffffff ffffffff ffffffff     ................
  40ad08:	ffffffff ffffffff ffffffff ffffffff     ................
  40ad18:	ffffffff ffffffff ffffffff ffffffff     ................
  40ad28:	ffffffff ffffffff ffffffff ffffffff     ................
  40ad38:	ffffffff ffffffff ffffffff ffffffff     ................
  40ad48:	ffffffff ffffffff ffffffff ffffffff     ................
  40ad58:	0000ffff 00000000 00000000 00000000     ................
  40ad68:	00000000 ffffffff ffffffff ffffffff     ................
  40ad78:	ffffffff ffffffff 000000ff 00000000     ................
	...
  40ad90:	ff000000 ffffffff ffffffff ffffffff     ................
  40ada0:	ffffffff ffffffff 00000000 00000000     ................
	...
  40adb8:	ffff0000 ffffffff ffffffff ffffffff     ................
  40adc8:	ffffffff ffffffff ffffffff ffffffff     ................
  40add8:	ffffffff ffffffff ffffffff ffffffff     ................
  40ade8:	ffffffff ffffffff ffffffff ffffffff     ................
  40adf8:	ffffffff ffffffff ffffffff ffffffff     ................
  40ae08:	ffffffff ffffffff ffffffff ffffffff     ................
  40ae18:	ffffffff ffffffff ffffffff ffffffff     ................
  40ae28:	ffffffff ffffffff ffffffff ffffffff     ................
  40ae38:	ffffffff ffffffff ffffffff ffffffff     ................
  40ae48:	ffffffff ffffffff ffffffff ffffffff     ................
  40ae58:	ffffffff ffffffff ffffffff 000000ff     ................
	...
  40ae74:	ff000000 ffffffff ffffffff ffffffff     ................
  40ae84:	ffffffff ffffffff 00000000 00000000     ................
	...
  40ae9c:	ffff0000 ffffffff ffffffff ffffffff     ................
  40aeac:	ffffffff 00ffffff 00000000 00000000     ................
	...
  40aec4:	ffffff00 ffffffff ffffffff ffffffff     ................
  40aed4:	ffffffff ffffffff ffffffff ffffffff     ................
  40aee4:	ffffffff ffffffff ffffffff ffffffff     ................
  40aef4:	ffffffff ffffffff ffffffff ffffffff     ................
  40af04:	ffffffff ffffffff ffffffff ffffffff     ................
  40af14:	ffffffff ffffffff ffffffff ffffffff     ................
  40af24:	ffffffff ffffffff ffffffff ffffffff     ................
  40af34:	ffffffff ffffffff ffffffff ffffffff     ................
  40af44:	ffffffff ffffffff ffffffff ffffffff     ................
  40af54:	ffffffff ffffffff ffffffff ffffffff     ................
  40af64:	ffffffff ffffffff ffffffff 00000000     ................
	...
  40af80:	ffff0000 ffffffff ffffffff ffffffff     ................
  40af90:	ffffffff 00ffffff 00000000 00000000     ................
	...
  40afa8:	ffffff00 ffffffff ffffffff ffffffff     ................
  40afb8:	ffffffff 0000ffff 00000000 00000000     ................
	...
  40afd4:	ffff0000 ffffffff ffffffff ffffffff     ................
  40afe4:	ffffffff ffffffff ffffffff ffffffff     ................
  40aff4:	ffffffff ffffffff ffffffff ffffffff     ................
  40b004:	ffffffff ffffffff ffffffff ffffffff     ................
  40b014:	ffffffff ffffffff ffffffff ffffffff     ................
  40b024:	ffffffff ffffffff ffffffff ffffffff     ................
  40b034:	ffffffff ffffffff ffffffff ffffffff     ................
  40b044:	ffffffff ffffffff ffffffff ffffffff     ................
  40b054:	ffffffff ffffffff ffffffff ffffffff     ................
  40b064:	ffffffff ffffffff ffffffff ffffffff     ................
  40b074:	ffffffff 00ffffff 00000000 00000000     ................
	...
  40b08c:	ffffff00 ffffffff ffffffff ffffffff     ................
  40b09c:	ffffffff 0000ffff 00000000 00000000     ................
	...
  40b0b4:	ffffffff ffffffff ffffffff ffffffff     ................
  40b0c4:	ffffffff 000000ff 00000000 00000000     ................
	...
  40b0e4:	ff000000 ffffffff ffffffff ffffffff     ................
  40b0f4:	ffffffff ffffffff ffffffff ffffffff     ................
  40b104:	ffffffff ffffffff ffffffff ffffffff     ................
  40b114:	ffffffff ffffffff ffffffff ffffffff     ................
  40b124:	ffffffff ffffffff ffffffff ffffffff     ................
  40b134:	ffffffff ffffffff ffffffff ffffffff     ................
  40b144:	ffffffff ffffffff ffffffff ffffffff     ................
  40b154:	ffffffff ffffffff ffffffff ffffffff     ................
  40b164:	ffffffff ffffffff ffffffff ffffffff     ................
  40b174:	ffffffff ffffffff ffffffff ffffffff     ................
  40b184:	0000ffff 00000000 00000000 00000000     ................
  40b194:	00000000 ffffffff ffffffff ffffffff     ................
  40b1a4:	ffffffff ffffffff 000000ff 00000000     ................
	...
  40b1bc:	ff000000 ffffffff ffffffff ffffffff     ................
  40b1cc:	ffffffff ffffffff 00000000 00000000     ................
	...
  40b1f8:	ffffffff ffffffff ffffffff ffffffff     ................
  40b208:	ffffffff ffffffff ffffffff ffffffff     ................
  40b218:	ffffffff ffffffff ffffffff ffffffff     ................
  40b228:	ffffffff ffffffff ffffffff ffffffff     ................
  40b238:	ffffffff ffffffff ffffffff ffffffff     ................
  40b248:	ffffffff ffffffff ffffffff ffffffff     ................
  40b258:	ffffffff ffffffff ffffffff ffffffff     ................
  40b268:	ffffffff ffffffff ffffffff ffffffff     ................
  40b278:	ffffffff ffffffff ffffffff ffffffff     ................
  40b288:	ffffffff ffffffff 000000ff 00000000     ................
	...
  40b2a0:	ff000000 ffffffff ffffffff ffffffff     ................
  40b2b0:	ffffffff ffffffff 00000000 00000000     ................
	...
  40b2c8:	ffff0000 ffffffff ffffffff ffffffff     ................
  40b2d8:	ffffffff 00ffffff 00000000 00000000     ................
	...
  40b2f0:	ffffff00 00ffffff 00000000 00000000     ................
	...
  40b308:	ffffff00 ffffffff ffffffff ffffffff     ................
  40b318:	ffffffff ffffffff ffffffff ffffffff     ................
  40b328:	ffffffff ffffffff ffffffff ffffffff     ................
  40b338:	ffffffff ffffffff ffffffff ffffffff     ................
  40b348:	ffffffff ffffffff ffffffff ffffffff     ................
  40b358:	ffffffff ffffffff ffffffff ffffffff     ................
  40b368:	ffffffff ffffffff ffffffff ffffffff     ................
  40b378:	ffffffff ffffffff ffffffff ffffffff     ................
  40b388:	ffffffff ffffffff ffffffff ffffffff     ................
  40b398:	ffffffff 00000000 00000000 00000000     ................
  40b3a8:	00000000 ffff0000 ffffffff ffffffff     ................
  40b3b8:	ffffffff ffffffff 00ffffff 00000000     ................
	...
  40b3d4:	ffffff00 ffffffff ffffffff ffffffff     ................
  40b3e4:	ffffffff 0000ffff 00000000 00000000     ................
	...
  40b3fc:	ffffffff ffffffff ffffffff 00000000     ................
	...
  40b418:	ffff0000 ffffffff ffffffff ffffffff     ................
  40b428:	ffffffff ffffffff ffffffff ffffffff     ................
  40b438:	ffffffff ffffffff ffffffff ffffffff     ................
  40b448:	ffffffff ffffffff ffffffff ffffffff     ................
  40b458:	ffffffff ffffffff ffffffff ffffffff     ................
  40b468:	ffffffff ffffffff ffffffff ffffffff     ................
  40b478:	ffffffff ffffffff ffffffff ffffffff     ................
  40b488:	ffffffff ffffffff ffffffff ffffffff     ................
  40b498:	ffffffff ffffffff ffffffff 00ffffff     ................
	...
  40b4b8:	ffffff00 ffffffff ffffffff ffffffff     ................
  40b4c8:	ffffffff 0000ffff 00000000 00000000     ................
	...
  40b4e0:	ffffffff ffffffff ffffffff ffffffff     ................
  40b4f0:	ffffffff 000000ff 00000000 00000000     ................
	...
  40b508:	ffff0000 ffffffff ffffffff ffffffff     ................
  40b518:	000000ff 00000000 00000000 00000000     ................
  40b528:	ff000000 ffffffff ffffffff ffffffff     ................
  40b538:	ffffffff ffffffff ffffffff ffffffff     ................
  40b548:	ffffffff ffffffff ffffffff ffffffff     ................
  40b558:	ffffffff ffffffff ffffffff ffffffff     ................
  40b568:	ffffffff ffffffff ffffffff ffffffff     ................
  40b578:	ffffffff ffffffff ffffffff ffffffff     ................
  40b588:	ffffffff ffffffff ffffffff ffffffff     ................
  40b598:	ffffffff ffffffff ffffffff ffffffff     ................
  40b5a8:	ffffffff ffffffff 0000ffff 00000000     ................
	...
  40b5c4:	ffffffff ffffffff ffffffff ffffffff     ................
  40b5d4:	ffffffff 000000ff 00000000 00000000     ................
  40b5e4:	00000000 ff000000 ffffffff ffffffff     ................
  40b5f4:	ffffffff ffffffff ffffffff 00000000     ................
	...
  40b618:	ff000000 ffffffff ffffffff ffffffff     ................
  40b628:	0000ffff 00000000 00000000 00000000     ................
  40b638:	00000000 ffffffff ffffffff ffffffff     ................
  40b648:	ffffffff ffffffff ffffffff ffffffff     ................
  40b658:	ffffffff ffffffff ffffffff ffffffff     ................
  40b668:	ffffffff ffffffff ffffffff ffffffff     ................
  40b678:	ffffffff ffffffff ffffffff ffffffff     ................
  40b688:	ffffffff ffffffff ffffffff ffffffff     ................
  40b698:	ffffffff ffffffff ffffffff ffffffff     ................
  40b6a8:	ffffffff ffffffff ffffffff ffffffff     ................
  40b6b8:	ffffffff 000000ff 00000000 00000000     ................
  40b6c8:	00000000 ff000000 ffffffff ffffffff     ................
  40b6d8:	ffffffff ffffffff ffffffff 00000000     ................
	...
  40b6f4:	ffff0000 ffffffff ffffffff ffffffff     ................
  40b704:	ffffffff 00ffffff 00000000 00000000     ................
	...
  40b72c:	ffffffff ffffffff ffffffff 00ffffff     ................
	...
  40b754:	ffff0000 ffffffff ffffffff ffffffff     ................
  40b764:	ffffffff ffffffff ffffffff ffffffff     ................
  40b774:	ffffffff ffffffff ffffffff ffffffff     ................
  40b784:	ffffffff ffffffff ffffffff ffffffff     ................
  40b794:	ffffffff ffffffff ffffffff ffffffff     ................
  40b7a4:	ffffffff ffffffff ffffffff ffffffff     ................
  40b7b4:	ffffffff ffffffff ffffffff ffffffff     ................
  40b7c4:	ffffffff 00000000 00000000 00000000     ................
  40b7d4:	00000000 ffff0000 ffffffff ffffffff     ................
  40b7e4:	ffffffff ffffffff 00ffffff 00000000     ................
	...
  40b800:	ffffff00 ffffffff ffffffff ffffffff     ................
  40b810:	ffffffff 0000ffff 00000000 00000000     ................
	...
  40b828:	00ffffff 00000000 00000000 00000000     ................
  40b838:	00000000 ffffff00 ffffffff ffffffff     ................
  40b848:	ffffffff 00000000 00000000 00000000     ................
	...
  40b878:	ffffff00 ffffffff ffffffff ffffffff     ................
  40b888:	ffffffff ffffffff ffffffff ffffffff     ................
  40b898:	ffffffff ffffffff ffffffff ffffffff     ................
  40b8a8:	ffffffff ffffffff ffffffff ffffffff     ................
  40b8b8:	ffffffff ffffffff ffffffff ffffffff     ................
  40b8c8:	ffffffff ffffffff 00ffffff 00000000     ................
	...
  40b8e4:	ffffff00 ffffffff ffffffff ffffffff     ................
  40b8f4:	ffffffff 0000ffff 00000000 00000000     ................
	...
  40b90c:	ffffffff ffffffff ffffffff ffffffff     ................
  40b91c:	ffffffff 000000ff 00000000 00000000     ................
  40b92c:	00000000 ff000000 ffffffff ffffffff     ................
	...
  40b94c:	ffff0000 ffffffff ffffffff ffffffff     ................
  40b95c:	000000ff 00000000 00000000 00000000     ................
	...
  40b990:	ffffffff ffffffff ffffffff ffffffff     ................
  40b9a0:	ffffffff ffffffff ffffffff ffffffff     ................
  40b9b0:	ffffffff ffffffff ffffffff ffffffff     ................
  40b9c0:	ffffffff ffffffff ffffffff ffffffff     ................
  40b9d0:	ffffffff ffffffff ffffffff 0000ffff     ................
	...
  40b9f0:	ffffffff ffffffff ffffffff ffffffff     ................
  40ba00:	ffffffff 000000ff 00000000 00000000     ................
  40ba10:	00000000 ff000000 ffffffff ffffffff     ................
  40ba20:	ffffffff ffffffff ffffffff 00000000     ................
	...
  40ba3c:	ffff0000 ffffffff ffffffff ffffffff     ................
  40ba4c:	000000ff 00000000 00000000 00000000     ................
  40ba5c:	ff000000 ffffffff ffffffff ffffffff     ................
  40ba6c:	0000ffff 00000000 00000000 00000000     ................
	...
  40baa0:	ffffff00 ffffffff ffffffff ffffffff     ................
  40bab0:	ffffffff ffffffff ffffffff ffffffff     ................
  40bac0:	ffffffff ffffffff ffffffff ffffffff     ................
  40bad0:	ffffffff ffffffff ffffffff ffffffff     ................
  40bae0:	ffffffff ffffffff 000000ff 00000000     ................
	...
  40baf8:	ff000000 ffffffff ffffffff ffffffff     ................
  40bb08:	ffffffff ffffffff 00000000 00000000     ................
	...
  40bb20:	ffff0000 ffffffff ffffffff ffffffff     ................
  40bb30:	ffffffff 00ffffff 00000000 00000000     ................
	...
  40bb4c:	ff000000 ffffffff ffffffff ffffffff     ................
  40bb5c:	0000ffff 00000000 00000000 00000000     ................
  40bb6c:	00000000 ffffffff ffffffff ffffffff     ................
  40bb7c:	ffffffff ffffffff ffffffff 00ffffff     ................
	...
  40bbb0:	ffff0000 ffffffff ffffffff ffffffff     ................
  40bbc0:	ffffffff ffffffff ffffffff ffffffff     ................
  40bbd0:	ffffffff ffffffff ffffffff ffffffff     ................
  40bbe0:	ffffffff ffffffff ffffffff ffffffff     ................
  40bbf0:	ffffffff 00000000 00000000 00000000     ................
  40bc00:	00000000 ffff0000 ffffffff ffffffff     ................
  40bc10:	ffffffff ffffffff 00ffffff 00000000     ................
	...
  40bc2c:	ffffff00 ffffffff ffffffff ffffffff     ................
  40bc3c:	ffffffff 0000ffff 00000000 00000000     ................
	...
  40bc60:	ffffffff ffffffff ffffffff 00ffffff     ................
	...
  40bc80:	ffffff00 ffffffff ffffffff ffffffff     ................
  40bc90:	ffffffff ffffffff ffffffff ffffffff     ................
  40bca0:	ffffffff ffffffff ffffffff 0000ffff     ................
	...
  40bcc0:	ff000000 ffffffff ffffffff ffffffff     ................
  40bcd0:	ffffffff ffffffff ffffffff ffffffff     ................
  40bce0:	ffffffff ffffffff ffffffff ffffffff     ................
  40bcf0:	ffffffff ffffffff ffffffff 00ffffff     ................
	...
  40bd10:	ffffff00 ffffffff ffffffff ffffffff     ................
  40bd20:	ffffffff 0000ffff 00000000 00000000     ................
	...
  40bd38:	ffffffff ffffffff ffffffff ffffffff     ................
  40bd48:	ffffffff 000000ff 00000000 00000000     ................
	...
  40bd70:	ffffff00 ffffffff ffffffff ffffffff     ................
	...
  40bd8c:	ff000000 ffffffff ffffffff ffffffff     ................
  40bd9c:	ffffffff ffffffff ffffffff ffffffff     ................
  40bdac:	ffffffff ffffffff ffffffff ffffffff     ................
  40bdbc:	ffffffff 0000ffff 00000000 00000000     ................
	...
  40bdd4:	ffffffff ffffffff ffffffff ffffffff     ................
  40bde4:	ffffffff ffffffff ffffffff ffffffff     ................
  40bdf4:	ffffffff ffffffff ffffffff ffffffff     ................
  40be04:	ffffffff 0000ffff 00000000 00000000     ................
	...
  40be1c:	ffffffff ffffffff ffffffff ffffffff     ................
  40be2c:	ffffffff 000000ff 00000000 00000000     ................
  40be3c:	00000000 ff000000 ffffffff ffffffff     ................
  40be4c:	ffffffff ffffffff ffffffff 00000000     ................
	...
  40be68:	ffff0000 ffffffff 00000000 00000000     ................
	...
  40be80:	ffff0000 ffffffff ffffffff ffffffff     ................
  40be90:	000000ff 00000000 00000000 00000000     ................
  40bea0:	ffffffff ffffffff ffffffff ffffffff     ................
  40beb0:	ffffffff ffffffff ffffffff ffffffff     ................
  40bec0:	ffffffff ffffffff ffffffff ffffffff     ................
  40bed0:	00ffffff 00000000 00000000 00000000     ................
  40bee0:	ffff0000 ffffffff ffffffff ffffffff     ................
  40bef0:	ffffffff ffffffff ffffffff ffffffff     ................
  40bf00:	ffffffff ffffffff ffffffff ffffffff     ................
  40bf10:	ffffffff 000000ff 00000000 00000000     ................
  40bf20:	00000000 ff000000 ffffffff ffffffff     ................
  40bf30:	ffffffff ffffffff ffffffff 00000000     ................
	...
  40bf4c:	ffff0000 ffffffff ffffffff ffffffff     ................
  40bf5c:	ffffffff 00ffffff 00000000 00000000     ................
	...
  40bf74:	ffffff00 ffffffff ffffffff 000000ff     ................
	...
  40bf90:	ff000000 ffffffff ffffffff ffffffff     ................
  40bfa0:	0000ffff 00000000 ff000000 ffffffff     ................
  40bfb0:	ffffffff ffffffff ffffffff ffffffff     ................
  40bfc0:	ffffffff ffffffff ffffffff ffffffff     ................
  40bfd0:	ffffffff ffffffff ffffffff ffffffff     ................
  40bfe0:	ffffffff 00000000 00000000 00000000     ................
  40bff0:	ff000000 ffffffff ffffffff ffffffff     ................
  40c000:	ffffffff ffffffff ffffffff ffffffff     ................
  40c010:	ffffffff ffffffff ffffffff ffffffff     ................
	...
  40c030:	ffff0000 ffffffff ffffffff ffffffff     ................
  40c040:	ffffffff 00ffffff 00000000 00000000     ................
	...
  40c058:	ffffff00 ffffffff ffffffff ffffffff     ................
  40c068:	ffffffff 0000ffff 00000000 00000000     ................
	...
  40c080:	ffffffff ffffffff ffffffff ffffffff     ................
  40c090:	0000ffff 00000000 00000000 00000000     ................
  40c0a0:	00000000 ffffffff ffffffff ffffffff     ................
  40c0b0:	ffffffff ffffffff ffffffff ffffffff     ................
  40c0c0:	ffffffff ffffffff ffffffff ffffffff     ................
  40c0d0:	ffffffff ffffffff ffffffff ffffffff     ................
  40c0e0:	ffffffff ffffffff ffffffff ffffffff     ................
  40c0f0:	ffffffff 000000ff 00000000 00000000     ................
  40c100:	ffffff00 ffffffff ffffffff ffffffff     ................
  40c110:	ffffffff ffffffff ffffffff ffffffff     ................
  40c120:	ffffffff ffffffff 00ffffff 00000000     ................
	...
  40c13c:	ffffff00 ffffffff ffffffff ffffffff     ................
  40c14c:	ffffffff 0000ffff 00000000 00000000     ................
	...
  40c164:	ffffffff ffffffff ffffffff ffffffff     ................
  40c174:	ffffffff 000000ff 00000000 00000000     ................
  40c184:	00000000 ff000000 ffffffff ffffffff     ................
  40c194:	ffffffff ffffffff ffffffff 00ffffff     ................
	...
  40c1b4:	ffffff00 ffffffff ffffffff ffffffff     ................
  40c1c4:	ffffffff ffffffff ffffffff ffffffff     ................
  40c1d4:	ffffffff ffffffff ffffffff ffffffff     ................
  40c1e4:	ffffffff ffffffff ffffffff ffffffff     ................
  40c1f4:	ffffffff ffffffff ffffffff 00ffffff     ................
	...
  40c210:	ffff0000 ffffffff ffffffff ffffffff     ................
  40c220:	ffffffff ffffffff ffffffff ffffffff     ................
  40c230:	ffffffff 0000ffff 00000000 00000000     ................
	...
  40c248:	ffffffff ffffffff ffffffff ffffffff     ................
  40c258:	ffffffff 000000ff 00000000 00000000     ................
  40c268:	00000000 ff000000 ffffffff ffffffff     ................
  40c278:	ffffffff ffffffff ffffffff 00000000     ................
	...
  40c294:	ffff0000 ffffffff ffffffff ffffffff     ................
  40c2a4:	ffffffff ffffffff ffffffff ffffffff     ................
	...
  40c2c4:	ffff0000 ffffffff ffffffff ffffffff     ................
  40c2d4:	ffffffff ffffffff ffffffff ffffffff     ................
  40c2e4:	ffffffff ffffffff ffffffff ffffffff     ................
  40c2f4:	ffffffff ffffffff ffffffff ffffffff     ................
  40c304:	ffffffff ffffffff ffffffff ffffffff     ................
	...
  40c320:	ffffffff ffffffff ffffffff ffffffff     ................
  40c330:	ffffffff ffffffff ffffffff ffffffff     ................
  40c340:	000000ff 00000000 00000000 00000000     ................
  40c350:	ff000000 ffffffff ffffffff ffffffff     ................
  40c360:	ffffffff ffffffff 00ffffff 00000000     ................
	...
  40c378:	ffff0000 ffffffff ffffffff ffffffff     ................
  40c388:	ffffffff 00ffffff 00000000 00000000     ................
	...
  40c3a0:	ffffff00 ffffffff ffffffff ffffffff     ................
  40c3b0:	ffffffff ffffffff ffffffff ffffffff     ................
  40c3c0:	ffffffff 000000ff 00000000 00000000     ................
  40c3d0:	00000000 ffffffff ffffffff ffffffff     ................
  40c3e0:	ffffffff ffffffff ffffffff ffffffff     ................
  40c3f0:	ffffffff ffffffff ffffffff ffffffff     ................
  40c400:	ffffffff ffffffff ffffffff ffffffff     ................
  40c410:	ffffffff ffffffff ffffffff ffffffff     ................
  40c420:	0000ffff 00000000 00000000 00000000     ................
  40c430:	ffffff00 ffffffff ffffffff ffffffff     ................
  40c440:	ffffffff ffffffff ffffffff 00000000     ................
	...
  40c460:	ffffff00 ffffffff ffffffff ffffffff     ................
  40c470:	ffffffff ffffffff 000000ff 00000000     ................
  40c480:	00000000 ffffff00 ffffffff ffffffff     ................
  40c490:	ffffffff ffffffff 0000ffff 00000000     ................
	...
  40c4ac:	ffffffff ffffffff ffffffff ffffffff     ................
  40c4bc:	ffffffff ffffffff ffffffff ffffffff     ................
  40c4cc:	ffffffff ffffffff 0000ffff 00000000     ................
  40c4dc:	00000000 ffff0000 ffffffff ffffffff     ................
  40c4ec:	ffffffff ffffffff ffffffff ffffffff     ................
  40c4fc:	ffffffff ffffffff ffffffff ffffffff     ................
  40c50c:	ffffffff ffffffff ffffffff ffffffff     ................
  40c51c:	ffffffff ffffffff ffffffff ffffffff     ................
  40c52c:	ffffffff 00ffffff 00000000 00000000     ................
  40c53c:	ff000000 ffffffff ffffffff ffffffff     ................
  40c54c:	ffffffff ffffffff 00ffffff 00000000     ................
	...
  40c570:	ffff0000 ffffffff ffffffff ffffffff     ................
  40c580:	ffffffff 00ffffff 00000000 00000000     ................
  40c590:	ffffffff ffffffff ffffffff ffffffff     ................
  40c5a0:	ffffffff 000000ff 00000000 00000000     ................
  40c5b0:	00000000 ff000000 ffffffff ffffffff     ................
  40c5c0:	ffffffff ffffffff ffffffff ffffffff     ................
  40c5d0:	ffffffff ffffffff ffffffff ffffffff     ................
  40c5e0:	ffffffff 00000000 00000000 00000000     ................
  40c5f0:	ff000000 ffffffff ffffffff ffffffff     ................
  40c600:	ffffffff ffffffff ffffffff ffffffff     ................
  40c610:	ffffffff ffffffff ffffffff 000000ff     ................
	...
  40c62c:	ff000000 ffffffff ffffffff ffffffff     ................
  40c63c:	ffffffff 000000ff 00000000 00000000     ................
  40c64c:	ffffff00 ffffffff ffffffff ffffffff     ................
  40c65c:	ffffffff 0000ffff 00000000 00000000     ................
	...
  40c680:	ff000000 ffffffff ffffffff ffffffff     ................
  40c690:	ffffffff ffffffff ffffffff ffffffff     ................
  40c6a0:	ffffffff ffffffff ffffffff ffffffff     ................
	...
  40c6c0:	ffff0000 ffffffff ffffffff ffffffff     ................
  40c6d0:	ffffffff ffffffff ffffffff ffffffff     ................
  40c6e0:	ffffffff ffffffff ffffffff ffffffff     ................
  40c6f0:	0000ffff 00000000 00000000 00000000     ................
  40c700:	ffffff00 ffffffff ffffffff ffffffff     ................
  40c710:	ffffffff ffffffff ffffffff ffffffff     ................
  40c720:	ffffffff 000000ff 00000000 00000000     ................
	...
  40c740:	ff000000 ffffffff ffffffff 00ffffff     ................
	...
  40c758:	ff000000 ffffffff ffffffff ffffffff     ................
  40c768:	ffffffff ffffffff 00000000 00000000     ................
	...
  40c794:	ffffffff ffffffff ffffffff ffffffff     ................
  40c7a4:	ffffffff ffffffff ffffffff ffffffff     ................
  40c7b4:	ffffffff 00ffffff 00000000 00000000     ................
	...
  40c7cc:	ffffff00 ffffffff ffffffff ffffffff     ................
  40c7dc:	ffffffff ffffffff ffffffff ffffffff     ................
  40c7ec:	ffffffff ffffffff ffffffff ffffffff     ................
  40c7fc:	ffffffff 00000000 00000000 00000000     ................
  40c80c:	ff000000 ffffffff ffffffff ffffffff     ................
  40c81c:	ffffffff ffffffff ffffffff ffffffff     ................
  40c82c:	ffffffff 00000000 00000000 00000000     ................
	...
  40c854:	ffffffff ffffffff 000000ff 00000000     ................
	...
  40c86c:	ffffffff ffffffff ffffffff 00ffffff     ................
	...
  40c888:	ffff0000 ffffffff 00ffffff 00000000     ................
	...
  40c8a4:	ffffff00 ffffffff ffffffff ffffffff     ................
  40c8b4:	ffffffff ffffffff ffffffff ffffffff     ................
  40c8c4:	0000ffff 00000000 00000000 00000000     ................
  40c8d4:	00000000 ffffffff ffffffff ffffffff     ................
  40c8e4:	ffffffff ffffffff ffffffff ffffffff     ................
  40c8f4:	ffffffff ffffffff ffffffff ffffffff     ................
  40c904:	ffffffff ffffffff ffffffff 000000ff     ................
	...
  40c91c:	ffffff00 ffffffff ffffffff ffffffff     ................
  40c92c:	ffffffff ffffffff ffffffff 00000000     ................
	...
  40c964:	ffffff00 ffffffff 0000ffff 00000000     ................
  40c974:	00000000 ffff0000 ffffffff ffffffff     ................
  40c984:	0000ffff 00000000 00000000 00000000     ................
  40c994:	ffffff00 ffffffff ffffffff ffffffff     ................
	...
  40c9b4:	ffff0000 ffffffff ffffffff ffffffff     ................
  40c9c4:	ffffffff ffffffff ffffffff 000000ff     ................
	...
  40c9e0:	ff000000 ffffffff ffffffff ffffffff     ................
  40c9f0:	ffffffff ffffffff ffffffff ffffffff     ................
  40ca00:	ffffffff ffffffff ffffffff ffffffff     ................
  40ca10:	ffffffff ffffffff ffffffff 00ffffff     ................
	...
  40ca28:	ff000000 ffffffff ffffffff ffffffff     ................
  40ca38:	ffffffff ffffffff ffffffff 0000ffff     ................
	...
  40ca58:	ffffffff ffffffff ffffffff 00000000     ................
	...
  40ca70:	ff000000 ffffffff ffffffff 00000000     ................
	...
  40ca88:	ffffffff ffffffff ffffffff 00000000     ................
	...
  40caa0:	ff000000 ffffffff ffffffff ffffffff     ................
  40cab0:	ffffffff 000000ff 00000000 00000000     ................
  40cac0:	00000000 ff000000 ffffffff ffffffff     ................
  40cad0:	ffffffff ffffffff ffffffff 00000000     ................
	...
  40caec:	ffff0000 ffffffff ffffffff ffffffff     ................
  40cafc:	ffffffff ffffffff ffffffff ffffffff     ................
  40cb0c:	ffffffff ffffffff ffffffff ffffffff     ................
  40cb1c:	ffffffff ffffffff ffffffff ffffffff     ................
  40cb2c:	000000ff 00000000 00000000 ffffff00     ................
  40cb3c:	ffffffff ffffffff ffffffff ffffffff     ................
  40cb4c:	ffffffff 000000ff 00000000 00000000     ................
  40cb5c:	00000000 ff000000 ffffffff ffffffff     ................
  40cb6c:	ffffffff ffffffff 000000ff 00000000     ................
	...
  40cb84:	ffffffff 0000ffff 00000000 00000000     ................
  40cb94:	ffff0000 ffffffff ffffffff 0000ffff     ................
	...
  40cbac:	ffff0000 ffffffff ffffffff ffffffff     ................
  40cbbc:	ffffffff ffffffff 0000ffff 00000000     ................
	...
  40cbd8:	ffffffff ffffffff ffffffff 00ffffff     ................
	...
  40cbf8:	ffffff00 ffffffff ffffffff ffffffff     ................
  40cc08:	ffffffff ffffffff ffffffff ffffffff     ................
  40cc18:	ffffffff ffffffff ffffffff ffffffff     ................
  40cc28:	ffffffff ffffffff ffffffff ffffffff     ................
  40cc38:	00ffffff 00000000 00000000 ff000000     ................
  40cc48:	ffffffff ffffffff ffffffff ffffffff     ................
  40cc58:	ffffffff 00000000 00000000 00000000     ................
  40cc68:	ff000000 ffffffff ffffffff ffffffff     ................
  40cc78:	ffffffff ffffffff ffffffff 0000ffff     ................
	...
  40cc94:	ffffff00 00000000 00000000 00000000     ................
  40cca4:	ffffffff ffffffff ffffffff 00000000     ................
	...
  40ccbc:	ffffffff ffffffff ffffffff ffffffff     ................
  40cccc:	ffffffff ffffffff 00ffffff 00000000     ................
	...
  40cce8:	ffffff00 ffffffff 0000ffff 00000000     ................
	...
  40cd04:	ffffffff ffffffff ffffffff ffffffff     ................
  40cd14:	ffffffff ffffffff ffffffff ffffffff     ................
  40cd24:	ffffffff ffffffff ffffffff ffffffff     ................
  40cd34:	ffffffff ffffffff ffffffff ffffffff     ................
  40cd44:	ffffffff 000000ff 00000000 00000000     ................
  40cd54:	ffffff00 ffffffff ffffffff ffffffff     ................
  40cd64:	ffffffff 0000ffff 00000000 00000000     ................
  40cd74:	ffff0000 ffffffff ffffffff ffffffff     ................
  40cd84:	ffffffff ffffffff ffffffff ffffffff     ................
  40cd94:	00ffffff 00000000 00000000 00000000     ................
	...
  40cdb0:	ffff0000 ffffffff ffffffff 0000ffff     ................
	...
  40cdc8:	ffff0000 ffffffff ffffffff ffffffff     ................
  40cdd8:	ffffffff ffffffff ffffffff ffffffff     ................
	...
  40cdf8:	ffff0000 000000ff 00000000 00000000     ................
  40ce08:	00000000 ff000000 ffffffff ffffffff     ................
  40ce18:	ffffffff ffffffff ffffffff ffffffff     ................
  40ce28:	ffffffff ffffffff ffffffff ffffffff     ................
  40ce38:	ffffffff ffffffff ffffffff ffffffff     ................
  40ce48:	ffffffff ffffffff ffffffff 00ffffff     ................
	...
  40ce60:	ff000000 ffffffff ffffffff ffffffff     ................
  40ce70:	ffffffff ffffffff 00000000 00000000     ................
  40ce80:	00000000 ffffffff ffffffff ffffffff     ................
  40ce90:	ffffffff ffffffff ffffffff ffffffff     ................
  40cea0:	ffffffff 000000ff 00000000 00000000     ................
	...
  40cec0:	ffffffff ffffffff ffffffff 00000000     ................
	...
  40ced8:	ffffffff ffffffff ffffffff ffffffff     ................
  40cee8:	ffffffff ffffffff ffffffff ffffffff     ................
  40cef8:	000000ff 00000000 00000000 00000000     ................
	...
  40cf18:	ffff0000 ffffffff ffffffff ffffffff     ................
  40cf28:	ffffffff ffffffff ffffffff ffffffff     ................
  40cf38:	ffffffff ffffffff ffffffff ffffffff     ................
  40cf48:	ffffffff ffffffff ffffffff ffffffff     ................
  40cf58:	ffffffff ffffffff ffffffff 000000ff     ................
	...
  40cf70:	ffffff00 ffffffff ffffffff ffffffff     ................
  40cf80:	00ffffff 00000000 00000000 00000000     ................
  40cf90:	ffff0000 ffffffff ffffffff ffffffff     ................
  40cfa0:	ffffffff ffffffff ffffffff ffffffff     ................
  40cfb0:	ffffffff 0000ffff 00000000 00000000     ................
	...
  40cfcc:	ffff0000 ffffffff ffffffff 0000ffff     ................
	...
  40cfe8:	ffffff00 ffffffff ffffffff ffffffff     ................
  40cff8:	ffffffff ffffffff ffffffff ffffffff     ................
  40d008:	0000ffff 00000000 00000000 00000000     ................
	...
  40d024:	ffffff00 ffffffff ffffffff ffffffff     ................
  40d034:	ffffffff ffffffff ffffffff ffffffff     ................
  40d044:	ffffffff ffffffff ffffffff ffffffff     ................
  40d054:	ffffffff ffffffff ffffffff ffffffff     ................
  40d064:	ffffffff ffffffff ffffffff 00ffffff     ................
	...
  40d07c:	ff000000 ffffffff ffffffff ffffffff     ................
  40d08c:	ffffffff 000000ff 00000000 00000000     ................
  40d09c:	00000000 ffffffff ffffffff ffffffff     ................
  40d0ac:	ffffffff ffffffff ffffffff ffffffff     ................
  40d0bc:	ffffffff ffffffff 00000000 00000000     ................
	...
  40d0d8:	ffffff00 ffffffff ffffffff ffffffff     ................
	...
  40d0f4:	ff000000 ffffffff ffffffff ffffffff     ................
  40d104:	ffffffff ffffffff ffffffff ffffffff     ................
  40d114:	ffffffff 00ffffff 00000000 00000000     ................
	...
  40d130:	ffffffff ffffffff ffffffff ffffffff     ................
  40d140:	ffffffff ffffffff ffffffff ffffffff     ................
  40d150:	ffffffff ffffffff ffffffff ffffffff     ................
  40d160:	ffffffff ffffffff ffffffff ffffffff     ................
  40d170:	ffffffff ffffffff ffffffff ffffffff     ................
  40d180:	000000ff 00000000 00000000 00000000     ................
  40d190:	ffffffff ffffffff ffffffff ffffffff     ................
  40d1a0:	0000ffff 00000000 00000000 ffff0000     ................
  40d1b0:	ffffffff ffffffff ffffffff ffffffff     ................
  40d1c0:	ffffffff ffffffff ffffffff ffffffff     ................
  40d1d0:	ffffffff 000000ff 00000000 00000000     ................
  40d1e0:	00000000 ff000000 ffffffff ffffffff     ................
  40d1f0:	ffffffff ffffffff 000000ff 00000000     ................
	...
  40d208:	ffffffff ffffffff ffffffff ffffffff     ................
  40d218:	ffffffff ffffffff ffffffff ffffffff     ................
  40d228:	000000ff 00000000 00000000 00000000     ................
  40d238:	ff000000 ffffffff ffffffff ffffffff     ................
  40d248:	ffffffff ffffffff ffffffff ffffffff     ................
  40d258:	ffffffff ffffffff ffffffff ffffffff     ................
  40d268:	ffffffff ffffffff ffffffff ffffffff     ................
  40d278:	ffffffff ffffffff ffffffff ffffffff     ................
  40d288:	ffffffff 00ffffff 00000000 00000000     ................
	...
  40d2a0:	ffffff00 ffffffff ffffffff ffffffff     ................
	...
  40d2bc:	ffffffff ffffffff ffffffff ffffffff     ................
  40d2cc:	ffffffff ffffffff ffffffff ffffffff     ................
  40d2dc:	ffffffff ffffffff 0000ffff 00000000     ................
	...
  40d2f4:	ffffff00 ffffffff ffffffff ffffffff     ................
  40d304:	ffffffff 0000ffff 00000000 00000000     ................
  40d314:	00000000 ffffff00 ffffffff ffffffff     ................
  40d324:	ffffffff ffffffff ffffffff ffffffff     ................
	...
  40d344:	ffff0000 ffffffff ffffffff ffffffff     ................
  40d354:	ffffffff ffffffff ffffffff ffffffff     ................
  40d364:	ffffffff ffffffff ffffffff ffffffff     ................
  40d374:	ffffffff ffffffff ffffffff ffffffff     ................
  40d384:	ffffffff ffffffff ffffffff ffffffff     ................
  40d394:	ffffffff ffffffff ffffffff 00000000     ................
	...
  40d3b4:	ffffff00 ffffffff 0000ffff 00000000     ................
	...
  40d3cc:	ffffff00 ffffffff ffffffff ffffffff     ................
  40d3dc:	ffffffff ffffffff ffffffff ffffffff     ................
  40d3ec:	ffffffff ffffffff 00000000 00000000     ................
  40d3fc:	00000000 ffffffff ffffffff ffffffff     ................
  40d40c:	ffffffff ffffffff ffffffff 00000000     ................
	...
  40d428:	ffff0000 ffffffff ffffffff ffffffff     ................
  40d438:	ffffffff 00ffffff 00000000 00000000     ................
	...
  40d450:	ffffff00 ffffffff ffffffff ffffffff     ................
  40d460:	ffffffff ffffffff ffffffff ffffffff     ................
  40d470:	ffffffff ffffffff ffffffff ffffffff     ................
  40d480:	ffffffff ffffffff ffffffff ffffffff     ................
  40d490:	ffffffff ffffffff ffffffff ffffffff     ................
  40d4a0:	ffffffff ffffffff ffffffff ffffffff     ................
  40d4b0:	000000ff 00000000 00000000 00000000     ................
  40d4c0:	00000000 ffff0000 ffffffff 00ffffff     ................
	...
  40d4dc:	ffff0000 ffffffff ffffffff ffffffff     ................
  40d4ec:	ffffffff ffffffff ffffffff ffffffff     ................
  40d4fc:	ffffffff ffffffff 000000ff ff000000     ................
  40d50c:	ffffffff ffffffff ffffffff ffffffff     ................
  40d51c:	ffffffff ffffffff ffffffff 000000ff     ................
	...
  40d53c:	ffff0000 ffffffff 00ffffff 00000000     ................
	...
  40d55c:	ffffffff ffffffff ffffffff ffffffff     ................
  40d56c:	ffffffff ffffffff ffffffff ffffffff     ................
  40d57c:	ffffffff ffffffff ffffffff ffffffff     ................
  40d58c:	ffffffff ffffffff ffffffff ffffffff     ................
  40d59c:	ffffffff ffffffff ffffffff ffffffff     ................
  40d5ac:	ffffffff ffffffff ffffffff ffffffff     ................
  40d5bc:	ffffffff 0000ffff 00000000 00000000     ................
	...
  40d5d4:	ff000000 ffffffff 000000ff 00000000     ................
	...
  40d5ec:	ffffffff ffffffff ffffffff ffffffff     ................
  40d5fc:	ffffffff ffffffff ffffffff ffffffff     ................
  40d60c:	ffffffff ffffffff ffffffff ffffffff     ................
  40d61c:	ffffffff ffffffff ffffffff ffffffff     ................
  40d62c:	ffffffff ffffffff ffffffff 0000ffff     ................
	...
  40d664:	ff000000 ffffffff ffffffff ffffffff     ................
  40d674:	ffffffff ffffffff ffffffff ffffffff     ................
  40d684:	ffffffff ffffffff ffffffff ffffffff     ................
  40d694:	ffffffff ffffffff ffffffff ffffffff     ................
  40d6a4:	ffffffff ffffffff ffffffff ffffffff     ................
  40d6b4:	ffffffff ffffffff ffffffff ffffffff     ................
  40d6c4:	ffffffff ffffffff ffffffff ffffffff     ................
  40d6d4:	0000ffff 00000000 00000000 00000000     ................
  40d6e4:	00000000 ffffffff 0000ffff 00000000     ................
	...
  40d6fc:	ffffff00 ffffffff ffffffff ffffffff     ................
  40d70c:	ffffffff ffffffff ffffffff ffffffff     ................
  40d71c:	ffffffff ffffffff ffffffff ffffffff     ................
  40d72c:	ffffffff ffffffff ffffffff ffffffff     ................
  40d73c:	ffffffff ffffffff ffffffff 00ffffff     ................
	...
  40d770:	ffff0000 ffffffff ffffffff ffffffff     ................
  40d780:	ffffffff ffffffff ffffffff ffffffff     ................
  40d790:	ffffffff ffffffff ffffffff ffffffff     ................
  40d7a0:	ffffffff ffffffff ffffffff ffffffff     ................
  40d7b0:	ffffffff ffffffff ffffffff ffffffff     ................
  40d7c0:	ffffffff ffffffff ffffffff ffffffff     ................
  40d7d0:	ffffffff ffffffff ffffffff ffffffff     ................
  40d7e0:	ffffffff 00ffffff 00000000 00000000     ................
	...
  40d7fc:	00ffffff 00000000 00000000 ff000000     ................
  40d80c:	ffffffff ffffffff ffffffff ffffffff     ................
  40d81c:	ffffffff ffffffff ffffffff ffffffff     ................
  40d82c:	ffffffff ffffffff ffffffff ffffffff     ................
  40d83c:	ffffffff ffffffff ffffffff ffffffff     ................
  40d84c:	ffffffff ffffffff ffffffff ffffffff     ................
  40d85c:	00ffffff 00000000 00000000 00000000     ................
	...
  40d87c:	ffffff00 ffffffff ffffffff ffffffff     ................
  40d88c:	ffffffff ffffffff ffffffff ffffffff     ................
  40d89c:	ffffffff ffffffff ffffffff ffffffff     ................
  40d8ac:	ffffffff ffffffff ffffffff ffffffff     ................
  40d8bc:	ffffffff ffffffff ffffffff ffffffff     ................
  40d8cc:	ffffffff ffffffff ffffffff ffffffff     ................
  40d8dc:	ffffffff ffffffff ffffffff ffffffff     ................
  40d8ec:	ffffffff ffffffff ffffffff 00000000     ................
	...
  40d91c:	ffffffff ffffffff ffffffff ffffffff     ................
  40d92c:	ffffffff ffffffff ffffffff ffffffff     ................
  40d93c:	ffffffff ffffffff ffffffff ffffffff     ................
  40d94c:	ffffffff ffffffff ffffffff ffffffff     ................
  40d95c:	ffffffff ffffffff ffffffff ffffffff     ................
  40d96c:	ffffffff 00ffffff 00000000 00000000     ................
	...
  40d984:	ffffff00 ffffffff ffffffff ffffffff     ................
  40d994:	ffffffff ffffffff ffffffff ffffffff     ................
  40d9a4:	ffffffff ffffffff ffffffff ffffffff     ................
  40d9b4:	ffffffff ffffffff ffffffff ffffffff     ................
  40d9c4:	ffffffff ffffffff ffffffff ffffffff     ................
  40d9d4:	ffffffff ffffffff ffffffff ffffffff     ................
  40d9e4:	ffffffff ffffffff ffffffff ffffffff     ................
  40d9f4:	ffffffff ffffffff ffffffff ffffffff     ................
  40da04:	ffffffff 000000ff 00000000 00000000     ................
	...
  40da2c:	ffffff00 ffffffff ffffffff ffffffff     ................
  40da3c:	ffffffff ffffffff ffffffff ffffffff     ................
  40da4c:	ffffffff ffffffff ffffffff ffffffff     ................
  40da5c:	ffffffff ffffffff ffffffff ffffffff     ................
  40da6c:	ffffffff ffffffff ffffffff ffffffff     ................
  40da7c:	ffffffff ffffffff ffffffff ffffffff     ................
  40da8c:	ffffffff ffffffff ffffffff ffffffff     ................
  40da9c:	ffffffff ffffffff ffffffff ffffffff     ................
  40daac:	ffffffff ffffffff ffffffff ffffffff     ................
  40dabc:	ffffffff ffffffff ffffffff ffffffff     ................
  40dacc:	ffffffff ffffffff ffffffff ffffffff     ................
  40dadc:	ffffffff ffffffff ffffffff ffffffff     ................
  40daec:	ffffffff ffffffff ffffffff ffffffff     ................
  40dafc:	ffffffff ffffffff ffffffff ffffffff     ................
  40db0c:	ffffffff ffffffff ffffffff ffffffff     ................
  40db1c:	000000ff 00000000 00000000 00000000     ................
	...
  40db38:	ff000000 ffffffff ffffffff ffffffff     ................
  40db48:	ffffffff ffffffff ffffffff ffffffff     ................
  40db58:	ffffffff ffffffff ffffffff ffffffff     ................
  40db68:	ffffffff ffffffff ffffffff ffffffff     ................
  40db78:	ffffffff ffffffff ffffffff ffffffff     ................
  40db88:	ffffffff ffffffff ffffffff ffffffff     ................
  40db98:	ffffffff ffffffff ffffffff ffffffff     ................
  40dba8:	ffffffff ffffffff ffffffff ffffffff     ................
  40dbb8:	ffffffff ffffffff ffffffff ffffffff     ................
  40dbc8:	ffffffff ffffffff ffffffff ffffffff     ................
  40dbd8:	ffffffff ffffffff ffffffff ffffffff     ................
  40dbe8:	ffffffff ffffffff ffffffff ffffffff     ................
  40dbf8:	ffffffff ffffffff ffffffff ffffffff     ................
  40dc08:	ffffffff ffffffff ffffffff ffffffff     ................
  40dc18:	ffffffff ffffffff ffffffff ffffffff     ................
  40dc28:	ffffffff 0000ffff 00000000 00000000     ................
	...
  40dc44:	ffff0000 ffffffff ffffffff ffffffff     ................
  40dc54:	ffffffff ffffffff ffffffff ffffffff     ................
  40dc64:	ffffffff ffffffff ffffffff ffffffff     ................
  40dc74:	ffffffff ffffffff ffffffff ffffffff     ................
  40dc84:	ffffffff ffffffff ffffffff ffffffff     ................
  40dc94:	ffffffff ffffffff ffffffff ffffffff     ................
  40dca4:	ffffffff ffffffff ffffffff ffffffff     ................
  40dcb4:	ffffffff ffffffff ffffffff ffffffff     ................
  40dcc4:	ffffffff ffffffff ffffffff ffffffff     ................
  40dcd4:	ffffffff ffffffff ffffffff ffffffff     ................
  40dce4:	ffffffff ffffffff ffffffff ffffffff     ................
  40dcf4:	ffffffff ffffffff ffffffff ffffffff     ................
  40dd04:	ffffffff ffffffff ffffffff ffffffff     ................
  40dd14:	ffffffff ffffffff ffffffff ffffffff     ................
  40dd24:	ffffffff ffffffff ffffffff ffffffff     ................
  40dd34:	ffffffff ffffffff ffffffff 0000ffff     ................
	...
  40dd4c:	ffff0000 ffffffff ffffffff ffffffff     ................
  40dd5c:	ffffffff ffffffff ffffffff ffffffff     ................
  40dd6c:	ffffffff ffffffff ffffffff ffffffff     ................
  40dd7c:	ffffffff ffffffff                       ........

0040dd84 <image_data_daily>:
  40dd84:	ffffffff ffffffff ffffffff ffffffff     ................
  40dd94:	ffffffff ffffffff ffffffff ffffffff     ................
  40dda4:	ffffffff ffffffff ffffffff ffffffff     ................
  40ddb4:	ffffffff ffffffff ffffffff ffffffff     ................
  40ddc4:	ffffffff ffffffff ffffffff ffffffff     ................
  40ddd4:	ffffffff ffffffff ffffffff ffffffff     ................
  40dde4:	ffffffff ffffffff ffffffff ffffffff     ................
  40ddf4:	ffffffff ffffffff ffffffff ffffffff     ................
  40de04:	ffffffff ffffffff ffffffff ffffffff     ................
  40de14:	ffffffff ffffffff ffffffff ffffffff     ................
  40de24:	ffffffff ffffffff ffffffff ffffffff     ................
  40de34:	ffffffff ffffffff ffffffff ffffffff     ................
  40de44:	ffffffff ffffffff ffffffff ffffffff     ................
  40de54:	ffffffff ffffffff ffffffff ffffffff     ................
  40de64:	ffffffff ffffffff ffffffff ffffffff     ................
  40de74:	ffffffff ffffffff ffffffff ffffffff     ................
  40de84:	ffffffff ffffffff ffffffff ffffffff     ................
  40de94:	ffffffff ffffffff ffffffff ffffffff     ................
  40dea4:	ffffffff ffffffff ffffffff ffffffff     ................
  40deb4:	ffffffff ffffffff ffffffff ffffffff     ................
  40dec4:	ffffffff ffffffff ffffffff ffffffff     ................
  40ded4:	ffffffff ffffffff ffffffff ffffffff     ................
  40dee4:	ffffffff ffffffff ffffffff ffffffff     ................
  40def4:	ffffffff ffffffff ffffffff ffffffff     ................
  40df04:	ffffffff ffffffff ffffffff ffffffff     ................
  40df14:	ffffffff ffffffff ffffffff ffffffff     ................
  40df24:	ffffffff ffffffff ffffffff ffffffff     ................
  40df34:	ffffffff ffffffff ffffffff ffffffff     ................
  40df44:	ffffffff ffffffff ffffffff ffffffff     ................
  40df54:	ffffffff ffffffff ffffffff ffffffff     ................
  40df64:	ffffffff ffffffff ffffffff ffffffff     ................
  40df74:	ffffffff ffffffff ffffffff ffffffff     ................
  40df84:	ffffffff ffffffff ffffffff ffffffff     ................
  40df94:	ffffffff ffffffff ffffffff ffffffff     ................
  40dfa4:	ffffffff ffffffff ffffffff ffffffff     ................
  40dfb4:	ffffffff ffffffff ffffffff ffffffff     ................
  40dfc4:	ffffffff ffffffff ffffffff ffffffff     ................
  40dfd4:	ffffffff ffffffff ffffffff ffffffff     ................
  40dfe4:	ffffffff ffffffff ffffffff ffffffff     ................
  40dff4:	ffffffff ffffffff ffffffff ffffffff     ................
  40e004:	ffffffff ffffffff ffffffff ffffffff     ................
  40e014:	ffffffff ffffffff ffffffff ffffffff     ................
  40e024:	ffffffff ffffffff ffffffff ffffffff     ................
  40e034:	ffffffff ffffffff ffffffff ffffffff     ................
  40e044:	ffffffff ffffffff ffffffff ffffffff     ................
  40e054:	ffffffff ffffffff ffffffff ffffffff     ................
  40e064:	ffffffff ffffffff ffffffff ffffffff     ................
  40e074:	ffffffff ffffffff ffffffff ffffffff     ................
  40e084:	ffffffff ffffffff ffffffff ffffffff     ................
  40e094:	ffffffff ffffffff ffffffff ffffffff     ................
  40e0a4:	ffffffff ffffffff ffffffff ffffffff     ................
  40e0b4:	ffffffff ffffffff ffffffff ffffffff     ................
  40e0c4:	ffffffff ffffffff ffffffff ffffffff     ................
  40e0d4:	ffffffff ffffffff ffffffff ffffffff     ................
  40e0e4:	ffffffff ffffffff ffffffff ffffffff     ................
  40e0f4:	ffffffff ffffffff ffffffff ffffffff     ................
  40e104:	ffffffff ffffffff ffffffff ffffffff     ................
  40e114:	ffffffff ffffffff ffffffff ffffffff     ................
  40e124:	ffffffff ffffffff ffffffff 0000ffff     ................
	...
  40e144:	ffffffff ffffffff ffffffff ffffffff     ................
  40e154:	ffffffff ffffffff ffffffff ffffffff     ................
  40e164:	ffffffff ffffffff ffffffff ffffffff     ................
  40e174:	ffffffff ffffffff ffffffff ffffffff     ................
  40e184:	ffffffff ffffffff ffffffff ffffffff     ................
  40e194:	ffffffff ffffffff ffffffff ffffffff     ................
  40e1a4:	ffffffff ffffffff ffffffff ffffffff     ................
  40e1b4:	ffffffff ffffffff ffffffff ffffffff     ................
  40e1c4:	ffffffff ffffffff ffffffff ffffffff     ................
  40e1d4:	ffffffff ffffffff ffffffff ffffffff     ................
  40e1e4:	ffffffff ffffffff ffffffff ffffffff     ................
  40e1f4:	ffffffff ffffffff ffffffff ffffffff     ................
  40e204:	ffffffff ffffffff ffffffff ffffffff     ................
  40e214:	ffffffff ffffffff ffffffff ffffffff     ................
  40e224:	ffffffff ffffffff 0000ffff 00000000     ................
	...
  40e264:	ff000000 ffffffff ffffffff ffffffff     ................
  40e274:	ffffffff ffffffff ffffffff ffffffff     ................
  40e284:	ffffffff ffffffff ffffffff ffffffff     ................
  40e294:	ffffffff ffffffff ffffffff ffffffff     ................
  40e2a4:	ffffffff ffffffff ffffffff ffffffff     ................
  40e2b4:	ffffffff ffffffff ffffffff ffffffff     ................
  40e2c4:	ffffffff ffffffff ffffffff ffffffff     ................
  40e2d4:	ffffffff ffffffff ffffffff ffffffff     ................
  40e2e4:	ffffffff ffffffff ffffffff ffffffff     ................
  40e2f4:	ffffffff ffffffff ffffffff ffffffff     ................
  40e304:	ffffffff ffffffff ffffffff ffffffff     ................
  40e314:	ffffffff ffffffff ffffffff ffffffff     ................
  40e324:	ffffffff ffffffff ffffffff 00000000     ................
	...
  40e37c:	ffff0000 ffffffff ffffffff ffffffff     ................
  40e38c:	ffffffff ffffffff ffffffff ffffffff     ................
  40e39c:	ffffffff ffffffff ffffffff ffffffff     ................
  40e3ac:	ffffffff ffffffff ffffffff ffffffff     ................
  40e3bc:	ffffffff ffffffff ffffffff ffffffff     ................
  40e3cc:	ffffffff ffffffff ffffffff ffffffff     ................
  40e3dc:	ffffffff ffffffff ffffffff ffffffff     ................
  40e3ec:	ffffffff ffffffff ffffffff ffffffff     ................
  40e3fc:	ffffffff ffffffff ffffffff ffffffff     ................
  40e40c:	ffffffff ffffffff ffffffff ffffffff     ................
  40e41c:	ffffffff ffffffff ffffffff ffffffff     ................
  40e42c:	ffffffff ffffffff 000000ff 00000000     ................
	...
  40e494:	ffffff00 ffffffff ffffffff ffffffff     ................
  40e4a4:	ffffffff ffffffff ffffffff ffffffff     ................
  40e4b4:	ffffffff ffffffff ffffffff ffffffff     ................
  40e4c4:	ffffffff ffffffff ffffffff ffffffff     ................
  40e4d4:	ffffffff ffffffff ffffffff ffffffff     ................
  40e4e4:	ffffffff ffffffff ffffffff ffffffff     ................
  40e4f4:	ffffffff ffffffff ffffffff ffffffff     ................
  40e504:	ffffffff ffffffff ffffffff ffffffff     ................
  40e514:	ffffffff ffffffff ffffffff ffffffff     ................
  40e524:	ffffffff ffffffff ffffffff ffffffff     ................
  40e534:	ffffffff ffffffff 000000ff 00000000     ................
	...
  40e5a8:	ffffff00 ffffffff ffffffff ffffffff     ................
  40e5b8:	ffffffff ffffffff ffffffff ffffffff     ................
  40e5c8:	ffffffff ffffffff ffffffff ffffffff     ................
  40e5d8:	ffffffff ffffffff ffffffff ffffffff     ................
  40e5e8:	ffffffff ffffffff ffffffff ffffffff     ................
  40e5f8:	ffffffff ffffffff ffffffff ffffffff     ................
  40e608:	ffffffff ffffffff ffffffff ffffffff     ................
  40e618:	ffffffff ffffffff ffffffff ffffffff     ................
  40e628:	ffffffff ffffffff ffffffff ffffffff     ................
  40e638:	ffffffff ffffffff ffffffff 000000ff     ................
	...
  40e6bc:	ffffff00 ffffffff ffffffff ffffffff     ................
  40e6cc:	ffffffff ffffffff ffffffff ffffffff     ................
  40e6dc:	ffffffff ffffffff ffffffff ffffffff     ................
  40e6ec:	ffffffff ffffffff ffffffff ffffffff     ................
  40e6fc:	ffffffff ffffffff ffffffff ffffffff     ................
  40e70c:	ffffffff ffffffff ffffffff ffffffff     ................
  40e71c:	ffffffff ffffffff ffffffff ffffffff     ................
  40e72c:	ffffffff ffffffff ffffffff ffffffff     ................
  40e73c:	ffffffff ffffffff ffffffff ffffffff     ................
  40e74c:	000000ff 00000000 00000000 00000000     ................
	...
  40e7d0:	ffffff00 ffffffff ffffffff ffffffff     ................
  40e7e0:	ffffffff ffffffff ffffffff ffffffff     ................
  40e7f0:	ffffffff ffffffff ffffffff ffffffff     ................
  40e800:	ffffffff ffffffff ffffffff ffffffff     ................
  40e810:	ffffffff ffffffff ffffffff ffffffff     ................
  40e820:	ffffffff ffffffff ffffffff ffffffff     ................
  40e830:	ffffffff ffffffff ffffffff ffffffff     ................
  40e840:	ffffffff ffffffff ffffffff ffffffff     ................
  40e850:	ffffffff ffffffff 00000000 00000000     ................
	...
  40e8e4:	ffffff00 ffffffff ffffffff ffffffff     ................
  40e8f4:	ffffffff ffffffff ffffffff ffffffff     ................
  40e904:	ffffffff ffffffff ffffffff ffffffff     ................
  40e914:	ffffffff ffffffff ffffffff ffffffff     ................
  40e924:	ffffffff ffffffff ffffffff ffffffff     ................
  40e934:	ffffffff ffffffff ffffffff ffffffff     ................
  40e944:	ffffffff ffffffff ffffffff ffffffff     ................
  40e954:	ffffffff ffffffff ffffffff 00000000     ................
	...
  40e990:	ff000000 ffffffff ffffffff ffffffff     ................
  40e9a0:	ffffffff ffffffff ffffffff ffffffff     ................
  40e9b0:	ffffffff ffffffff ffffffff ffffffff     ................
  40e9c0:	00ffffff 00000000 00000000 00000000     ................
	...
  40e9f4:	ffff0000 ffffffff ffffffff ffffffff     ................
  40ea04:	ffffffff ffffffff ffffffff ffffffff     ................
  40ea14:	ffffffff ffffffff ffffffff ffffffff     ................
  40ea24:	ffffffff ffffffff ffffffff ffffffff     ................
  40ea34:	ffffffff ffffffff ffffffff ffffffff     ................
  40ea44:	ffffffff ffffffff ffffffff ffffffff     ................
  40ea54:	ffffffff ffffffff ffffffff ffffffff     ................
  40ea64:	ffffffff ffffffff 0000ffff 00000000     ................
	...
  40ea98:	ffffffff ffffffff ffffffff ffffffff     ................
  40eaa8:	ffffffff ffffffff ffffffff 0000ffff     ................
  40eab8:	00000000 ff000000 ffffffff ffffffff     ................
  40eac8:	ffffffff ffffffff ffffffff ffffffff     ................
  40ead8:	ffffffff 000000ff 00000000 00000000     ................
	...
  40eb04:	ff000000 ffffffff ffffffff ffffffff     ................
  40eb14:	ffffffff ffffffff ffffffff ffffffff     ................
  40eb24:	ffffffff ffffffff ffffffff ffffffff     ................
  40eb34:	ffffffff ffffffff ffffffff ffffffff     ................
  40eb44:	ffffffff ffffffff ffffffff ffffffff     ................
  40eb54:	ffffffff ffffffff ffffffff ffffffff     ................
  40eb64:	ffffffff ffffffff ffffffff ffffffff     ................
  40eb74:	ffffffff ffffffff 00ffffff 00000000     ................
	...
  40eb9c:	ffffff00 ffffffff ffffffff ffffffff     ................
  40ebac:	ffffffff ffffffff ffffffff ffffffff     ................
  40ebbc:	ffffffff ffffffff 00000000 00000000     ................
  40ebcc:	ffffff00 ffffffff ffffffff ffffffff     ................
  40ebdc:	ffffffff ffffffff ffffffff ffffffff     ................
  40ebec:	ffffffff 000000ff 00000000 00000000     ................
	...
  40ec18:	ff000000 ffffffff ffffffff ffffffff     ................
  40ec28:	ffffffff ffffffff ffffffff ffffffff     ................
  40ec38:	ffffffff ffffffff ffffffff ffffffff     ................
  40ec48:	ffffffff ffffffff ffffffff ffffffff     ................
  40ec58:	ffffffff ffffffff ffffffff ffffffff     ................
  40ec68:	ffffffff ffffffff ffffffff ffffffff     ................
  40ec78:	ffffffff ffffffff ffffffff ffffffff     ................
  40ec88:	ffffffff ffffffff 00000000 00000000     ................
	...
  40eca4:	ffffff00 ffffffff ffffffff ffffffff     ................
  40ecb4:	ffffffff ffffffff ffffffff ffffffff     ................
  40ecc4:	ffffffff ffffffff ffffffff 0000ffff     ................
  40ecd4:	00000000 ff000000 ffffffff ffffffff     ................
  40ece4:	ffffffff ffffffff ffffffff ffffffff     ................
  40ecf4:	ffffffff ffffffff ffffffff ffffffff     ................
  40ed04:	000000ff 00000000 00000000 00000000     ................
	...
  40ed2c:	ffffffff ffffffff ffffffff ffffffff     ................
  40ed3c:	ffffffff ffffffff ffffffff ffffffff     ................
  40ed4c:	ffffffff ffffffff ffffffff ffffffff     ................
  40ed5c:	ffffffff ffffffff ffffffff ffffffff     ................
  40ed6c:	ffffffff ffffffff ffffffff ffffffff     ................
  40ed7c:	ffffffff ffffffff ffffffff ffffffff     ................
  40ed8c:	ffffffff ffffffff ffffffff ffffffff     ................
  40ed9c:	ffffffff 000000ff 00000000 00000000     ................
  40edac:	ffffff00 ffffffff ffffffff ffffffff     ................
  40edbc:	ffffffff ffffffff ffffffff ffffffff     ................
  40edcc:	ffffffff ffffffff ffffffff ffffffff     ................
  40eddc:	ffffffff 00000000 00000000 ffffff00     ................
  40edec:	ffffffff ffffffff ffffffff ffffffff     ................
  40edfc:	ffffffff ffffffff ffffffff ffffffff     ................
  40ee0c:	ffffffff ffffffff ffffffff 000000ff     ................
	...
  40ee3c:	ffffff00 ffffffff ffffffff ffffffff     ................
  40ee4c:	ffffffff ffffffff ffffffff ffffffff     ................
  40ee5c:	ffffffff ffffffff ffffffff ffffffff     ................
  40ee6c:	ffffffff ffffffff ffffffff ffffffff     ................
  40ee7c:	ffffffff ffffffff ffffffff ffffffff     ................
  40ee8c:	ffffffff ffffffff ffffffff ffffffff     ................
  40ee9c:	ffffffff ffffffff ffffffff ffffffff     ................
  40eeac:	ffffffff 0000ffff 00000000 ffffffff     ................
  40eebc:	ffffffff ffffffff ffffffff ffffffff     ................
  40eecc:	ffffffff ffffffff ffffffff ffffffff     ................
  40eedc:	ffffffff ffffffff ffffffff ffffffff     ................
  40eeec:	0000ffff 00000000 ff000000 ffffffff     ................
  40eefc:	ffffffff ffffffff ffffffff ffffffff     ................
  40ef0c:	ffffffff ffffffff ffffffff ffffffff     ................
  40ef1c:	ffffffff ffffffff ffffffff ffffffff     ................
  40ef2c:	000000ff 00000000 00000000 00000000     ................
	...
  40ef4c:	ffff0000 ffffffff ffffffff ffffffff     ................
  40ef5c:	ffffffff ffffffff ffffffff ffffffff     ................
  40ef6c:	ffffffff ffffffff ffffffff ffffffff     ................
  40ef7c:	ffffffff ffffffff ffffffff ffffffff     ................
  40ef8c:	ffffffff ffffffff ffffffff ffffffff     ................
  40ef9c:	ffffffff ffffffff ffffffff ffffffff     ................
  40efac:	ffffffff ffffffff ffffffff ffffffff     ................
  40efbc:	ffffffff ffffffff ffffffff ffffffff     ................
  40efcc:	ffffffff ffffffff ffffffff ffffffff     ................
  40efdc:	ffffffff ffffffff ffffffff ffffffff     ................
  40efec:	ffffffff ffffffff ffffffff ffffffff     ................
	...
  40f004:	ffffff00 ffffffff ffffffff ffffffff     ................
  40f014:	ffffffff ffffffff ffffffff ffffffff     ................
  40f024:	ffffffff ffffffff ffffffff ffffffff     ................
  40f034:	ffffffff ffffffff 0000ffff 00000000     ................
	...
  40f05c:	ff000000 ffffffff ffffffff ffffffff     ................
  40f06c:	ffffffff ffffffff ffffffff ffffffff     ................
  40f07c:	ffffffff ffffffff ffffffff ffffffff     ................
  40f08c:	ffffffff ffffffff ffffffff ffffffff     ................
  40f09c:	ffffffff ffffffff ffffffff ffffffff     ................
  40f0ac:	ffffffff ffffffff ffffffff ffffffff     ................
  40f0bc:	ffffffff ffffffff ffffffff ffffffff     ................
  40f0cc:	ffffffff ffffffff ffffffff ffffffff     ................
  40f0dc:	ffffffff ffffffff ffffffff ffffffff     ................
  40f0ec:	ffffffff ffffffff ffffffff ffffffff     ................
  40f0fc:	ffffffff ffffffff ffffffff 0000ffff     ................
  40f10c:	00000000 ff000000 ffffffff ffffffff     ................
  40f11c:	ffffffff ffffffff ffffffff ffffffff     ................
  40f12c:	ffffffff ffffffff ffffffff ffffffff     ................
  40f13c:	ffffffff ffffffff ffffffff ffffffff     ................
  40f14c:	ffffffff 0000ffff 00000000 00000000     ................
	...
  40f170:	ffffffff ffffffff ffffffff ffffffff     ................
  40f180:	ffffffff ffffffff ffffffff ffffffff     ................
  40f190:	ffffffff ffffffff ffffffff ffffffff     ................
  40f1a0:	ffffffff ffffffff ffffffff ffffffff     ................
  40f1b0:	ffffffff ffffffff 00ffffff ffff0000     ................
  40f1c0:	ffffffff ffffffff ffffffff ffffffff     ................
  40f1d0:	ffffffff ffffffff ffffffff ffffffff     ................
  40f1e0:	ffffffff ffffffff ffffffff ffffffff     ................
  40f1f0:	ffffffff ffffffff ffffffff ffffffff     ................
  40f200:	ffffffff ffffffff ffffffff ffffffff     ................
  40f210:	ffffffff ffffffff ffffffff ffffffff     ................
  40f220:	ffffffff ffffffff ffffffff ffffffff     ................
  40f230:	ffffffff ffffffff ffffffff ffffffff     ................
  40f240:	ffffffff ffffffff ffffffff ffffffff     ................
  40f250:	ffffffff ffffffff ffffffff ffffffff     ................
  40f260:	00ffffff 00000000 00000000 00000000     ................
	...
  40f27c:	ffff0000 ffffffff ffffffff ffffffff     ................
  40f28c:	ffffffff ffffffff ffffffff ffffffff     ................
  40f29c:	ffffffff ffffffff ffffffff ffffffff     ................
  40f2ac:	ffffffff ffffffff ffffffff ffffffff     ................
  40f2bc:	ffffffff 00ffffff 00000000 00000000     ................
  40f2cc:	ff000000 ffffffff ffffffff ffffffff     ................
  40f2dc:	ffffffff ffffffff ffffffff ffffffff     ................
  40f2ec:	ffffffff ffffffff ffffffff ffffffff     ................
  40f2fc:	ffffffff ffffffff ffffffff ffffffff     ................
  40f30c:	ffffffff ffffffff ffffffff ffffffff     ................
  40f31c:	ffffffff ffffffff ffffffff ffffffff     ................
  40f32c:	ffffffff ffffffff ffffffff ffffffff     ................
  40f33c:	ffffffff ffffffff ffffffff ffffffff     ................
  40f34c:	ffffffff ffffffff ffffffff ffffffff     ................
  40f35c:	ffffffff ffffffff ffffffff ffffffff     ................
  40f36c:	ffffffff ffffffff 00000000 00000000     ................
	...
  40f38c:	ff000000 ffffffff ffffffff ffffffff     ................
  40f39c:	ffffffff ffffffff ffffffff ffffffff     ................
  40f3ac:	ffffffff ffffffff ffffffff ffffffff     ................
  40f3bc:	ffffffff ffffffff ffffffff 00ffffff     ................
	...
  40f3dc:	ffffff00 ffffffff ffffffff ffffffff     ................
  40f3ec:	ffffffff ffffffff ffffffff ffffffff     ................
  40f3fc:	ffffffff ffffffff ffffffff ffffffff     ................
  40f40c:	ffffffff ffffffff ffffffff ffffffff     ................
  40f41c:	ffffffff ffffffff ffffffff ffffffff     ................
  40f42c:	ffffffff ffffffff ffffffff ffffffff     ................
  40f43c:	ffffffff ffffffff ffffffff ffffffff     ................
  40f44c:	ffffffff ffffffff ffffffff ffffffff     ................
  40f45c:	ffffffff ffffffff ffffffff ffffffff     ................
  40f46c:	ffffffff ffffffff ffffffff ffffffff     ................
  40f47c:	ffffffff ffffffff 000000ff 00000000     ................
	...
  40f4a0:	ffffffff ffffffff ffffffff ffffffff     ................
  40f4b0:	ffffffff ffffffff ffffffff ffffffff     ................
  40f4c0:	ffffffff ffffffff ffffffff ffffffff     ................
  40f4d0:	00ffffff 00000000 00000000 00000000     ................
	...
  40f4ec:	ffff0000 ffffffff ffffffff ffffffff     ................
  40f4fc:	ffffffff ffffffff ffffffff ffffffff     ................
  40f50c:	ffffffff ffffffff ffffffff ffffffff     ................
  40f51c:	ffffffff ffffffff ffffffff ffffffff     ................
  40f52c:	ffffffff ffffffff ffffffff ffffffff     ................
  40f53c:	ffffffff ffffffff ffffffff ffffffff     ................
  40f54c:	ffffffff ffffffff ffffffff ffffffff     ................
  40f55c:	ffffffff ffffffff ffffffff ffffffff     ................
  40f56c:	ffffffff ffffffff ffffffff ffffffff     ................
  40f57c:	ffffffff ffffffff ffffffff ffffffff     ................
  40f58c:	ffffffff ffffffff 0000ffff 00000000     ................
	...
  40f5b0:	ffffff00 ffffffff ffffffff ffffffff     ................
  40f5c0:	ffffffff ffffffff ffffffff ffffffff     ................
  40f5d0:	ffffffff ffffffff 00ffffff 00000000     ................
	...
  40f5fc:	ffffffff ffffffff ffffffff ffffffff     ................
  40f60c:	ffffffff ffffffff ffffffff ffffffff     ................
  40f61c:	ffffffff ffffffff ffffffff ffffffff     ................
  40f62c:	ffffffff ffffffff ffffffff ffffffff     ................
  40f63c:	ffffffff ffffffff ffffffff ffffffff     ................
  40f64c:	ffffffff 00000000 00000000 ffffff00     ................
  40f65c:	ffffffff ffffffff ffffffff ffffffff     ................
  40f66c:	ffffffff ffffffff ffffffff ffffffff     ................
  40f67c:	ffffffff ffffffff ffffffff ffffffff     ................
  40f68c:	ffffffff ffffffff ffffffff ffffffff     ................
  40f69c:	ffffffff ffffffff 00000000 00000000     ................
	...
  40f6bc:	ff000000 ffffffff ffffffff ffffffff     ................
  40f6cc:	ffffffff ffffffff ffffffff ffffffff     ................
  40f6dc:	ffffffff 00ffffff 00000000 00000000     ................
	...
  40f708:	ffff0000 ffffffff ffffffff ffffffff     ................
  40f718:	ffffffff ffffffff ffffffff ffffffff     ................
  40f728:	ffffffff ffffffff ffffffff ffffffff     ................
  40f738:	ffffffff ffffffff ffffffff ffffffff     ................
  40f748:	ffffffff ffffffff ffffffff ffffffff     ................
  40f758:	ffffffff 0000ffff 00000000 ff000000     ................
  40f768:	ffffffff ffffffff ffffffff ffffffff     ................
  40f778:	ffffffff ffffffff ffffffff ffffffff     ................
  40f788:	ffffffff ffffffff ffffffff ffffffff     ................
  40f798:	ffffffff ffffffff ffffffff ffffffff     ................
  40f7a8:	ffffffff ffffffff ffffffff 000000ff     ................
	...
  40f7d0:	ffffffff ffffffff ffffffff ffffffff     ................
  40f7e0:	ffffffff ffffffff 00000000 00000000     ................
	...
  40f818:	ff000000 ffffffff ffffffff ffffffff     ................
  40f828:	ffffffff ffffffff ffffffff ffffffff     ................
  40f838:	ffffffff ffffffff ffffffff ffffffff     ................
  40f848:	ffffffff ffffffff ffffffff ffffffff     ................
  40f858:	ffffffff ffffffff ffffffff ffffffff     ................
  40f868:	ffffffff 00000000 00000000 ffffff00     ................
  40f878:	ffffffff ffffffff ffffffff ffffffff     ................
  40f888:	ffffffff ffffffff ffffffff ffffffff     ................
  40f898:	ffffffff ffffffff ffffffff ffffffff     ................
  40f8a8:	ffffffff ffffffff ffffffff ffffffff     ................
  40f8b8:	ffffffff ffffffff ffffffff 0000ffff     ................
	...
  40f8dc:	ffff0000 ffffffff ffffffff ffffffff     ................
  40f8ec:	ffffffff 00ffffff 00000000 00000000     ................
	...
  40f928:	ffffff00 ffffffff ffffffff ffffffff     ................
  40f938:	ffffffff ffffffff ffffffff ffffffff     ................
  40f948:	ffffffff ffffffff ffffffff ffffffff     ................
  40f958:	ffffffff ffffffff ffffffff ffffffff     ................
  40f968:	ffffffff ffffffff ffffffff ffffffff     ................
  40f978:	0000ffff 00000000 ff000000 ffffffff     ................
  40f988:	ffffffff ffffffff ffffffff ffffffff     ................
  40f998:	ffffffff ffffffff ffffffff ffffffff     ................
  40f9a8:	ffffffff ffffffff ffffffff ffffffff     ................
  40f9b8:	ffffffff ffffffff ffffffff ffffffff     ................
  40f9c8:	ffffffff ffffffff ffffffff 00ffffff     ................
	...
  40f9ec:	ff000000 ffffffff ffffffff ffffffff     ................
  40f9fc:	ffffffff 000000ff 00000000 00000000     ................
	...
  40fa38:	ffff0000 ffffffff ffffffff ffffffff     ................
  40fa48:	ffffffff ffffffff ffffffff ffffffff     ................
  40fa58:	ffffffff ffffffff ffffffff ffffffff     ................
  40fa68:	ffffffff ffffffff ffffffff ffffffff     ................
  40fa78:	ffffffff ffffffff ffffffff ffffffff     ................
	...
  40fa90:	ffffff00 ffffffff ffffffff ffffffff     ................
  40faa0:	ffffffff ffffffff ffffffff ffffffff     ................
  40fab0:	ffffffff ffffffff ffffffff ffffffff     ................
  40fac0:	ffffffff ffffffff ffffffff ffffffff     ................
  40fad0:	ffffffff ffffffff ffffffff ffffffff     ................
  40fae0:	ffffffff 000000ff 00000000 00000000     ................
	...
  40fafc:	ffffff00 ffffffff ffffffff ffffffff     ................
  40fb0c:	00ffffff 00000000 00000000 00000000     ................
	...
  40fb48:	ffffffff ffffffff ffffffff ffffffff     ................
  40fb58:	ffffffff ffffffff ffffffff ffffffff     ................
  40fb68:	ffffffff ffffffff ffffffff ffffffff     ................
  40fb78:	ffffffff ffffffff ffffffff ffffffff     ................
  40fb88:	ffffffff ffffffff ffffffff 0000ffff     ................
  40fb98:	00000000 ff000000 ffffffff ffffffff     ................
  40fba8:	ffffffff ffffffff ffffffff ffffffff     ................
  40fbb8:	ffffffff ffffffff ffffffff ffffffff     ................
  40fbc8:	ffffffff ffffffff ffffffff ffffffff     ................
  40fbd8:	ffffffff ffffffff ffffffff ffffffff     ................
  40fbe8:	ffffffff ffffffff ffffffff 0000ffff     ................
	...
  40fc0c:	ffff0000 ffffffff ffffffff ffffffff     ................
  40fc1c:	ffffffff 00000000 00000000 00000000     ................
	...
  40fc58:	ffffff00 ffffffff ffffffff ffffffff     ................
  40fc68:	ffffffff ffffffff ffffffff ffffffff     ................
  40fc78:	ffffffff ffffffff ffffffff ffffffff     ................
  40fc88:	ffffffff ffffffff ffffffff ffffffff     ................
  40fc98:	ffffffff ffffffff ffffffff 00000000     ................
  40fca8:	00000000 ffffff00 ffffffff ffffffff     ................
  40fcb8:	ffffffff ffffffff ffffffff ffffffff     ................
  40fcc8:	ffffffff ffffffff ffffffff ffffffff     ................
  40fcd8:	ffffffff ffffffff ffffffff ffffffff     ................
  40fce8:	ffffffff ffffffff ffffffff ffffffff     ................
  40fcf8:	ffffffff ffffffff ffffffff 00000000     ................
	...
  40fd1c:	ffffffff ffffffff ffffffff ffffffff     ................
  40fd2c:	0000ffff 00000000 00000000 ffff0000     ................
  40fd3c:	ffffffff 00000000 00000000 00000000     ................
	...
  40fd64:	ff000000 ffffffff ffffffff ffffffff     ................
  40fd74:	ffffffff ffffffff ffffffff ffffffff     ................
  40fd84:	ffffffff ffffffff ffffffff ffffffff     ................
  40fd94:	ffffffff ffffffff ffffffff ffffffff     ................
  40fda4:	ffffffff ffffffff ffffffff 0000ffff     ................
  40fdb4:	00000000 ff000000 ffffffff ffffffff     ................
  40fdc4:	ffffffff ffffffff ffffffff ffffffff     ................
  40fdd4:	ffffffff ffffffff ffffffff ffffffff     ................
  40fde4:	ffffffff ffffffff ffffffff ffffffff     ................
  40fdf4:	ffffffff ffffffff ffffffff ffffffff     ................
  40fe04:	ffffffff ffffffff ffffffff ffffffff     ................
  40fe14:	000000ff 00000000 00000000 00000000     ................
	...
  40fe2c:	ffffff00 ffffffff ffffffff ffffffff     ................
  40fe3c:	00ffffff ffff0000 ffffffff 00ffffff     ................
	...
  40fe74:	ffffff00 ffffffff ffffffff ffffffff     ................
  40fe84:	ffffffff ffffffff ffffffff ffffffff     ................
  40fe94:	ffffffff ffffffff ffffffff ffffffff     ................
  40fea4:	ffffffff ffffffff ffffffff ffffffff     ................
  40feb4:	ffffffff ffffffff ffffffff 00000000     ................
  40fec4:	00000000 ffffff00 ffffffff ffffffff     ................
  40fed4:	ffffffff ffffffff ffffffff ffffffff     ................
  40fee4:	ffffffff ffffffff ffffffff ffffffff     ................
  40fef4:	ffffffff ffffffff ffffffff ffffffff     ................
  40ff04:	ffffffff ffffffff ffffffff ffffffff     ................
  40ff14:	ffffffff ffffffff ffffffff 00ffffff     ................
	...
  40ff38:	ff000000 ffffffff ffffffff ffffffff     ................
  40ff48:	ffffffff ffffffff ffffffff ffffffff     ................
  40ff58:	000000ff 00000000 00000000 00000000     ................
	...
  40ff84:	ffff0000 ffffffff ffffffff ffffffff     ................
  40ff94:	ffffffff ffffffff ffffffff ffffffff     ................
  40ffa4:	ffffffff ffffffff ffffffff ffffffff     ................
  40ffb4:	ffffffff ffffffff ffffffff ffffffff     ................
  40ffc4:	ffffffff ffffffff 0000ffff 00000000     ................
  40ffd4:	ff000000 ffffffff ffffffff ffffffff     ................
  40ffe4:	ffffffff ffffffff ffffffff ffffffff     ................
  40fff4:	ffffffff ffffffff ffffffff ffffffff     ................
  410004:	ffffffff ffffffff ffffffff ffffffff     ................
  410014:	ffffffff ffffffff ffffffff ffffffff     ................
  410024:	ffffffff ffffffff ffffffff ffffffff     ................
	...
  410048:	ffffff00 ffffffff ffffffff ffffffff     ................
  410058:	ffffffff ffffffff ffffffff 00ffffff     ................
	...
  41007c:	00ffffff 00000000 00000000 00000000     ................
	...
  410094:	ffffffff ffffffff ffffffff ffffffff     ................
  4100a4:	ffffffff ffffffff ffffffff ffffffff     ................
  4100b4:	ffffffff ffffffff ffffffff ffffffff     ................
  4100c4:	ffffffff ffffffff ffffffff ffffffff     ................
  4100d4:	ffffffff ffffffff 00000000 00000000     ................
  4100e4:	ffffff00 ffffffff ffffffff ffffffff     ................
  4100f4:	ffffffff ffffffff ffffffff ffffffff     ................
  410104:	ffffffff ffffffff ffffffff ffffffff     ................
  410114:	ffffffff ffffffff ffffffff ffffffff     ................
  410124:	ffffffff ffffffff ffffffff ffffffff     ................
  410134:	ffffffff ffffffff ffffffff 0000ffff     ................
	...
  410158:	ffff0000 ffffffff ffffffff ffffffff     ................
  410168:	ffffffff ffffffff 0000ffff 00000000     ................
	...
  410188:	ffff0000 ffffffff 00000000 00000000     ................
	...
  4101a4:	ffffff00 ffffffff ffffffff ffffffff     ................
  4101b4:	ffffffff ffffffff ffffffff ffffffff     ................
  4101c4:	ffffffff ffffffff ffffffff ffffffff     ................
  4101d4:	ffffffff ffffffff ffffffff ffffffff     ................
  4101e4:	ffffffff 0000ffff 00000000 ff000000     ................
  4101f4:	ffffffff ffffffff ffffffff ffffffff     ................
  410204:	ffffffff ffffffff ffffffff ffffffff     ................
  410214:	ffffffff ffffffff ffffffff ffffffff     ................
  410224:	ffffffff ffffffff ffffffff ffffffff     ................
  410234:	ffffffff ffffffff ffffffff ffffffff     ................
  410244:	ffffffff ffffffff ffffffff 00ffffff     ................
	...
  410268:	ffffffff ffffffff ffffffff ffffffff     ................
  410278:	ffffffff ffffffff 00000000 00000000     ................
	...
  410298:	ffffffff 0000ffff 00000000 00000000     ................
	...
  4102b0:	ffffffff ffffffff ffffffff ffffffff     ................
  4102c0:	ffffffff ffffffff ffffffff ffffffff     ................
  4102d0:	ffffffff ffffffff ffffffff ffffffff     ................
  4102e0:	ffffffff ffffffff ffffffff ffffffff     ................
  4102f0:	ffffffff ffffffff 00000000 00000000     ................
  410300:	ffffff00 ffffffff ffffffff ffffffff     ................
  410310:	ffffffff ffffffff ffffffff ffffffff     ................
  410320:	ffffffff ffffffff ffffffff ffffffff     ................
  410330:	ffffffff ffffffff ffffffff ffffffff     ................
  410340:	ffffffff ffffffff ffffffff ffffffff     ................
  410350:	ffffffff ffffffff ffffffff ffffffff     ................
  410360:	000000ff 00000000 00000000 00000000     ................
  410370:	00000000 ffff0000 ffffffff ffffffff     ................
  410380:	ffffffff ffffffff ffffffff 0000ffff     ................
	...
  4103a0:	ff000000 ffffffff ffffffff 00ffffff     ................
	...
  4103b8:	ffffffff ffffffff ffffffff ffffffff     ................
  4103c8:	ffffffff ffffffff ffffffff ffffffff     ................
  4103d8:	ffffffff ffffffff ffffffff ffffffff     ................
  4103e8:	ffffffff ffffffff ffffffff ffffffff     ................
  4103f8:	ffffffff ffffffff ffffffff 0000ffff     ................
  410408:	00000000 ff000000 ffffffff ffffffff     ................
  410418:	ffffffff ffffffff ffffffff ffffffff     ................
  410428:	ffffffff ffffffff ffffffff ffffffff     ................
  410438:	ffffffff ffffffff ffffffff ffffffff     ................
  410448:	ffffffff ffffffff ffffffff ffffffff     ................
  410458:	ffffffff ffffffff ffffffff ffffffff     ................
  410468:	ffffffff 00ffffff 00000000 00000000     ................
	...
  410484:	ffffffff ffffffff ffffffff ffffffff     ................
  410494:	ffffffff ffffffff 00000000 00000000     ................
	...
  4104b0:	ffffff00 ffffffff ffffffff 000000ff     ................
  4104c0:	ffffffff ffffffff ffffffff ffffffff     ................
  4104d0:	ffffffff ffffffff ffffffff ffffffff     ................
  4104e0:	ffffffff ffffffff ffffffff ffffffff     ................
  4104f0:	ffffffff ffffffff ffffffff ffffffff     ................
  410500:	ffffffff ffffffff ffffffff ffffffff     ................
  410510:	ffffffff 00000000 00000000 ffffff00     ................
  410520:	ffffffff ffffffff ffffffff ffffffff     ................
  410530:	ffffffff ffffffff ffffffff ffffffff     ................
  410540:	ffffffff ffffffff ffffffff ffffffff     ................
  410550:	ffffffff ffffffff ffffffff ffffffff     ................
  410560:	ffffffff ffffffff ffffffff ffffffff     ................
  410570:	ffffffff ffffffff ffffffff 000000ff     ................
	...
  410594:	ffffff00 ffffffff ffffffff ffffffff     ................
  4105a4:	ffffffff 0000ffff 00000000 00000000     ................
	...
  4105bc:	ff000000 ffffffff ffffffff ffffffff     ................
  4105cc:	ffffffff ffffffff ffffffff ffffffff     ................
  4105dc:	ffffffff ffffffff ffffffff ffffffff     ................
  4105ec:	ffffffff ffffffff ffffffff ffffffff     ................
  4105fc:	ffffffff ffffffff ffffffff ffffffff     ................
  41060c:	ffffffff ffffffff ffffffff ffffffff     ................
  41061c:	ffffffff 0000ffff 00000000 ff000000     ................
  41062c:	ffffffff ffffffff ffffffff ffffffff     ................
  41063c:	ffffffff ffffffff ffffffff ffffffff     ................
  41064c:	ffffffff ffffffff ffffffff ffffffff     ................
  41065c:	ffffffff ffffffff ffffffff ffffffff     ................
  41066c:	ffffffff ffffffff ffffffff ffffffff     ................
  41067c:	ffffffff ffffffff ffffffff ffffffff     ................
  41068c:	0000ffff 00000000 00000000 00000000     ................
  41069c:	00000000 ff000000 ffffffff ffffffff     ................
  4106ac:	ffffffff ffffffff 000000ff 00000000     ................
	...
  4106cc:	ffffff00 ffffffff ffffffff ffffffff     ................
  4106dc:	ffffffff ffffffff ffffffff ffffffff     ................
  4106ec:	ffffffff ffffffff ffffffff ffffffff     ................
  4106fc:	ffffffff ffffffff ffffffff ffffffff     ................
  41070c:	ffffffff ffffffff ffffffff ffffffff     ................
  41071c:	ffffffff ffffffff ffffffff ffffffff     ................
  41072c:	ffffffff 00000000 00000000 ffffff00     ................
  41073c:	ffffffff ffffffff ffffffff ffffffff     ................
  41074c:	ffffffff ffffffff ffffffff ffffffff     ................
  41075c:	ffffffff ffffffff ffffffff ffffffff     ................
  41076c:	ffffffff ffffffff ffffffff ffffffff     ................
  41077c:	ffffffff ffffffff ffffffff ffffffff     ................
  41078c:	ffffffff ffffffff ffffffff ffffffff     ................
	...
  4107b0:	ffffff00 ffffffff ffffffff ffffffff     ................
  4107c0:	00ffffff 00000000 00000000 00000000     ................
	...
  4107d8:	ff000000 ffffffff ffffffff ffffffff     ................
  4107e8:	ffffffff ffffffff ffffffff ffffffff     ................
  4107f8:	ffffffff ffffffff ffffffff ffffffff     ................
  410808:	ffffffff ffffffff ffffffff ffffffff     ................
  410818:	ffffffff ffffffff ffffffff ffffffff     ................
  410828:	ffffffff ffffffff ffffffff ffffffff     ................
  410838:	ffffffff 0000ffff 00000000 ff000000     ................
  410848:	ffffffff ffffffff ffffffff ffffffff     ................
  410858:	ffffffff ffffffff ffffffff ffffffff     ................
  410868:	ffffffff ffffffff ffffffff ffffffff     ................
  410878:	ffffffff ffffffff ffffffff ffffffff     ................
  410888:	ffffffff ffffffff ffffffff ffffffff     ................
  410898:	ffffffff ffffffff ffffffff ffffffff     ................
  4108a8:	0000ffff 00000000 00000000 00000000     ................
  4108b8:	00000000 ff000000 ffffffff ffffffff     ................
  4108c8:	ffffffff ffffffff 000000ff 00000000     ................
	...
  4108e4:	ffff0000 ffffffff ffffffff ffffffff     ................
  4108f4:	ffffffff ffffffff ffffffff ffffffff     ................
  410904:	ffffffff ffffffff ffffffff ffffffff     ................
  410914:	ffffffff ffffffff ffffffff ffffffff     ................
  410924:	ffffffff ffffffff ffffffff ffffffff     ................
  410934:	ffffffff ffffffff ffffffff ffffffff     ................
  410944:	0000ffff 00000000 00000000 00000000     ................
  410954:	00000000 ffffffff ffffffff ffffffff     ................
  410964:	ffffffff ffffffff ffffffff ffffffff     ................
  410974:	ffffffff ffffffff ffffffff ffffffff     ................
  410984:	ffffffff ffffffff ffffffff ffffffff     ................
  410994:	ffffffff ffffffff ffffffff ffffffff     ................
  4109a4:	ffffffff ffffffff ffffffff ffffffff     ................
  4109b4:	ffffffff 00000000 00000000 00000000     ................
	...
  4109cc:	ffffff00 ffffffff ffffffff ffffffff     ................
  4109dc:	00ffffff 00000000 00000000 00000000     ................
	...
  4109f4:	ffffffff ffffffff ffffffff ffffffff     ................
  410a04:	ffffffff ffffffff ffffffff ffffffff     ................
  410a14:	ffffffff ffffffff ffffffff ffffffff     ................
  410a24:	ffffffff ffffffff ffffffff ffffffff     ................
  410a34:	ffffffff ffffffff ffffffff ffffffff     ................
  410a44:	ffffffff ffffffff ffffffff 000000ff     ................
	...
  410a68:	ffffff00 ffffffff ffffffff ffffffff     ................
  410a78:	ffffffff ffffffff ffffffff ffffffff     ................
  410a88:	ffffffff ffffffff ffffffff ffffffff     ................
  410a98:	ffffffff ffffffff ffffffff ffffffff     ................
  410aa8:	ffffffff ffffffff ffffffff ffffffff     ................
  410ab8:	ffffffff ffffffff ffffffff 0000ffff     ................
	...
  410ad8:	ff000000 ffffffff ffffffff ffffffff     ................
  410ae8:	ffffffff 000000ff 00000000 00000000     ................
	...
  410b00:	ffff0000 ffffffff ffffffff ffffffff     ................
  410b10:	ffffffff ffffffff ffffffff ffffffff     ................
  410b20:	ffffffff ffffffff ffffffff ffffffff     ................
  410b30:	ffffffff ffffffff ffffffff ffffffff     ................
  410b40:	ffffffff ffffffff ffffffff ffffffff     ................
  410b50:	ffffffff ffffffff ffffffff 00ffffff     ................
	...
  410b78:	ffff0000 ffffffff ffffffff ffffffff     ................
  410b88:	ffffffff ffffffff ffffffff ffffffff     ................
  410b98:	ffffffff ffffffff ffffffff ffffffff     ................
  410ba8:	ffffffff ffffffff ffffffff ffffffff     ................
  410bb8:	ffffffff ffffffff ffffffff ffffffff     ................
  410bc8:	ffffffff ffffffff ffffffff 00000000     ................
	...
  410be8:	ffffff00 ffffffff ffffffff ffffffff     ................
  410bf8:	00ffffff 00000000 00000000 00000000     ................
	...
  410c10:	ffffffff 0000ffff 00000000 00000000     ................
	...
  410c28:	ff000000 ffffffff ffffffff ffffffff     ................
  410c38:	ffffffff ffffffff ffffffff ffffffff     ................
  410c48:	ffffffff ffffffff ffffffff ffffffff     ................
  410c58:	ffffffff ffffffff ffffffff ffffffff     ................
  410c68:	0000ffff 00000000 00000000 00000000     ................
	...
  410c88:	ffffffff ffffffff ffffffff ffffffff     ................
  410c98:	ffffffff ffffffff ffffffff ffffffff     ................
  410ca8:	ffffffff ffffffff ffffffff ffffffff     ................
  410cb8:	ffffffff ffffffff ffffffff ffffffff     ................
  410cc8:	0000ffff 00000000 00000000 00000000     ................
  410cd8:	00000000 ff000000 0000ffff 00000000     ................
	...
  410cf4:	ff000000 ffffffff ffffffff ffffffff     ................
  410d04:	ffffffff 000000ff 00000000 00000000     ................
	...
  410d1c:	ffff0000 000000ff 00000000 00000000     ................
	...
  410d38:	ffffff00 ffffffff ffffffff ffffffff     ................
  410d48:	ffffffff ffffffff ffffffff ffffffff     ................
  410d58:	ffffffff ffffffff ffffffff ffffffff     ................
  410d68:	ffffffff ffffffff ffffffff ffffffff     ................
	...
  410d94:	ffff0000 ffffffff ffffffff ffffffff     ................
  410da4:	ffffffff ffffffff ffffffff ffffffff     ................
  410db4:	ffffffff ffffffff ffffffff ffffffff     ................
  410dc4:	ffffffff ffffffff ffffffff ffffffff     ................
  410dd4:	ffffffff 00000000 00000000 00000000     ................
	...
  410dec:	ffffff00 00000000 00000000 00000000     ................
	...
  410e04:	ffffff00 ffffffff ffffffff ffffffff     ................
  410e14:	00ffffff 00000000 00000000 00000000     ................
	...
  410e2c:	ffffffff 0000ffff 00000000 00000000     ................
	...
  410e44:	ff000000 ffffffff ffffffff ffffffff     ................
  410e54:	ffffffff ffffffff ffffffff ffffffff     ................
  410e64:	ffffffff ffffffff ffffffff ffffffff     ................
  410e74:	ffffffff ffffffff ffffffff ffffffff     ................
  410e84:	0000ffff 00000000 00000000 00000000     ................
	...
  410ea4:	ffffffff ffffffff ffffffff ffffffff     ................
  410eb4:	ffffffff ffffffff ffffffff ffffffff     ................
  410ec4:	ffffffff ffffffff ffffffff ffffffff     ................
  410ed4:	ffffffff ffffffff ffffffff ffffffff     ................
  410ee4:	0000ffff 00000000 00000000 00000000     ................
  410ef4:	00000000 ff000000 0000ffff 00000000     ................
	...
  410f10:	ff000000 ffffffff ffffffff ffffffff     ................
  410f20:	ffffffff 000000ff 00000000 00000000     ................
	...
  410f38:	ffff0000 ffffffff ffffffff ffffffff     ................
  410f48:	ffffffff ffffffff ffffffff ffffffff     ................
  410f58:	ffffffff ffffffff ffffffff ffffffff     ................
  410f68:	ffffffff ffffffff ffffffff ffffffff     ................
  410f78:	ffffffff ffffffff ffffffff ffffffff     ................
  410f88:	ffffffff ffffffff ffffffff 00ffffff     ................
	...
  410fb0:	ffff0000 ffffffff ffffffff ffffffff     ................
  410fc0:	ffffffff ffffffff ffffffff ffffffff     ................
  410fd0:	ffffffff ffffffff ffffffff ffffffff     ................
  410fe0:	ffffffff ffffffff ffffffff ffffffff     ................
  410ff0:	ffffffff ffffffff ffffffff ffffffff     ................
  411000:	ffffffff ffffffff ffffffff 00000000     ................
	...
  411020:	ffffff00 ffffffff ffffffff ffffffff     ................
  411030:	00ffffff 00000000 00000000 00000000     ................
	...
  411048:	ffffffff ffffffff ffffffff ffffffff     ................
  411058:	ffffffff ffffffff ffffffff ffffffff     ................
  411068:	ffffffff ffffffff ffffffff ffffffff     ................
  411078:	ffffffff ffffffff ffffffff ffffffff     ................
  411088:	ffffffff ffffffff ffffffff ffffffff     ................
  411098:	ffffffff ffffffff ffffffff 000000ff     ................
	...
  4110c0:	ffffffff ffffffff ffffffff ffffffff     ................
  4110d0:	ffffffff ffffffff ffffffff ffffffff     ................
  4110e0:	ffffffff ffffffff ffffffff ffffffff     ................
  4110f0:	ffffffff ffffffff ffffffff ffffffff     ................
  411100:	ffffffff ffffffff ffffffff ffffffff     ................
  411110:	ffffffff ffffffff 0000ffff 00000000     ................
	...
  41112c:	ff000000 ffffffff ffffffff ffffffff     ................
  41113c:	ffffffff 000000ff 00000000 00000000     ................
	...
  411154:	ffff0000 ffffffff ffffffff ffffffff     ................
  411164:	ffffffff ffffffff ffffffff ffffffff     ................
  411174:	ffffffff ffffffff ffffffff ffffffff     ................
  411184:	ffffffff ffffffff ffffffff ffffffff     ................
  411194:	ffffffff ffffffff ffffffff ffffffff     ................
  4111a4:	ffffffff ffffffff ffffffff ffffffff     ................
  4111b4:	0000ffff 00000000 00000000 00000000     ................
	...
  4111d0:	ffffff00 ffffffff ffffffff ffffffff     ................
  4111e0:	ffffffff ffffffff ffffffff ffffffff     ................
  4111f0:	ffffffff ffffffff ffffffff ffffffff     ................
  411200:	ffffffff ffffffff ffffffff ffffffff     ................
  411210:	ffffffff ffffffff ffffffff ffffffff     ................
  411220:	ffffffff ffffffff 00000000 00000000     ................
	...
  41123c:	ffffff00 ffffffff ffffffff ffffffff     ................
  41124c:	00ffffff 00000000 00000000 00000000     ................
	...
  411264:	ff000000 ffffffff ffffffff ffffffff     ................
  411274:	ffffffff ffffffff ffffffff ffffffff     ................
  411284:	ffffffff ffffffff ffffffff ffffffff     ................
  411294:	ffffffff ffffffff ffffffff ffffffff     ................
  4112a4:	ffffffff ffffffff ffffffff ffffffff     ................
  4112b4:	ffffffff ffffffff ffffffff ffffffff     ................
  4112c4:	ffffffff ffffffff ffffffff ffffffff     ................
  4112d4:	0000ffff 00000000 00000000 ffff0000     ................
  4112e4:	ffffffff ffffffff ffffffff ffffffff     ................
  4112f4:	ffffffff ffffffff ffffffff ffffffff     ................
  411304:	ffffffff ffffffff ffffffff ffffffff     ................
  411314:	ffffffff ffffffff ffffffff ffffffff     ................
  411324:	ffffffff ffffffff ffffffff ffffffff     ................
  411334:	0000ffff 00000000 00000000 00000000     ................
  411344:	00000000 ff000000 ffffffff ffffffff     ................
  411354:	ffffffff ffffffff 000000ff 00000000     ................
	...
  411374:	ffffff00 ffffffff ffffffff ffffffff     ................
  411384:	ffffffff ffffffff ffffffff ffffffff     ................
  411394:	ffffffff ffffffff ffffffff ffffffff     ................
  4113a4:	ffffffff ffffffff ffffffff ffffffff     ................
  4113b4:	ffffffff ffffffff ffffffff ffffffff     ................
  4113c4:	ffffffff ffffffff ffffffff ffffffff     ................
  4113d4:	ffffffff ffffffff ffffffff ffffffff     ................
  4113e4:	00ffffff 00000000 00000000 ff000000     ................
  4113f4:	ffffffff ffffffff ffffffff ffffffff     ................
  411404:	ffffffff ffffffff ffffffff ffffffff     ................
  411414:	ffffffff ffffffff ffffffff ffffffff     ................
  411424:	ffffffff ffffffff ffffffff ffffffff     ................
  411434:	ffffffff ffffffff ffffffff ffffffff     ................
	...
  411458:	ffffff00 ffffffff ffffffff ffffffff     ................
  411468:	ffffffff 0000ffff 00000000 00000000     ................
	...
  411480:	ff000000 ffffffff ffffffff ffffffff     ................
  411490:	ffffffff ffffffff ffffffff ffffffff     ................
  4114a0:	ffffffff ffffffff ffffffff ffffffff     ................
  4114b0:	ffffffff ffffffff ffffffff ffffffff     ................
  4114c0:	ffffffff ffffffff ffffffff ffffffff     ................
  4114d0:	ffffffff ffffffff ffffffff ffffffff     ................
  4114e0:	ffffffff ffffffff ffffffff ffffffff     ................
  4114f0:	ffffffff ffffffff 00000000 00000000     ................
  411500:	00000000 ffffffff ffffffff ffffffff     ................
  411510:	ffffffff ffffffff ffffffff ffffffff     ................
  411520:	ffffffff ffffffff ffffffff ffffffff     ................
  411530:	ffffffff ffffffff ffffffff ffffffff     ................
  411540:	ffffffff ffffffff ffffffff ffffffff     ................
  411550:	0000ffff 00000000 00000000 00000000     ................
  411560:	00000000 ff000000 ffffffff ffffffff     ................
  411570:	ffffffff ffffffff ffffffff 00000000     ................
	...
  411590:	ffffff00 ffffffff ffffffff ffffffff     ................
  4115a0:	ffffffff ffffffff ffffffff ffffffff     ................
  4115b0:	ffffffff ffffffff ffffffff ffffffff     ................
  4115c0:	ffffffff ffffffff ffffffff ffffffff     ................
  4115d0:	ffffffff ffffffff ffffffff ffffffff     ................
  4115e0:	ffffffff ffffffff ffffffff ffffffff     ................
  4115f0:	ffffffff ffffffff ffffffff ffffffff     ................
  411600:	ffffffff ffffffff 000000ff 00000000     ................
  411610:	00000000 ffffff00 ffffffff ffffffff     ................
  411620:	ffffffff ffffffff ffffffff ffffffff     ................
  411630:	ffffffff ffffffff ffffffff ffffffff     ................
  411640:	ffffffff ffffffff ffffffff ffffffff     ................
  411650:	ffffffff ffffffff ffffffff 000000ff     ................
	...
  411674:	ffffff00 ffffffff ffffffff ffffffff     ................
  411684:	ffffffff 0000ffff 00000000 00000000     ................
	...
  41169c:	ff000000 ffffffff ffffffff ffffffff     ................
  4116ac:	ffffffff ffffffff ffffffff ffffffff     ................
  4116bc:	ffffffff ffffffff ffffffff ffffffff     ................
  4116cc:	ffffffff ffffffff ffffffff ffffffff     ................
  4116dc:	ffffffff ffffffff ffffffff ffffffff     ................
  4116ec:	ffffffff ffffffff ffffffff ffffffff     ................
  4116fc:	ffffffff ffffffff ffffffff ffffffff     ................
  41170c:	ffffffff ffffffff ffffffff 0000ffff     ................
	...
  411724:	ffff0000 ffffffff ffffffff ffffffff     ................
  411734:	ffffffff ffffffff ffffffff ffffffff     ................
  411744:	ffffffff ffffffff ffffffff ffffffff     ................
  411754:	ffffffff ffffffff ffffffff ffffffff     ................
  411764:	ffffffff 00ffffff 00000000 00000000     ................
	...
  411780:	ffffffff ffffffff ffffffff ffffffff     ................
  411790:	ffffffff ffffffff 00000000 00000000     ................
	...
  4117b0:	ffffffff ffffffff ffffffff ffffffff     ................
  4117c0:	ffffffff ffffffff ffffffff ffffffff     ................
  4117d0:	ffffffff ffffffff ffffffff ffffffff     ................
  4117e0:	ffffffff ffffffff ffffffff ffffffff     ................
  4117f0:	ffffffff ffffffff ffffffff ffffffff     ................
  411800:	ffffffff ffffffff ffffffff ffffffff     ................
  411810:	ffffffff ffffffff ffffffff ffffffff     ................
  411820:	ffffffff ffffffff 00ffffff 00000000     ................
  411830:	00000000 ff000000 ffffffff ffffffff     ................
  411840:	ffffffff ffffffff ffffffff ffffffff     ................
  411850:	ffffffff ffffffff ffffffff ffffffff     ................
  411860:	ffffffff ffffffff ffffffff ffffffff     ................
  411870:	ffffffff ffffffff 000000ff 00000000     ................
	...
  41188c:	ffff0000 ffffffff ffffffff ffffffff     ................
  41189c:	ffffffff ffffffff 0000ffff 00000000     ................
	...
  4118bc:	ffff0000 ffffffff ffffffff ffffffff     ................
  4118cc:	ffffffff ffffffff ffffffff ffffffff     ................
  4118dc:	ffffffff ffffffff ffffffff ffffffff     ................
  4118ec:	ffffffff ffffffff ffffffff ffffffff     ................
  4118fc:	ffffffff ffffffff ffffffff ffffffff     ................
  41190c:	ffffffff ffffffff ffffffff ffffffff     ................
  41191c:	ffffffff ffffffff ffffffff ffffffff     ................
  41192c:	ffffffff ffffffff ffffffff ffffffff     ................
	...
  411948:	ffffffff ffffffff ffffffff ffffffff     ................
  411958:	ffffffff ffffffff ffffffff ffffffff     ................
  411968:	ffffffff ffffffff ffffffff ffffffff     ................
  411978:	ffffffff ffffffff ffffffff 00ffffff     ................
	...
  41199c:	ffffffff ffffffff ffffffff ffffffff     ................
  4119ac:	ffffffff ffffffff 00ffffff 00000000     ................
	...
  4119cc:	ffffffff ffffffff ffffffff ffffffff     ................
  4119dc:	ffffffff ffffffff ffffffff ffffffff     ................
  4119ec:	ffffffff ffffffff ffffffff ffffffff     ................
  4119fc:	ffffffff ffffffff ffffffff ffffffff     ................
  411a0c:	ffffffff ffffffff ffffffff ffffffff     ................
  411a1c:	ffffffff ffffffff ffffffff ffffffff     ................
  411a2c:	ffffffff ffffffff ffffffff ffffffff     ................
  411a3c:	ffffffff ffffffff ffffffff ffffffff     ................
  411a4c:	000000ff 00000000 00000000 ffffff00     ................
  411a5c:	ffffffff ffffffff ffffffff ffffffff     ................
  411a6c:	ffffffff ffffffff ffffffff ffffffff     ................
  411a7c:	ffffffff ffffffff ffffffff ffffffff     ................
  411a8c:	ffffffff 0000ffff 00000000 00000000     ................
	...
  411aa8:	ffff0000 ffffffff ffffffff ffffffff     ................
  411ab8:	ffffffff ffffffff ffffffff 000000ff     ................
	...
  411adc:	ffffff00 ffffffff ffffffff ffffffff     ................
  411aec:	ffffffff ffffffff ffffffff ffffffff     ................
  411afc:	ffffffff ffffffff ffffffff ffffffff     ................
  411b0c:	ffffffff ffffffff ffffffff ffffffff     ................
  411b1c:	ffffffff ffffffff ffffffff ffffffff     ................
  411b2c:	ffffffff ffffffff ffffffff ffffffff     ................
  411b3c:	ffffffff ffffffff ffffffff ffffffff     ................
  411b4c:	ffffffff ffffffff ffffffff ffffffff     ................
  411b5c:	0000ffff 00000000 00000000 ffff0000     ................
  411b6c:	ffffffff ffffffff ffffffff ffffffff     ................
  411b7c:	ffffffff ffffffff ffffffff ffffffff     ................
  411b8c:	ffffffff ffffffff ffffffff ffffffff     ................
  411b9c:	ffffffff 00000000 00000000 00000000     ................
	...
  411bb4:	ffffff00 ffffffff ffffffff ffffffff     ................
  411bc4:	ffffffff ffffffff ffffffff 00ffffff     ................
	...
  411be8:	ff000000 ffffffff ffffffff ffffffff     ................
  411bf8:	ffffffff ffffffff ffffffff ffffffff     ................
  411c08:	ffffffff ffffffff ffffffff ffffffff     ................
  411c18:	ffffffff ffffffff ffffffff ffffffff     ................
  411c28:	ffffffff ffffffff ffffffff ffffffff     ................
  411c38:	ffffffff ffffffff ffffffff ffffffff     ................
  411c48:	ffffffff ffffffff ffffffff ffffffff     ................
  411c58:	ffffffff ffffffff ffffffff ffffffff     ................
  411c68:	ffffffff 00ffffff 00000000 00000000     ................
  411c78:	ff000000 ffffffff ffffffff ffffffff     ................
  411c88:	ffffffff ffffffff ffffffff ffffffff     ................
  411c98:	ffffffff ffffffff ffffffff ffffffff     ................
  411ca8:	00ffffff 00000000 00000000 00000000     ................
	...
  411cc0:	ff000000 ffffffff ffffffff ffffffff     ................
  411cd0:	ffffffff ffffffff ffffffff ffffffff     ................
  411ce0:	ffffffff 00000000 00000000 00000000     ................
	...
  411cfc:	ffffffff ffffffff ffffffff ffffffff     ................
  411d0c:	ffffffff ffffffff ffffffff ffffffff     ................
  411d1c:	ffffffff ffffffff ffffffff ffffffff     ................
  411d2c:	ffffffff ffffffff ffffffff ffffffff     ................
  411d3c:	ffffffff ffffffff ffffffff ffffffff     ................
  411d4c:	ffffffff ffffffff ffffffff ffffffff     ................
  411d5c:	ffffffff ffffffff ffffffff ffffffff     ................
  411d6c:	ffffffff ffffffff ffffffff ffffffff     ................
  411d7c:	ffffffff 00000000 00000000 00000000     ................
  411d8c:	ffffffff ffffffff ffffffff ffffffff     ................
  411d9c:	ffffffff ffffffff ffffffff ffffffff     ................
  411dac:	ffffffff ffffffff ffffffff 000000ff     ................
	...
  411dd0:	ffffff00 ffffffff ffffffff ffffffff     ................
  411de0:	ffffffff ffffffff ffffffff ffffffff     ................
  411df0:	0000ffff 00000000 00000000 00000000     ................
	...
  411e08:	ffff0000 ffffffff ffffffff ffffffff     ................
  411e18:	ffffffff ffffffff ffffffff ffffffff     ................
  411e28:	ffffffff ffffffff ffffffff ffffffff     ................
  411e38:	ffffffff ffffffff ffffffff ffffffff     ................
  411e48:	ffffffff ffffffff ffffffff ffffffff     ................
  411e58:	ffffffff ffffffff ffffffff ffffffff     ................
  411e68:	ffffffff ffffffff ffffffff ffffffff     ................
  411e78:	ffffffff ffffffff ffffffff ffffffff     ................
  411e88:	ffffffff ffffffff 000000ff 00000000     ................
  411e98:	00000000 ffffff00 ffffffff ffffffff     ................
  411ea8:	ffffffff ffffffff ffffffff ffffffff     ................
  411eb8:	ffffffff ffffffff ffffffff 00000000     ................
	...
  411edc:	ffffffff ffffffff ffffffff ffffffff     ................
  411eec:	ffffffff ffffffff ffffffff ffffffff     ................
  411efc:	ffffffff 00ffffff 00000000 00000000     ................
	...
  411f18:	ff000000 ffffffff ffffffff ffffffff     ................
  411f28:	ffffffff ffffffff ffffffff ffffffff     ................
  411f38:	ffffffff ffffffff ffffffff ffffffff     ................
  411f48:	ffffffff ffffffff ffffffff ffffffff     ................
  411f58:	ffffffff ffffffff ffffffff ffffffff     ................
  411f68:	ffffffff ffffffff ffffffff ffffffff     ................
  411f78:	ffffffff ffffffff ffffffff ffffffff     ................
  411f88:	ffffffff ffffffff ffffffff ffffffff     ................
  411f98:	ffffffff ffffffff 0000ffff 00000000     ................
  411fa8:	00000000 ffff0000 ffffffff ffffffff     ................
  411fb8:	ffffffff ffffffff ffffffff ffffffff     ................
  411fc8:	ffffffff ffffffff 0000ffff 00000000     ................
	...
  411fe8:	ffff0000 ffffffff ffffffff ffffffff     ................
  411ff8:	ffffffff ffffffff ffffffff ffffffff     ................
  412008:	ffffffff ffffffff 000000ff 00000000     ................
	...
  412028:	ffffff00 ffffffff ffffffff ffffffff     ................
  412038:	ffffffff ffffffff ffffffff ffffffff     ................
  412048:	ffffffff ffffffff ffffffff ffffffff     ................
  412058:	ffffffff ffffffff ffffffff ffffffff     ................
  412068:	ffffffff ffffffff ffffffff ffffffff     ................
  412078:	ffffffff ffffffff ffffffff ffffffff     ................
  412088:	ffffffff ffffffff ffffffff ffffffff     ................
  412098:	ffffffff ffffffff ffffffff ffffffff     ................
  4120a8:	ffffffff ffffffff 00ffffff 00000000     ................
  4120b8:	00000000 ff000000 ffffffff ffffffff     ................
  4120c8:	ffffffff ffffffff ffffffff ffffffff     ................
  4120d8:	ffffffff 000000ff 00000000 00000000     ................
	...
  4120f4:	ffffff00 ffffffff ffffffff ffffffff     ................
  412104:	ffffffff ffffffff ffffffff ffffffff     ................
  412114:	ffffffff ffffffff ffffffff 0000ffff     ................
	...
  412138:	ffff0000 ffffffff ffffffff ffffffff     ................
  412148:	ffffffff ffffffff ffffffff ffffffff     ................
  412158:	ffffffff ffffffff ffffffff ffffffff     ................
  412168:	ffffffff ffffffff ffffffff ffffffff     ................
  412178:	ffffffff ffffffff ffffffff ffffffff     ................
  412188:	ffffffff ffffffff ffffffff ffffffff     ................
  412198:	ffffffff ffffffff ffffffff ffffffff     ................
  4121a8:	ffffffff ffffffff ffffffff ffffffff     ................
  4121b8:	ffffffff ffffffff ffffffff 00000000     ................
  4121c8:	00000000 ffffff00 ffffffff ffffffff     ................
  4121d8:	ffffffff ffffffff ffffffff ffffffff     ................
  4121e8:	00ffffff 00000000 00000000 00000000     ................
	...
  412200:	ff000000 ffffffff ffffffff ffffffff     ................
  412210:	ffffffff ffffffff ffffffff ffffffff     ................
  412220:	ffffffff ffffffff ffffffff ffffffff     ................
	...
  412248:	ffffffff ffffffff ffffffff ffffffff     ................
  412258:	ffffffff ffffffff ffffffff ffffffff     ................
  412268:	ffffffff ffffffff ffffffff ffffffff     ................
  412278:	ffffffff ffffffff ffffffff ffffffff     ................
  412288:	ffffffff ffffffff ffffffff ffffffff     ................
  412298:	ffffffff ffffffff ffffffff ffffffff     ................
  4122a8:	ffffffff ffffffff ffffffff ffffffff     ................
  4122b8:	ffffffff ffffffff ffffffff ffffffff     ................
  4122c8:	ffffffff ffffffff ffffffff 000000ff     ................
  4122d8:	ffffffff ffffffff ffffffff ffffffff     ................
  4122e8:	ffffffff ffffffff ffffffff 0000ffff     ................
	...
  41230c:	ffff0000 ffffffff ffffffff ffffffff     ................
  41231c:	ffffffff ffffffff ffffffff ffffffff     ................
  41232c:	ffffffff ffffffff ffffffff ffffffff     ................
  41233c:	ffffffff 000000ff 00000000 00000000     ................
	...
  412358:	ffffff00 ffffffff ffffffff ffffffff     ................
  412368:	ffffffff ffffffff ffffffff ffffffff     ................
  412378:	ffffffff ffffffff ffffffff ffffffff     ................
  412388:	ffffffff ffffffff ffffffff ffffffff     ................
  412398:	ffffffff ffffffff ffffffff ffffffff     ................
  4123a8:	ffffffff ffffffff ffffffff ffffffff     ................
  4123b8:	ffffffff ffffffff ffffffff ffffffff     ................
  4123c8:	ffffffff ffffffff ffffffff ffffffff     ................
  4123d8:	ffffffff ffffffff ffffffff ffffffff     ................
  4123e8:	ffffffff ffffffff ffffffff ffffffff     ................
  4123f8:	ffffffff ffffffff 000000ff 00000000     ................
	...
  41241c:	ffffffff ffffffff ffffffff ffffffff     ................
  41242c:	ffffffff ffffffff ffffffff ffffffff     ................
  41243c:	ffffffff ffffffff ffffffff ffffffff     ................
  41244c:	00ffffff 00000000 00000000 00000000     ................
	...
  412468:	ffff0000 ffffffff ffffffff ffffffff     ................
  412478:	ffffffff ffffffff ffffffff ffffffff     ................
  412488:	ffffffff ffffffff ffffffff ffffffff     ................
  412498:	ffffffff ffffffff ffffffff ffffffff     ................
  4124a8:	ffffffff ffffffff ffffffff ffffffff     ................
  4124b8:	ffffffff ffffffff ffffffff ffffffff     ................
  4124c8:	ffffffff ffffffff ffffffff ffffffff     ................
  4124d8:	ffffffff ffffffff ffffffff ffffffff     ................
  4124e8:	ffffffff ffffffff ffffffff ffffffff     ................
  4124f8:	ffffffff ffffffff ffffffff ffffffff     ................
  412508:	ffffffff 00000000 00000000 00000000     ................
	...
  412524:	ff000000 ffffffff ffffffff ffffffff     ................
  412534:	ffffffff ffffffff ffffffff ffffffff     ................
  412544:	ffffffff ffffffff ffffffff ffffffff     ................
  412554:	ffffffff ffffffff ffffffff 00000000     ................
	...
  412578:	ff000000 ffffffff ffffffff ffffffff     ................
  412588:	ffffffff ffffffff ffffffff ffffffff     ................
  412598:	ffffffff ffffffff ffffffff ffffffff     ................
  4125a8:	ffffffff ffffffff ffffffff ffffffff     ................
  4125b8:	ffffffff ffffffff ffffffff ffffffff     ................
  4125c8:	ffffffff ffffffff ffffffff ffffffff     ................
  4125d8:	ffffffff ffffffff ffffffff ffffffff     ................
  4125e8:	ffffffff ffffffff ffffffff ffffffff     ................
  4125f8:	ffffffff ffffffff ffffffff ffffffff     ................
  412608:	ffffffff ffffffff ffffffff ffffffff     ................
  412618:	0000ffff 00000000 00000000 00000000     ................
	...
  412634:	ffffff00 ffffffff ffffffff ffffffff     ................
  412644:	ffffffff ffffffff ffffffff ffffffff     ................
  412654:	ffffffff ffffffff ffffffff ffffffff     ................
  412664:	ffffffff ffffffff ffffffff 000000ff     ................
	...
  41268c:	ffffffff ffffffff ffffffff ffffffff     ................
  41269c:	ffffffff ffffffff ffffffff ffffffff     ................
  4126ac:	ffffffff ffffffff ffffffff ffffffff     ................
  4126bc:	ffffffff ffffffff ffffffff ffffffff     ................
  4126cc:	ffffffff ffffffff ffffffff ffffffff     ................
  4126dc:	ffffffff ffffffff ffffffff ffffffff     ................
  4126ec:	ffffffff ffffffff ffffffff ffffffff     ................
  4126fc:	ffffffff ffffffff ffffffff ffffffff     ................
  41270c:	ffffffff ffffffff ffffffff ffffffff     ................
  41271c:	ffffffff ffffffff 000000ff 00000000     ................
	...
  412740:	ffffffff ffffffff ffffffff ffffffff     ................
  412750:	ffffffff ffffffff ffffffff ffffffff     ................
  412760:	ffffffff ffffffff ffffffff ffffffff     ................
  412770:	ffffffff ffffffff ffffffff 00ffffff     ................
	...
  41279c:	ffffff00 ffffffff ffffffff ffffffff     ................
  4127ac:	ffffffff ffffffff ffffffff ffffffff     ................
  4127bc:	ffffffff ffffffff ffffffff ffffffff     ................
  4127cc:	ffffffff ffffffff ffffffff ffffffff     ................
  4127dc:	ffffffff ffffffff ffffffff ffffffff     ................
  4127ec:	ffffffff ffffffff ffffffff ffffffff     ................
  4127fc:	ffffffff ffffffff ffffffff ffffffff     ................
  41280c:	ffffffff ffffffff ffffffff ffffffff     ................
  41281c:	ffffffff ffffffff ffffffff ffffffff     ................
  41282c:	ffffffff 00000000 00000000 00000000     ................
	...
  412848:	ff000000 ffffffff ffffffff ffffffff     ................
  412858:	ffffffff ffffffff ffffffff ffffffff     ................
  412868:	ffffffff ffffffff ffffffff ffffffff     ................
  412878:	ffffffff ffffffff ffffffff ffffffff     ................
  412888:	ffffffff ffffffff 00000000 00000000     ................
	...
  4128ac:	ffff0000 ffffffff ffffffff ffffffff     ................
  4128bc:	ffffffff ffffffff ffffffff ffffffff     ................
  4128cc:	ffffffff ffffffff ffffffff ffffffff     ................
  4128dc:	ffffffff ffffffff ffffffff ffffffff     ................
  4128ec:	ffffffff ffffffff ffffffff ffffffff     ................
  4128fc:	ffffffff ffffffff ffffffff ffffffff     ................
  41290c:	ffffffff ffffffff ffffffff ffffffff     ................
  41291c:	ffffffff ffffffff ffffffff ffffffff     ................
  41292c:	ffffffff ffffffff ffffffff 00ffffff     ................
	...
  412954:	ffff0000 ffffffff ffffffff ffffffff     ................
  412964:	ffffffff ffffffff ffffffff ffffffff     ................
  412974:	ffffffff ffffffff ffffffff ffffffff     ................
  412984:	ffffffff ffffffff ffffffff ffffffff     ................
  412994:	ffffffff ffffffff ffffffff 000000ff     ................
	...
  4129bc:	ff000000 ffffffff ffffffff ffffffff     ................
  4129cc:	ffffffff ffffffff ffffffff ffffffff     ................
  4129dc:	ffffffff ffffffff ffffffff ffffffff     ................
  4129ec:	ffffffff ffffffff ffffffff ffffffff     ................
  4129fc:	0000ffff 00000000 ff000000 ffffffff     ................
  412a0c:	ffffffff ffffffff ffffffff ffffffff     ................
  412a1c:	ffffffff ffffffff ffffffff ffffffff     ................
  412a2c:	ffffffff ffffffff ffffffff ffffffff     ................
  412a3c:	ffffffff ffffffff 0000ffff 00000000     ................
	...
  412a64:	ffffffff ffffffff ffffffff ffffffff     ................
  412a74:	ffffffff ffffffff ffffffff ffffffff     ................
  412a84:	ffffffff ffffffff ffffffff ffffffff     ................
  412a94:	ffffffff ffffffff ffffffff ffffffff     ................
  412aa4:	ffffffff ffffffff ffffffff 0000ffff     ................
	...
  412ad0:	ffffffff ffffffff ffffffff ffffffff     ................
  412ae0:	ffffffff ffffffff ffffffff ffffffff     ................
  412af0:	ffffffff ffffffff ffffffff ffffffff     ................
  412b00:	ffffffff ffffffff ffffffff 00000000     ................
  412b10:	00000000 ffffff00 ffffffff ffffffff     ................
  412b20:	ffffffff ffffffff ffffffff ffffffff     ................
  412b30:	ffffffff ffffffff ffffffff ffffffff     ................
  412b40:	ffffffff ffffffff ffffffff 0000ffff     ................
	...
  412b6c:	ff000000 ffffffff ffffffff ffffffff     ................
  412b7c:	ffffffff ffffffff ffffffff ffffffff     ................
  412b8c:	ffffffff ffffffff ffffffff ffffffff     ................
  412b9c:	ffffffff ffffffff ffffffff ffffffff     ................
  412bac:	ffffffff ffffffff ffffffff ffffffff     ................
  412bbc:	ffffffff 00ffffff 00000000 00000000     ................
	...
  412be4:	ffffffff ffffffff ffffffff ffffffff     ................
  412bf4:	ffffffff ffffffff ffffffff ffffffff     ................
  412c04:	ffffffff ffffffff ffffffff ffffffff     ................
  412c14:	ffffffff 0000ffff 00000000 ff000000     ................
  412c24:	ffffffff ffffffff ffffffff ffffffff     ................
  412c34:	ffffffff ffffffff ffffffff ffffffff     ................
  412c44:	ffffffff ffffffff ffffffff ffffffff     ................
  412c54:	ffffffff 000000ff 00000000 00000000     ................
	...
  412c78:	ffff0000 ffffffff ffffffff ffffffff     ................
  412c88:	ffffffff ffffffff ffffffff ffffffff     ................
  412c98:	ffffffff ffffffff ffffffff ffffffff     ................
  412ca8:	ffffffff ffffffff ffffffff ffffffff     ................
  412cb8:	ffffffff ffffffff ffffffff ffffffff     ................
  412cc8:	ffffffff ffffffff ffffffff 00000000     ................
	...
  412cf4:	ffffff00 ffffffff ffffffff ffffffff     ................
  412d04:	ffffffff ffffffff ffffffff ffffffff     ................
  412d14:	ffffffff ffffffff ffffffff ffffffff     ................
  412d24:	ffffffff 00000000 00000000 ffffff00     ................
  412d34:	ffffffff ffffffff ffffffff ffffffff     ................
  412d44:	ffffffff ffffffff ffffffff ffffffff     ................
  412d54:	ffffffff ffffffff ffffffff 000000ff     ................
	...
  412d84:	ffffff00 ffffffff ffffffff ffffffff     ................
  412d94:	ffffffff ffffffff ffffffff ffffffff     ................
  412da4:	ffffffff ffffffff ffffffff ffffffff     ................
  412db4:	ffffffff ffffffff ffffffff ffffffff     ................
  412dc4:	ffffffff ffffffff ffffffff ffffffff     ................
  412dd4:	ffffffff ffffffff ffffffff ffffffff     ................
  412de4:	000000ff 00000000 00000000 00000000     ................
	...
  412e08:	ffffff00 ffffffff ffffffff ffffffff     ................
  412e18:	ffffffff ffffffff ffffffff ffffffff     ................
  412e28:	ffffffff ffffffff ffffffff 0000ffff     ................
  412e38:	00000000 ff000000 ffffffff ffffffff     ................
  412e48:	ffffffff ffffffff ffffffff ffffffff     ................
  412e58:	ffffffff ffffffff ffffffff ffffffff     ................
  412e68:	000000ff 00000000 00000000 00000000     ................
	...
  412e90:	ffffffff ffffffff ffffffff ffffffff     ................
  412ea0:	ffffffff ffffffff ffffffff ffffffff     ................
  412eb0:	ffffffff ffffffff ffffffff ffffffff     ................
  412ec0:	ffffffff ffffffff ffffffff ffffffff     ................
  412ed0:	ffffffff ffffffff ffffffff ffffffff     ................
  412ee0:	ffffffff ffffffff ffffffff ffffffff     ................
  412ef0:	ffffffff 0000ffff 00000000 00000000     ................
	...
  412f1c:	ffffff00 ffffffff ffffffff ffffffff     ................
  412f2c:	ffffffff ffffffff ffffffff ffffffff     ................
  412f3c:	ffffffff ffffffff 00000000 00000000     ................
  412f4c:	ffffff00 ffffffff ffffffff ffffffff     ................
  412f5c:	ffffffff ffffffff ffffffff ffffffff     ................
  412f6c:	ffffffff 000000ff 00000000 00000000     ................
	...
  412f98:	ff000000 ffffffff ffffffff ffffffff     ................
  412fa8:	ffffffff ffffffff ffffffff ffffffff     ................
  412fb8:	ffffffff ffffffff ffffffff ffffffff     ................
  412fc8:	ffffffff ffffffff ffffffff ffffffff     ................
  412fd8:	ffffffff ffffffff ffffffff ffffffff     ................
  412fe8:	ffffffff ffffffff ffffffff ffffffff     ................
  412ff8:	ffffffff ffffffff ffffffff 00ffffff     ................
	...
  413034:	ffffffff ffffffff ffffffff ffffffff     ................
  413044:	ffffffff ffffffff ffffffff 0000ffff     ................
  413054:	00000000 ffffffff ffffffff ffffffff     ................
  413064:	ffffffff ffffffff ffffffff ffffffff     ................
  413074:	ffffffff 000000ff 00000000 00000000     ................
	...
  4130a0:	ff000000 ffffffff ffffffff ffffffff     ................
  4130b0:	ffffffff ffffffff ffffffff ffffffff     ................
  4130c0:	ffffffff ffffffff ffffffff ffffffff     ................
  4130d0:	ffffffff ffffffff ffffffff ffffffff     ................
  4130e0:	ffffffff ffffffff ffffffff ffffffff     ................
  4130f0:	ffffffff ffffffff ffffffff ffffffff     ................
  413100:	ffffffff ffffffff ffffffff ffffffff     ................
  413110:	ffffffff ffffffff 00000000 00000000     ................
	...
  413148:	ff000000 ffffffff ffffffff ffffffff     ................
  413158:	ffffffff ffffffff ffffffff ffffffff     ................
  413168:	ffffffff ffffffff ffffffff ffffffff     ................
  413178:	00ffffff 00000000 00000000 00000000     ................
	...
  4131ac:	ffff0000 ffffffff ffffffff ffffffff     ................
  4131bc:	ffffffff ffffffff ffffffff ffffffff     ................
  4131cc:	ffffffff ffffffff ffffffff ffffffff     ................
  4131dc:	ffffffff ffffffff ffffffff ffffffff     ................
  4131ec:	ffffffff ffffffff ffffffff ffffffff     ................
  4131fc:	ffffffff ffffffff ffffffff ffffffff     ................
  41320c:	ffffffff ffffffff ffffffff ffffffff     ................
  41321c:	ffffffff ffffffff ffffffff ffffffff     ................
	...
  4132b8:	ffffff00 ffffffff ffffffff ffffffff     ................
  4132c8:	ffffffff ffffffff ffffffff ffffffff     ................
  4132d8:	ffffffff ffffffff ffffffff ffffffff     ................
  4132e8:	ffffffff ffffffff ffffffff ffffffff     ................
  4132f8:	ffffffff ffffffff ffffffff ffffffff     ................
  413308:	ffffffff ffffffff ffffffff ffffffff     ................
  413318:	ffffffff ffffffff ffffffff ffffffff     ................
  413328:	ffffffff ffffffff ffffffff ffffffff     ................
  413338:	ffffffff 000000ff 00000000 00000000     ................
	...
  4133c0:	ffffff00 ffffffff ffffffff ffffffff     ................
  4133d0:	ffffffff ffffffff ffffffff ffffffff     ................
  4133e0:	ffffffff ffffffff ffffffff ffffffff     ................
  4133f0:	ffffffff ffffffff ffffffff ffffffff     ................
  413400:	ffffffff ffffffff ffffffff ffffffff     ................
  413410:	ffffffff ffffffff ffffffff ffffffff     ................
  413420:	ffffffff ffffffff ffffffff ffffffff     ................
  413430:	ffffffff ffffffff ffffffff ffffffff     ................
  413440:	ffffffff ffffffff ffffffff ffffffff     ................
  413450:	000000ff 00000000 00000000 00000000     ................
	...
  4134c8:	ffffff00 ffffffff ffffffff ffffffff     ................
  4134d8:	ffffffff ffffffff ffffffff ffffffff     ................
  4134e8:	ffffffff ffffffff ffffffff ffffffff     ................
  4134f8:	ffffffff ffffffff ffffffff ffffffff     ................
  413508:	ffffffff ffffffff ffffffff ffffffff     ................
  413518:	ffffffff ffffffff ffffffff ffffffff     ................
  413528:	ffffffff ffffffff ffffffff ffffffff     ................
  413538:	ffffffff ffffffff ffffffff ffffffff     ................
  413548:	ffffffff ffffffff ffffffff ffffffff     ................
  413558:	ffffffff ffffffff ffffffff 000000ff     ................
	...
  4135d0:	ffffff00 ffffffff ffffffff ffffffff     ................
  4135e0:	ffffffff ffffffff ffffffff ffffffff     ................
  4135f0:	ffffffff ffffffff ffffffff ffffffff     ................
  413600:	ffffffff ffffffff ffffffff ffffffff     ................
  413610:	ffffffff ffffffff ffffffff ffffffff     ................
  413620:	ffffffff ffffffff ffffffff ffffffff     ................
  413630:	ffffffff ffffffff ffffffff ffffffff     ................
  413640:	ffffffff ffffffff ffffffff ffffffff     ................
  413650:	ffffffff ffffffff ffffffff ffffffff     ................
  413660:	ffffffff ffffffff ffffffff ffffffff     ................
  413670:	ffffffff ffffffff 000000ff 00000000     ................
	...
  4136d8:	ffffff00 ffffffff ffffffff ffffffff     ................
  4136e8:	ffffffff ffffffff ffffffff ffffffff     ................
  4136f8:	ffffffff ffffffff ffffffff ffffffff     ................
  413708:	ffffffff ffffffff ffffffff ffffffff     ................
  413718:	ffffffff ffffffff ffffffff ffffffff     ................
  413728:	ffffffff ffffffff ffffffff ffffffff     ................
  413738:	ffffffff ffffffff ffffffff ffffffff     ................
  413748:	ffffffff ffffffff ffffffff ffffffff     ................
  413758:	ffffffff ffffffff ffffffff ffffffff     ................
  413768:	ffffffff ffffffff ffffffff ffffffff     ................
  413778:	ffffffff ffffffff ffffffff ffffffff     ................
  413788:	ffffffff ffffffff 00000000 00000000     ................
	...
  4137dc:	ffff0000 ffffffff ffffffff ffffffff     ................
  4137ec:	ffffffff ffffffff ffffffff ffffffff     ................
  4137fc:	ffffffff ffffffff ffffffff ffffffff     ................
  41380c:	ffffffff ffffffff ffffffff ffffffff     ................
  41381c:	ffffffff ffffffff ffffffff ffffffff     ................
  41382c:	ffffffff ffffffff ffffffff ffffffff     ................
  41383c:	ffffffff ffffffff ffffffff ffffffff     ................
  41384c:	ffffffff ffffffff ffffffff ffffffff     ................
  41385c:	ffffffff ffffffff ffffffff ffffffff     ................
  41386c:	ffffffff ffffffff ffffffff ffffffff     ................
  41387c:	ffffffff ffffffff ffffffff ffffffff     ................
  41388c:	ffffffff ffffffff ffffffff ffffffff     ................
  41389c:	ffffffff ffffffff ffffffff 0000ffff     ................
	...
  4138e0:	ff000000 ffffffff ffffffff ffffffff     ................
  4138f0:	ffffffff ffffffff ffffffff ffffffff     ................
  413900:	ffffffff ffffffff ffffffff ffffffff     ................
  413910:	ffffffff ffffffff ffffffff ffffffff     ................
  413920:	ffffffff ffffffff ffffffff ffffffff     ................
  413930:	ffffffff ffffffff ffffffff ffffffff     ................
  413940:	ffffffff ffffffff ffffffff ffffffff     ................
  413950:	ffffffff ffffffff ffffffff ffffffff     ................
  413960:	ffffffff ffffffff ffffffff ffffffff     ................
  413970:	ffffffff ffffffff ffffffff ffffffff     ................
  413980:	ffffffff ffffffff ffffffff ffffffff     ................
  413990:	ffffffff ffffffff ffffffff ffffffff     ................
  4139a0:	ffffffff ffffffff ffffffff ffffffff     ................
  4139b0:	ffffffff ffffffff ffffffff ffffffff     ................
  4139c0:	ffffffff ffffffff 0000ffff 00000000     ................
	...
  4139dc:	ffffffff ffffffff ffffffff ffffffff     ................
  4139ec:	ffffffff ffffffff ffffffff ffffffff     ................
  4139fc:	ffffffff ffffffff ffffffff ffffffff     ................
  413a0c:	ffffffff ffffffff ffffffff ffffffff     ................
  413a1c:	ffffffff ffffffff ffffffff ffffffff     ................
  413a2c:	ffffffff ffffffff ffffffff ffffffff     ................
  413a3c:	ffffffff ffffffff ffffffff ffffffff     ................
  413a4c:	ffffffff ffffffff ffffffff ffffffff     ................
  413a5c:	ffffffff ffffffff ffffffff ffffffff     ................
  413a6c:	ffffffff ffffffff ffffffff ffffffff     ................
  413a7c:	ffffffff ffffffff ffffffff ffffffff     ................
  413a8c:	ffffffff ffffffff ffffffff ffffffff     ................
  413a9c:	ffffffff ffffffff ffffffff ffffffff     ................
  413aac:	ffffffff ffffffff ffffffff ffffffff     ................
  413abc:	ffffffff ffffffff ffffffff ffffffff     ................
  413acc:	ffffffff ffffffff ffffffff ffffffff     ................
  413adc:	ffffffff ffffffff ffffffff ffffffff     ................
  413aec:	ffffffff ffffffff ffffffff ffffffff     ................
  413afc:	ffffffff ffffffff ffffffff ffffffff     ................
  413b0c:	ffffffff ffffffff ffffffff ffffffff     ................
  413b1c:	ffffffff ffffffff ffffffff ffffffff     ................
  413b2c:	ffffffff ffffffff ffffffff ffffffff     ................
  413b3c:	ffffffff ffffffff ffffffff ffffffff     ................
  413b4c:	ffffffff ffffffff ffffffff ffffffff     ................
  413b5c:	ffffffff ffffffff ffffffff ffffffff     ................
  413b6c:	ffffffff ffffffff ffffffff ffffffff     ................
  413b7c:	ffffffff ffffffff ffffffff ffffffff     ................
  413b8c:	ffffffff ffffffff ffffffff ffffffff     ................
  413b9c:	ffffffff ffffffff ffffffff ffffffff     ................
  413bac:	ffffffff ffffffff ffffffff ffffffff     ................
  413bbc:	ffffffff ffffffff ffffffff ffffffff     ................
  413bcc:	ffffffff ffffffff ffffffff ffffffff     ................
  413bdc:	ffffffff ffffffff ffffffff ffffffff     ................
  413bec:	ffffffff ffffffff ffffffff ffffffff     ................
  413bfc:	ffffffff ffffffff ffffffff ffffffff     ................
  413c0c:	ffffffff ffffffff ffffffff ffffffff     ................
  413c1c:	ffffffff ffffffff ffffffff ffffffff     ................
  413c2c:	ffffffff ffffffff ffffffff ffffffff     ................
  413c3c:	ffffffff ffffffff ffffffff ffffffff     ................
  413c4c:	ffffffff ffffffff ffffffff ffffffff     ................
  413c5c:	ffffffff ffffffff ffffffff ffffffff     ................
  413c6c:	ffffffff                                ....

00413c70 <image_data_fast>:
  413c70:	ffffffff ffffffff ffffffff ffffffff     ................
  413c80:	ffffffff ffffffff ffffffff ffffffff     ................
  413c90:	ffffffff ffffffff ffffffff ffffffff     ................
  413ca0:	ffffffff ffffffff ffffffff ffffffff     ................
  413cb0:	ffffffff ffffffff ffffffff ffffffff     ................
  413cc0:	ffffffff ffffffff ffffffff ffffffff     ................
  413cd0:	ffffffff ffffffff ffffffff ffffffff     ................
  413ce0:	ffffffff ffffffff ffffffff ffffffff     ................
  413cf0:	ffffffff ffffffff ffffffff ffffffff     ................
  413d00:	ffffffff ffffffff ffffffff ffffffff     ................
  413d10:	ffffffff ffffffff ffffffff ffffffff     ................
  413d20:	ffffffff ffffffff ffffffff ffffffff     ................
  413d30:	ffffffff ffffffff ffffffff ffffffff     ................
  413d40:	ffffffff ffffffff ffffffff ffffffff     ................
  413d50:	ffffffff ffffffff ffffffff ffffffff     ................
  413d60:	ffffffff ffffffff ffffffff ffffffff     ................
  413d70:	ffffffff ffffffff ffffffff ffffffff     ................
  413d80:	ffffffff ffffffff ffffffff ffffffff     ................
  413d90:	ffffffff ffffffff ffffffff ffffffff     ................
  413da0:	ffffffff ffffffff ffffffff ffffffff     ................
  413db0:	ffffffff ffffffff ffffffff ffffffff     ................
  413dc0:	ffffffff ffffffff ffffffff ffffffff     ................
  413dd0:	ffffffff ffffffff ffffffff ffffffff     ................
  413de0:	ffffffff ffffffff ffffffff ffffffff     ................
  413df0:	ffffffff ffffffff ffffffff ffffffff     ................
  413e00:	ffffffff ffffffff ffffffff ffffffff     ................
  413e10:	ffffffff ffffffff ffffffff ffffffff     ................
  413e20:	ffffffff ffffffff ffffffff ffffffff     ................
  413e30:	ffffffff ffffffff ffffffff ffffffff     ................
  413e40:	ffffffff ffffffff ffffffff ffffffff     ................
  413e50:	ffffffff ffffffff ffffffff ffffffff     ................
  413e60:	ffffffff ffffffff ffffffff ffffffff     ................
  413e70:	ffffffff ffffffff ffffffff ffffffff     ................
  413e80:	ffffffff ffffffff ffffffff ffffffff     ................
  413e90:	ffffffff ffffffff ffffffff ffffffff     ................
  413ea0:	ffffffff ffffffff ffffffff ffffffff     ................
  413eb0:	ffffffff ffffffff ffffffff ffffffff     ................
  413ec0:	ffffffff ffffffff ffffffff ffffffff     ................
  413ed0:	ffffffff ffffffff ffffffff ffffffff     ................
  413ee0:	ffffffff ffffffff ffffffff ffffffff     ................
  413ef0:	ffffffff ffffffff ffffffff ffffffff     ................
  413f00:	ffffffff ffffffff ffffffff 000000ff     ................
	...
  413f40:	ffffffff ffffffff ffffffff ffffffff     ................
  413f50:	ffffffff ffffffff ffffffff ffffffff     ................
  413f60:	ffffffff ffffffff ffffffff ffffffff     ................
  413f70:	ffffffff ffffffff ffffffff ffffffff     ................
  413f80:	ffffffff ffffffff ffffffff ffffffff     ................
  413f90:	ffffffff ffffffff ffffffff ffffffff     ................
  413fa0:	ffffffff ffffffff ffffffff ffffffff     ................
  413fb0:	ffffffff ffffffff ffffffff ffffffff     ................
  413fc0:	ffffffff ffffffff ffffffff ffffffff     ................
  413fd0:	ffffffff ffffffff ffffffff ffffffff     ................
  413fe0:	ffffffff ffffffff ffffffff ffffffff     ................
  413ff0:	ffffffff ffffffff ffffffff ffffffff     ................
  414000:	ffffffff ffffffff ffffffff ffffffff     ................
  414010:	ffffffff ffffffff 00ffffff 00000000     ................
	...
  41404c:	ffff0000 ffffffff ffffffff ffffffff     ................
  41405c:	ffffffff ffffffff ffffffff ffffffff     ................
  41406c:	ffffffff ffffffff ffffffff ffffffff     ................
  41407c:	ffffffff ffffffff ffffffff ffffffff     ................
  41408c:	ffffffff ffffffff ffffffff ffffffff     ................
  41409c:	ffffffff ffffffff ffffffff ffffffff     ................
  4140ac:	ffffffff ffffffff ffffffff ffffffff     ................
  4140bc:	ffffffff ffffffff ffffffff ffffffff     ................
  4140cc:	ffffffff ffffffff ffffffff ffffffff     ................
  4140dc:	ffffffff ffffffff ffffffff ffffffff     ................
  4140ec:	ffffffff ffffffff ffffffff ffffffff     ................
  4140fc:	ffffffff ffffffff ffffffff ffffffff     ................
  41410c:	ffffffff ffffffff ffffffff ffffffff     ................
  41411c:	ffffffff ffffffff ffffffff 000000ff     ................
	...
  414158:	ffffff00 ffffffff ffffffff ffffffff     ................
  414168:	ffffffff ffffffff ffffffff ffffffff     ................
  414178:	ffffffff ffffffff ffffffff ffffffff     ................
  414188:	ffffffff ffffffff ffffffff ffffffff     ................
  414198:	ffffffff ffffffff ffffffff ffffffff     ................
  4141a8:	ffffffff ffffffff ffffffff ffffffff     ................
  4141b8:	ffffffff ffffffff ffffffff ffffffff     ................
  4141c8:	ffffffff ffffffff ffffffff ffffffff     ................
  4141d8:	ffffffff ffffffff ffffffff ffffffff     ................
  4141e8:	ffffffff ffffffff ffffffff ffffffff     ................
  4141f8:	ffffffff ffffffff ffffffff ffffffff     ................
  414208:	ffffffff ffffffff ffffffff ffffffff     ................
  414218:	ffffffff ffffffff ffffffff ffffffff     ................
  414228:	ffffffff ffffffff ffffffff ffffffff     ................
  414238:	ffffffff ffffffff ffffffff ffffffff     ................
  414248:	ffffffff 00000000 00000000 ffffff00     ................
  414258:	ffffffff ffffffff ffffffff ffffffff     ................
  414268:	ffffffff ffffffff ffffffff ffffffff     ................
  414278:	ffffffff ffffffff ffffffff ffffffff     ................
  414288:	ffffffff ffffffff ffffffff ffffffff     ................
  414298:	ffffffff ffffffff ffffffff ffffffff     ................
  4142a8:	ffffffff ffffffff ffffffff ffffffff     ................
  4142b8:	ffffffff ffffffff ffffffff ffffffff     ................
  4142c8:	ffffffff ffffffff ffffffff ffffffff     ................
  4142d8:	ffffffff ffffffff ffffffff ffffffff     ................
  4142e8:	ffffffff ffffffff ffffffff ffffffff     ................
  4142f8:	ffffffff ffffffff ffffffff ffffffff     ................
  414308:	ffffffff ffffffff ffffffff ffffffff     ................
  414318:	ffffffff ffffffff ffffffff ffffffff     ................
  414328:	ffffffff ffffffff ffffffff ffffffff     ................
  414338:	ffffffff ffffffff ffffffff ffffffff     ................
  414348:	ffffffff ffffffff ffffffff ffffffff     ................
  414358:	0000ffff 00000000 ff000000 ffffffff     ................
  414368:	ffffffff ffffffff ffffffff ffffffff     ................
  414378:	ffffffff ffffffff ffffffff ffffffff     ................
  414388:	ffffffff ffffffff ffffffff ffffffff     ................
  414398:	ffffffff ffffffff ffffffff ffffffff     ................
  4143a8:	ffffffff ffffffff ffffffff ffffffff     ................
  4143b8:	ffffffff ffffffff ffffffff ffffffff     ................
  4143c8:	ffffffff ffffffff ffffffff ffffffff     ................
  4143d8:	ffffffff ffffffff ffffffff ffffffff     ................
  4143e8:	ffffffff ffffffff ffffffff ffffffff     ................
  4143f8:	ffffffff ffffffff ffffffff ffffffff     ................
  414408:	ffffffff ffffffff ffffffff ffffffff     ................
  414418:	ffffffff ffffffff ffffffff ffffffff     ................
  414428:	ffffffff ffffffff ffffffff ffffffff     ................
  414438:	ffffffff ffffffff ffffffff ffffffff     ................
  414448:	ffffffff ffffffff ffffffff ffffffff     ................
  414458:	ffffffff ffffffff ffffffff ffffffff     ................
	...
  414470:	ffffff00 ffffffff ffffffff ffffffff     ................
  414480:	ffffffff ffffffff ffffffff ffffffff     ................
  414490:	ffffffff ffffffff ffffffff ffffffff     ................
  4144a0:	ffffffff ffffffff ffffffff ffffffff     ................
  4144b0:	ffffffff ffffffff ffffffff ffffffff     ................
  4144c0:	ffffffff ffffffff ffffffff ffffffff     ................
  4144d0:	ffffffff ffffffff ffffffff ffffffff     ................
  4144e0:	ffffffff ffffffff ffffffff ffffffff     ................
  4144f0:	ffffffff ffffffff ffffffff ffffffff     ................
  414500:	ffffffff ffffffff ffffffff ffffffff     ................
  414510:	ffffffff ffffffff ffffffff ffffffff     ................
  414520:	ffffffff ffffffff ffffffff ffffffff     ................
  414530:	ffffffff ffffffff ffffffff ffffffff     ................
  414540:	ffffffff ffffffff ffffffff ffffffff     ................
  414550:	ffffffff ffffffff ffffffff ffffffff     ................
  414560:	ffffffff ffffffff ffffffff ffffffff     ................
  414570:	ffffffff 0000ffff 00000000 ff000000     ................
  414580:	ffffffff ffffffff ffffffff ffffffff     ................
  414590:	ffffffff ffffffff ffffffff ffffffff     ................
  4145a0:	ffffffff ffffffff ffffffff ffffffff     ................
  4145b0:	ffffffff ffffffff ffffffff ffffffff     ................
  4145c0:	ffffffff ffffffff ffffffff ffffffff     ................
  4145d0:	ffffffff ffffffff ffffffff ffffffff     ................
  4145e0:	ffffffff ffffffff ffffffff ffffffff     ................
  4145f0:	ffffffff ffffffff ffffffff ffffffff     ................
  414600:	ffffffff ffffffff ffffffff ffffffff     ................
  414610:	ffffffff ffffffff ffffffff ffffffff     ................
  414620:	ffffffff ffffffff ffffffff ffffffff     ................
  414630:	ffffffff ffffffff ffffffff ffffffff     ................
  414640:	ffffffff ffffffff ffffffff ffffffff     ................
  414650:	ffffffff ffffffff ffffffff ffffffff     ................
  414660:	ffffffff ffffffff ffffffff ffffffff     ................
  414670:	ffffffff ffffffff ffffffff ffffffff     ................
  414680:	ffffffff 00000000 00000000 ffffff00     ................
  414690:	ffffffff ffffffff ffffffff ffffffff     ................
  4146a0:	ffffffff ffffffff ffffffff ffffffff     ................
  4146b0:	ffffffff ffffffff ffffffff ffffffff     ................
  4146c0:	ffffffff ffffffff ffffffff ffffffff     ................
  4146d0:	ffffffff ffffffff ffffffff ffffffff     ................
  4146e0:	ffffffff ffffffff ffffffff ffffffff     ................
  4146f0:	ffffffff ffffffff ffffffff ffffffff     ................
  414700:	ffffffff ffffffff ffffffff ffffffff     ................
  414710:	ffffffff ffffffff ffffffff ffffffff     ................
  414720:	ffffffff ffffffff ffffffff ffffffff     ................
  414730:	ffffffff ffffffff ffffffff ffffffff     ................
  414740:	ffffffff ffffffff ffffffff ffffffff     ................
  414750:	ffffffff ffffffff ffffffff ffffffff     ................
  414760:	ffffffff ffffffff ffffffff ffffffff     ................
  414770:	ffffffff ffffffff ffffffff ffffffff     ................
  414780:	ffffffff ffffffff ffffffff ffffffff     ................
  414790:	0000ffff 00000000 ff000000 ffffffff     ................
  4147a0:	ffffffff ffffffff ffffffff ffffffff     ................
  4147b0:	ffffffff ffffffff ffffffff ffffffff     ................
  4147c0:	ffffffff ffffffff ffffffff ffffffff     ................
  4147d0:	ffffffff ffffffff ffffffff ffffffff     ................
  4147e0:	ffffffff ffffffff ffffffff ffffffff     ................
  4147f0:	ffffffff ffffffff ffffffff ffffffff     ................
  414800:	ffffffff ffffffff ffffffff ffffffff     ................
  414810:	ffffffff ffffffff ffffffff ffffffff     ................
  414820:	ffffffff ffffffff ffffffff ffffffff     ................
  414830:	ffffffff ffffffff ffffffff ffffffff     ................
  414840:	ffffffff ffffffff ffffffff ffffffff     ................
  414850:	ffffffff ffffffff ffffffff ffffffff     ................
  414860:	ffffffff ffffffff ffffffff ffffffff     ................
  414870:	ffffffff ffffffff ffffffff ffffffff     ................
  414880:	ffffffff ffffffff ffffffff ffffffff     ................
  414890:	ffffffff 00ffffff 00000000 00000000     ................
	...
  4148b0:	ffff0000 ffffffff ffffffff ffffffff     ................
  4148c0:	ffffffff ffffffff ffffffff ffffffff     ................
  4148d0:	ffffffff ffffffff ffffffff ffffffff     ................
  4148e0:	ffffffff ffffffff ffffffff ffffffff     ................
  4148f0:	ffffffff ffffffff ffffffff ffffffff     ................
  414900:	ffffffff ffffffff ffffffff ffffffff     ................
  414910:	ffffffff ffffffff ffffffff ffffffff     ................
  414920:	ffffffff ffffffff ffffffff ffffffff     ................
  414930:	ffffffff ffffffff ffffffff ffffffff     ................
  414940:	ffffffff ffffffff ffffffff ffffffff     ................
  414950:	ffffffff ffffffff ffffffff ffffffff     ................
  414960:	ffffffff ffffffff ffffffff ffffffff     ................
  414970:	ffffffff ffffffff ffffffff ffffffff     ................
  414980:	ffffffff ffffffff ffffffff ffffffff     ................
  414990:	00ffffff 00000000 00000000 00000000     ................
	...
  4149cc:	ff000000 ffffffff ffffffff ffffffff     ................
  4149dc:	ffffffff ffffffff ffffffff ffffffff     ................
  4149ec:	ffffffff ffffffff ffffffff ffffffff     ................
  4149fc:	ffffffff ffffffff ffffffff 00000000     ................
	...
  414a18:	ffff0000 ffffffff ffffffff ffffffff     ................
  414a28:	ffffffff ffffffff ffffffff ffffffff     ................
  414a38:	ffffffff ffffffff ffffffff ffffffff     ................
  414a48:	ffffffff ffffffff ffffffff ffffffff     ................
  414a58:	ffffffff ffffffff ffffffff ffffffff     ................
  414a68:	ffffffff ffffffff ffffffff ffffffff     ................
  414a78:	ffffffff ffffffff ffffffff ffffffff     ................
  414a88:	ffffffff ffffffff ffffffff ffffffff     ................
	...
  414ae4:	ffff0000 ffffffff ffffffff ffffffff     ................
  414af4:	ffffffff ffffffff ffffffff ffffffff     ................
  414b04:	ffffffff ffffffff ffffffff 00ffffff     ................
	...
  414b28:	ff000000 ffffffff ffffffff ffffffff     ................
  414b38:	ffffffff ffffffff ffffffff ffffffff     ................
  414b48:	ffffffff ffffffff ffffffff ffffffff     ................
  414b58:	ffffffff ffffffff ffffffff ffffffff     ................
  414b68:	ffffffff ffffffff ffffffff ffffffff     ................
  414b78:	ffffffff ffffffff ffffffff ffffffff     ................
  414b88:	ffffffff ffffffff ffffffff ffffffff     ................
  414b98:	ffffffff ffffffff 00000000 00000000     ................
	...
  414bc4:	ffffffff ffffffff ffffffff ffffffff     ................
  414bd4:	0000ffff 00000000 00000000 00000000     ................
	...
  414bfc:	ffffff00 ffffffff ffffffff ffffffff     ................
  414c0c:	ffffffff ffffffff ffffffff ffffffff     ................
  414c1c:	0000ffff 00000000 00000000 00000000     ................
	...
  414c3c:	ffffffff ffffffff ffffffff ffffffff     ................
  414c4c:	ffffffff ffffffff ffffffff ffffffff     ................
  414c5c:	ffffffff ffffffff ffffffff ffffffff     ................
  414c6c:	ffffffff ffffffff ffffffff ffffffff     ................
  414c7c:	ffffffff ffffffff ffffffff ffffffff     ................
  414c8c:	ffffffff ffffffff ffffffff ffffffff     ................
  414c9c:	ffffffff ffffffff 000000ff 00000000     ................
	...
  414cc0:	ffffffff ffffffff ffffffff ffffffff     ................
  414cd0:	ffffffff ffffffff ffffffff ffffffff     ................
  414ce0:	ffffffff ffffffff ffffffff ffffffff     ................
  414cf0:	ffffffff 0000ffff 00000000 00000000     ................
	...
  414d10:	ffffff00 ffffffff ffffffff ffffffff     ................
  414d20:	ffffffff ffffffff ffffffff 00000000     ................
  414d30:	00000000 ffffff00 ffffffff ffffffff     ................
  414d40:	000000ff 00000000 ffff0000 ffffffff     ................
  414d50:	ffffffff ffffffff ffffffff ffffffff     ................
  414d60:	ffffffff ffffffff ffffffff ffffffff     ................
  414d70:	ffffffff ffffffff ffffffff ffffffff     ................
  414d80:	ffffffff ffffffff ffffffff ffffffff     ................
  414d90:	ffffffff ffffffff ffffffff ffffffff     ................
  414da0:	ffffffff ffffffff ffffffff ffffffff     ................
	...
  414dc4:	ffffff00 ffffffff ffffffff ffffffff     ................
  414dd4:	ffffffff ffffffff ffffffff ffffffff     ................
  414de4:	ffffffff ffffffff ffffffff ffffffff     ................
  414df4:	ffffffff ffffffff ffffffff ffffffff     ................
  414e04:	ffffffff ffffffff 000000ff 00000000     ................
	...
  414e24:	ffffff00 ffffffff ffffffff ffffffff     ................
  414e34:	ffffffff 0000ffff 00000000 ff000000     ................
  414e44:	ffffffff ffffffff 00ffffff 00000000     ................
  414e54:	00000000 ffffffff ffffffff ffffffff     ................
  414e64:	ffffffff ffffffff ffffffff ffffffff     ................
  414e74:	ffffffff ffffffff ffffffff ffffffff     ................
  414e84:	ffffffff ffffffff ffffffff ffffffff     ................
  414e94:	ffffffff ffffffff ffffffff ffffffff     ................
  414ea4:	ffffffff ffffffff ffffffff ffffffff     ................
  414eb4:	ffffffff 00000000 00000000 00000000     ................
  414ec4:	00000000 ffff0000 ffffffff ffffffff     ................
  414ed4:	ffffffff ffffffff ffffffff ffffffff     ................
  414ee4:	ffffffff ffffffff ffffffff ffffffff     ................
  414ef4:	ffffffff ffffffff ffffffff ffffffff     ................
  414f04:	ffffffff ffffffff ffffffff ffffffff     ................
  414f14:	ffffffff ffffffff ffffffff ffffffff     ................
	...
  414f34:	ffff0000 ffffffff ffffffff ffffffff     ................
  414f44:	ffffffff 00000000 00000000 ffffff00     ................
  414f54:	ffffffff ffffffff 000000ff 00000000     ................
  414f64:	ffff0000 ffffffff ffffffff ffffffff     ................
  414f74:	ffffffff ffffffff ffffffff ffffffff     ................
  414f84:	ffffffff ffffffff ffffffff ffffffff     ................
  414f94:	ffffffff ffffffff ffffffff ffffffff     ................
  414fa4:	ffffffff ffffffff ffffffff ffffffff     ................
  414fb4:	ffffffff ffffffff ffffffff 00ffffff     ................
	...
  414fd0:	ffff0000 ffffffff ffffffff ffffffff     ................
  414fe0:	ffffffff ffffffff ffffffff ffffffff     ................
	...
  415018:	ffff0000 ffffffff ffffffff ffffffff     ................
  415028:	ffffffff ffffffff ffffffff ffffffff     ................
	...
  415048:	ffff0000 ffffffff ffffffff 0000ffff     ................
	...
  415060:	ffff0000 ffffffff 00000000 00000000     ................
  415070:	00000000 ffffffff ffffffff ffffffff     ................
  415080:	ffffffff ffffffff ffffffff ffffffff     ................
  415090:	ffffffff ffffffff ffffffff ffffffff     ................
  4150a0:	ffffffff ffffffff ffffffff ffffffff     ................
  4150b0:	ffffffff ffffffff ffffffff ffffffff     ................
  4150c0:	ffffffff ffffffff 00ffffff 00000000     ................
	...
  4150dc:	ffffff00 ffffffff ffffffff ffffffff     ................
  4150ec:	ffffffff ffffffff 000000ff 00000000     ................
	...
  415134:	ffffffff ffffffff ffffffff ffffffff     ................
  415144:	ffffffff ffffffff 00000000 00000000     ................
  415154:	00000000 ff000000 ffffffff ffffffff     ................
	...
  41517c:	ff000000 ffffffff ffffffff ffffffff     ................
  41518c:	ffffffff ffffffff ffffffff ffffffff     ................
  41519c:	ffffffff ffffffff ffffffff ffffffff     ................
  4151ac:	ffffffff ffffffff ffffffff ffffffff     ................
  4151bc:	ffffffff ffffffff ffffffff ffffffff     ................
  4151cc:	ffffffff ffffffff 0000ffff 00000000     ................
	...
  4151e4:	ffffff00 ffffffff ffffffff ffffffff     ................
  4151f4:	ffffffff 0000ffff 00000000 00000000     ................
	...
  415248:	ffffffff ffffffff ffffffff ffffffff     ................
  415258:	ffffffff 000000ff 00000000 00000000     ................
  415268:	00000000 00ffffff 00000000 00000000     ................
	...
  41528c:	ffffff00 ffffffff ffffffff ffffffff     ................
  41529c:	ffffffff ffffffff ffffffff ffffffff     ................
  4152ac:	ffffffff ffffffff ffffffff ffffffff     ................
  4152bc:	ffffffff ffffffff ffffffff ffffffff     ................
  4152cc:	ffffffff ffffffff ffffffff ffffffff     ................
  4152dc:	ffffffff 000000ff 00000000 00000000     ................
  4152ec:	00000000 ffffffff ffffffff ffffffff     ................
  4152fc:	ffffffff 0000ffff 00000000 00000000     ................
	...
  41531c:	ffffff00 ffffffff ffffffff ffffffff     ................
  41532c:	ffffffff ffffffff ffffffff ffffffff     ................
  41533c:	ffffffff ffffffff 00000000 00000000     ................
	...
  41535c:	ffffffff ffffffff ffffffff ffffffff     ................
  41536c:	ffffffff 000000ff 00000000 00000000     ................
	...
  415394:	ffffff00 ffffffff ffffffff ffffffff     ................
  4153a4:	ffffffff ffffffff ffffffff ffffffff     ................
  4153b4:	ffffffff ffffffff ffffffff ffffffff     ................
  4153c4:	ffffffff ffffffff ffffffff ffffffff     ................
  4153d4:	ffffffff ffffffff ffffffff ffffffff     ................
  4153e4:	ffffffff ffffffff 00000000 00000000     ................
  4153f4:	00000000 ffffffff ffffffff ffffffff     ................
  415404:	ffffffff 0000ffff 00000000 00000000     ................
	...
  41541c:	ff000000 ffffffff ffffffff ffffffff     ................
  41542c:	ffffffff ffffffff ffffffff ffffffff     ................
  41543c:	ffffffff ffffffff ffffffff ffffffff     ................
  41544c:	ffffffff ffffffff ffffffff 00ffffff     ................
	...
  415470:	ffffffff ffffffff ffffffff ffffffff     ................
  415480:	0000ffff 00000000 00000000 00000000     ................
  415490:	ffffff00 ffffffff ffffffff ffffffff     ................
  4154a0:	ffffffff ffffffff ffffffff ffffffff     ................
  4154b0:	ffffffff ffffffff ffffffff ffffffff     ................
  4154c0:	ffffffff ffffffff ffffffff ffffffff     ................
  4154d0:	ffffffff ffffffff ffffffff ffffffff     ................
  4154e0:	ffffffff ffffffff ffffffff ffffffff     ................
  4154f0:	ffffffff 00ffffff 00000000 00000000     ................
  415500:	ff000000 ffffffff ffffffff ffffffff     ................
  415510:	ffffffff 000000ff 00000000 00000000     ................
  415520:	00000000 ff000000 ffffffff ffffffff     ................
  415530:	ffffffff ffffffff ffffffff ffffffff     ................
  415540:	ffffffff ffffffff ffffffff ffffffff     ................
  415550:	ffffffff ffffffff ffffffff ffffffff     ................
  415560:	ffffffff ffffffff ffffffff ffffffff     ................
  415570:	0000ffff 00000000 00000000 00000000     ................
  415580:	00000000 ffffffff ffffffff ffffffff     ................
  415590:	00ffffff 00000000 00000000 ff000000     ................
  4155a0:	ffffffff ffffffff ffffffff ffffffff     ................
  4155b0:	ffffffff ffffffff ffffffff ffffffff     ................
  4155c0:	ffffffff ffffffff ffffffff ffffffff     ................
  4155d0:	ffffffff ffffffff ffffffff ffffffff     ................
  4155e0:	ffffffff ffffffff ffffffff ffffffff     ................
  4155f0:	ffffffff ffffffff ffffffff ffffffff     ................
  415600:	0000ffff 00000000 00000000 ffff0000     ................
  415610:	ffffffff ffffffff ffffffff ffffffff     ................
	...
  41562c:	ff000000 ffffffff ffffffff ffffffff     ................
  41563c:	ffffffff ffffffff ffffffff ffffffff     ................
  41564c:	ffffffff ffffffff ffffffff ffffffff     ................
  41565c:	ffffffff ffffffff ffffffff ffffffff     ................
  41566c:	ffffffff ffffffff ffffffff ffffffff     ................
  41567c:	ffffffff 00ffffff 00000000 00000000     ................
	...
  415694:	ffffff00 ffffffff ffffffff ffffffff     ................
	...
  4156b0:	ffffffff ffffffff ffffffff ffffffff     ................
  4156c0:	ffffffff ffffffff ffffffff ffffffff     ................
  4156d0:	ffffffff ffffffff ffffffff ffffffff     ................
  4156e0:	ffffffff ffffffff ffffffff ffffffff     ................
  4156f0:	ffffffff ffffffff ffffffff ffffffff     ................
  415700:	ffffffff ffffffff ffffffff ffffffff     ................
  415710:	00ffffff 00000000 ffffff00 ffffffff     ................
  415720:	ffffffff ffffffff ffffffff 0000ffff     ................
  415730:	00000000 ff000000 ffffffff ffffffff     ................
  415740:	ffffffff ffffffff ffffffff ffffffff     ................
  415750:	ffffffff ffffffff ffffffff ffffffff     ................
  415760:	ffffffff ffffffff ffffffff ffffffff     ................
  415770:	ffffffff ffffffff ffffffff ffffffff     ................
  415780:	ffffffff ffffffff ffffffff ffffffff     ................
  415790:	ffffffff 00ffffff 00000000 00000000     ................
  4157a0:	00000000 ffff0000 ffffffff ffffffff     ................
  4157b0:	ffffffff 000000ff 00000000 00000000     ................
  4157c0:	ffffff00 ffffffff ffffffff ffffffff     ................
  4157d0:	ffffffff ffffffff ffffffff ffffffff     ................
  4157e0:	ffffffff ffffffff ffffffff ffffffff     ................
  4157f0:	ffffffff ffffffff ffffffff ffffffff     ................
  415800:	ffffffff ffffffff ffffffff ffffffff     ................
  415810:	ffffffff ffffffff ffffffff ffffffff     ................
  415820:	ffffffff ffffffff ffffffff ffffffff     ................
  415830:	ffffffff ffffffff ffffffff 00ffffff     ................
  415840:	ffff0000 ffffffff ffffffff ffffffff     ................
  415850:	ffffffff ffffffff ffffffff ffffffff     ................
  415860:	ffffffff ffffffff ffffffff ffffffff     ................
  415870:	ffffffff ffffffff ffffffff ffffffff     ................
  415880:	ffffffff ffffffff ffffffff ffffffff     ................
  415890:	ffffffff ffffffff ffffffff ffffffff     ................
  4158a0:	ffffffff ffffffff 00ffffff 00000000     ................
  4158b0:	00000000 ff000000 ffffffff ffffffff     ................
  4158c0:	ffffffff 0000ffff 00000000 00000000     ................
  4158d0:	ffff0000 ffffffff ffffffff ffffffff     ................
  4158e0:	ffffffff ffffffff ffffffff ffffffff     ................
  4158f0:	ffffffff ffffffff ffffffff ffffffff     ................
  415900:	ffffffff ffffffff ffffffff ffffffff     ................
  415910:	ffffffff ffffffff ffffffff ffffffff     ................
  415920:	ffffffff ffffffff ffffffff ffffffff     ................
  415930:	ffffffff ffffffff ffffffff ffffffff     ................
  415940:	ffffffff ffffffff ffffffff ffffffff     ................
  415950:	ffffffff ffffffff ffffffff ffffffff     ................
  415960:	ffffffff ffffffff ffffffff ffffffff     ................
  415970:	ffffffff ffffffff ffffffff ffffffff     ................
  415980:	ffffffff ffffffff ffffffff ffffffff     ................
  415990:	ffffffff ffffffff ffffffff ffffffff     ................
  4159a0:	ffffffff ffffffff ffffffff ffffffff     ................
  4159b0:	ffffffff ffffffff ffffffff 00000000     ................
	...
  4159c8:	ffffffff ffffffff ffffffff 00ffffff     ................
	...
  4159e0:	ff000000 ffffffff ffffffff ffffffff     ................
  4159f0:	ffffffff ffffffff ffffffff ffffffff     ................
  415a00:	ffffffff ffffffff ffffffff ffffffff     ................
  415a10:	ffffffff ffffffff ffffffff ffffffff     ................
  415a20:	ffffffff ffffffff ffffffff ffffffff     ................
  415a30:	ffffffff ffffffff ffffffff ffffffff     ................
  415a40:	ffffffff ffffffff ffffffff ffffffff     ................
  415a50:	ffffffff ffffffff ffffffff ffffffff     ................
  415a60:	ffffffff ffffffff ffffffff ffffffff     ................
  415a70:	ffffffff ffffffff ffffffff ffffffff     ................
  415a80:	ffffffff ffffffff ffffffff ffffffff     ................
  415a90:	ffffffff ffffffff ffffffff ffffffff     ................
  415aa0:	ffffffff ffffffff ffffffff ffffffff     ................
  415ab0:	ffffffff ffffffff ffffffff ffffffff     ................
  415ac0:	ffffffff ffffffff ffffffff 000000ff     ................
	...
  415ad8:	ffffff00 ffffffff ffffffff ffffffff     ................
	...
  415af0:	ffffff00 ffffffff ffffffff ffffffff     ................
  415b00:	ffffffff ffffffff ffffffff ffffffff     ................
  415b10:	ffffffff ffffffff ffffffff ffffffff     ................
  415b20:	ffffffff ffffffff ffffffff ffffffff     ................
  415b30:	ffffffff ffffffff ffffffff ffffffff     ................
  415b40:	ffffffff ffffffff ffffffff ffffffff     ................
  415b50:	ffffffff ffffffff ffffffff ffffffff     ................
  415b60:	ffffffff ffffffff ffffffff ffffffff     ................
  415b70:	ffffffff ffffffff ffffffff ffffffff     ................
  415b80:	ffffffff ffffffff ffffffff ffffffff     ................
  415b90:	ffffffff ffffffff ffffffff ffffffff     ................
  415ba0:	ffffffff ffffffff ffffffff ffffffff     ................
  415bb0:	ffffffff ffffffff ffffffff ffffffff     ................
  415bc0:	ffffffff ffffffff ffffffff ffffffff     ................
  415bd0:	ffffffff ffffffff ffffffff 0000ffff     ................
	...
  415be8:	ffff0000 ffffffff ffffffff 0000ffff     ................
	...
  415c00:	ffff0000 ffffffff ffffffff ffffffff     ................
  415c10:	ffffffff ffffffff ffffffff ffffffff     ................
  415c20:	ffffffff ffffffff ffffffff ffffffff     ................
  415c30:	ffffffff ffffffff ffffffff ffffffff     ................
  415c40:	ffffffff ffffffff ffffffff ffffffff     ................
  415c50:	ffffffff ffffffff ffffffff ffffffff     ................
  415c60:	ffffffff ffffffff ffffffff ffffffff     ................
  415c70:	ffffffff ffffffff ffffffff ffffffff     ................
  415c80:	ffffffff ffffffff ffffffff ffffffff     ................
  415c90:	ffffffff ffffffff ffffffff ffffffff     ................
  415ca0:	ffffffff ffffffff ffffffff ffffffff     ................
  415cb0:	ffffffff ffffffff ffffffff ffffffff     ................
  415cc0:	ffffffff ffffffff ffffffff ffffffff     ................
  415cd0:	ffffffff ffffffff ffffffff ffffffff     ................
  415ce0:	ffffffff ffffffff ffffffff 00ffffff     ................
	...
  415cf8:	ff000000 ffffffff ffffffff 00ffffff     ................
	...
  415d10:	ff000000 ffffffff ffffffff ffffffff     ................
  415d20:	ffffffff ffffffff ffffffff ffffffff     ................
  415d30:	ffffffff ffffffff ffffffff ffffffff     ................
  415d40:	ffffffff ffffffff ffffffff ffffffff     ................
  415d50:	ffffffff ffffffff ffffffff ffffffff     ................
  415d60:	ffffffff ffffffff ffffffff ffffffff     ................
  415d70:	ffffffff ffffffff ffffffff ffffffff     ................
  415d80:	ffffffff ffffffff ffffffff ffffffff     ................
  415d90:	ffffffff ffffffff ffffffff ffffffff     ................
  415da0:	ffffffff ffffffff ffffffff ffffffff     ................
  415db0:	ffffffff ffffffff ffffffff ffffffff     ................
  415dc0:	ffffffff ffffffff ffffffff ffffffff     ................
  415dd0:	ffffffff ffffffff ffffffff ffffffff     ................
  415de0:	ffffffff ffffffff ffffffff ffffffff     ................
  415df0:	ffffffff ffffffff ffffffff ffffffff     ................
	...
  415e0c:	ffffffff ffffffff ffffffff 00000000     ................
  415e1c:	00000000 ffffff00 ffffffff ffffffff     ................
  415e2c:	ffffffff ffffffff ffffffff ffffffff     ................
  415e3c:	ffffffff ffffffff ffffffff ffffffff     ................
  415e4c:	ffffffff ffffffff ffffffff ffffffff     ................
  415e5c:	ffffffff ffffffff ffffffff ffffffff     ................
  415e6c:	ffffffff ffffffff ffffffff ffffffff     ................
  415e7c:	ffffffff ffffffff ffffffff ffffffff     ................
  415e8c:	ffffffff ffffffff ffffffff ffffffff     ................
  415e9c:	ffffffff ffffffff ffffffff ffffffff     ................
  415eac:	ffffffff ffffffff ffffffff ffffffff     ................
  415ebc:	ffffffff ffffffff ffffffff ffffffff     ................
  415ecc:	ffffffff ffffffff ffffffff ffffffff     ................
  415edc:	ffffffff ffffffff ffffffff ffffffff     ................
  415eec:	ffffffff ffffffff ffffffff ffffffff     ................
  415efc:	ffffffff ffffffff ffffffff ffffffff     ................
  415f0c:	ffffffff 000000ff 00000000 ffff0000     ................
  415f1c:	ffffffff ffffffff 0000ffff 00000000     ................
  415f2c:	00000000 ffff0000 ffffffff ffffffff     ................
  415f3c:	ffffffff ffffffff ffffffff ffffffff     ................
  415f4c:	ffffffff ffffffff ffffffff ffffffff     ................
  415f5c:	ffffffff ffffffff ffffffff ffffffff     ................
  415f6c:	ffffffff ffffffff ffffffff ffffffff     ................
  415f7c:	ffffffff ffffffff ffffffff ffffffff     ................
  415f8c:	ffffffff ffffffff ffffffff ffffffff     ................
  415f9c:	ffffffff ffffffff ffffffff ffffffff     ................
  415fac:	ffffffff ffffffff ffffffff ffffffff     ................
  415fbc:	ffffffff ffffffff ffffffff ffffffff     ................
  415fcc:	ffffffff ffffffff ffffffff ffffffff     ................
  415fdc:	ffffffff ffffffff ffffffff ffffffff     ................
  415fec:	ffffffff ffffffff ffffffff ffffffff     ................
  415ffc:	ffffffff ffffffff ffffffff ffffffff     ................
  41600c:	ffffffff ffffffff ffffffff ffffffff     ................
  41601c:	00ffffff 00000000 00000000 ff000000     ................
  41602c:	ffffffff ffffffff 00ffffff 00000000     ................
  41603c:	00000000 ffffffff ffffffff ffffffff     ................
  41604c:	ffffffff ffffffff ffffffff ffffffff     ................
  41605c:	ffffffff ffffffff ffffffff ffffffff     ................
  41606c:	ffffffff ffffffff ffffffff ffffffff     ................
  41607c:	ffffffff ffffffff ffffffff ffffffff     ................
  41608c:	ffffffff ffffffff ffffffff ffffffff     ................
  41609c:	ffffffff ffffffff ffffffff ffffffff     ................
  4160ac:	ffffffff ffffffff ffffffff ffffffff     ................
  4160bc:	ffffffff ffffffff ffffffff ffffffff     ................
  4160cc:	ffffffff ffffffff ffffffff ffffffff     ................
  4160dc:	ffffffff ffffffff ffffffff ffffffff     ................
  4160ec:	ffffffff ffffffff ffffffff ffffffff     ................
  4160fc:	ffffffff ffffffff ffffffff ffffffff     ................
  41610c:	ffffffff ffffffff ffffffff ffffffff     ................
  41611c:	ffffffff ffffffff ffffffff ffffffff     ................
  41612c:	ffffffff 00000000 00000000 00000000     ................
  41613c:	ffffffff ffffffff 000000ff 00000000     ................
  41614c:	00000000 ffffff00 ffffffff ffffffff     ................
  41615c:	000000ff 00000000 00000000 00000000     ................
	...
  4161b4:	ffffffff ffffffff ffffffff ffffffff     ................
  4161c4:	ffffffff ffffffff ffffffff ffffffff     ................
  4161d4:	ffffffff ffffffff ffffffff ffffffff     ................
  4161e4:	ffffffff ffffffff ffffffff ffffffff     ................
  4161f4:	ffffffff ffffffff ffffffff ffffffff     ................
  416204:	ffffffff ffffffff ffffffff ffffffff     ................
  416214:	00ffffff 00000000 00000000 ffffffff     ................
  416224:	ffffffff ffffffff ffffffff ffffffff     ................
  416234:	ffffffff ffffffff ffffffff 000000ff     ................
  416244:	00000000 ffff0000 ffffffff ffffffff     ................
  416254:	0000ffff 00000000 ff000000 ffffffff     ................
  416264:	ffffffff 00000000 00000000 00000000     ................
	...
  4162c0:	ffff0000 ffffffff ffffffff ffffffff     ................
  4162d0:	ffffffff ffffffff ffffffff ffffffff     ................
  4162e0:	ffffffff ffffffff ffffffff ffffffff     ................
  4162f0:	ffffffff ffffffff ffffffff ffffffff     ................
  416300:	ffffffff ffffffff ffffffff ffffffff     ................
  416310:	ffffffff ffffffff ffffffff ffffffff     ................
  416320:	0000ffff 00000000 00000000 ffff0000     ................
  416330:	ffffffff ffffffff ffffffff ffffffff     ................
  416340:	ffffffff ffffffff ffffffff 00ffffff     ................
	...
  416358:	ff000000 ffffffff ffffffff 00000000     ................
	...
  416370:	ffffffff ffffffff 000000ff 00000000     ................
	...
  4163d0:	ffffffff ffffffff ffffffff ffffffff     ................
  4163e0:	ffffffff ffffffff ffffffff ffffffff     ................
  4163f0:	ffffffff ffffffff ffffffff ffffffff     ................
  416400:	ffffffff ffffffff ffffffff ffffffff     ................
  416410:	ffffffff ffffffff ffffffff ffffffff     ................
  416420:	ffffffff ffffffff ffffffff 000000ff     ................
	...
  41643c:	ffffffff ffffffff ffffffff ffffffff     ................
  41644c:	ffffffff ffffffff ffffffff ffffffff     ................
  41645c:	ffffffff 00000000 00000000 ffffff00     ................
  41646c:	ffffffff ffffffff 000000ff 00000000     ................
  41647c:	ffff0000 ffffffff ffffffff ffffffff     ................
  41648c:	ffffffff ffffffff ffffffff ffffffff     ................
  41649c:	ffffffff ffffffff ffffffff ffffffff     ................
  4164ac:	ffffffff ffffffff ffffffff ffffffff     ................
  4164bc:	ffffffff ffffffff ffffffff ffffffff     ................
  4164cc:	ffffffff ffffffff ffffffff ffffffff     ................
  4164dc:	ffffffff ffffffff ffffffff ffffffff     ................
  4164ec:	ffffffff ffffffff ffffffff ffffffff     ................
  4164fc:	ffffffff ffffffff ffffffff ffffffff     ................
  41650c:	ffffffff ffffffff ffffffff ffffffff     ................
  41651c:	ffffffff ffffffff ffffffff ffffffff     ................
  41652c:	ffffffff ffffffff ffffffff 00000000     ................
	...
  416544:	ff000000 ffffffff ffffffff ffffffff     ................
  416554:	ffffffff ffffffff ffffffff ffffffff     ................
  416564:	ffffffff ffffffff 0000ffff 00000000     ................
  416574:	00000000 ffff0000 ffffffff 00ffffff     ................
	...
  41658c:	ffffffff ffffffff ffffffff ffffffff     ................
  41659c:	ffffffff ffffffff ffffffff ffffffff     ................
  4165ac:	ffffffff ffffffff ffffffff ffffffff     ................
  4165bc:	ffffffff ffffffff ffffffff ffffffff     ................
  4165cc:	ffffffff ffffffff ffffffff ffffffff     ................
  4165dc:	ffffffff ffffffff ffffffff ffffffff     ................
  4165ec:	ffffffff ffffffff ffffffff ffffffff     ................
  4165fc:	ffffffff ffffffff ffffffff ffffffff     ................
  41660c:	ffffffff ffffffff ffffffff ffffffff     ................
  41661c:	ffffffff ffffffff ffffffff ffffffff     ................
  41662c:	ffffffff ffffffff ffffffff ffffffff     ................
  41663c:	ffffffff 00ffffff 00000000 00000000     ................
  41664c:	00000000 ffff0000 ffffffff ffffffff     ................
  41665c:	ffffffff ffffffff ffffffff ffffffff     ................
  41666c:	ffffffff ffffffff ffffffff ffffffff     ................
  41667c:	00ffffff 00000000 00000000 ffffffff     ................
  41668c:	ffffffff 000000ff 00000000 00000000     ................
  41669c:	ffffff00 ffffffff ffffffff ffffffff     ................
  4166ac:	ffffffff ffffffff ffffffff ffffffff     ................
  4166bc:	ffffffff ffffffff ffffffff ffffffff     ................
  4166cc:	ffffffff ffffffff ffffffff ffffffff     ................
  4166dc:	ffffffff ffffffff ffffffff ffffffff     ................
  4166ec:	ffffffff ffffffff ffffffff ffffffff     ................
  4166fc:	ffffffff ffffffff ffffffff ffffffff     ................
  41670c:	ffffffff ffffffff ffffffff ffffffff     ................
  41671c:	ffffffff ffffffff ffffffff ffffffff     ................
  41672c:	ffffffff ffffffff ffffffff ffffffff     ................
  41673c:	ffffffff ffffffff ffffffff ffffffff     ................
  41674c:	0000ffff 00000000 00000000 00000000     ................
  41675c:	ffffff00 ffffffff ffffffff ffffffff     ................
  41676c:	ffffffff ffffffff ffffffff ffffffff     ................
  41677c:	ffffffff ffffffff ffffffff ffffffff     ................
  41678c:	000000ff 00000000 ffff0000 ffffffff     ................
  41679c:	ffffffff 0000ffff 00000000 ff000000     ................
  4167ac:	ffffffff ffffffff ffffffff ffffffff     ................
  4167bc:	ffffffff ffffffff ffffffff ffffffff     ................
  4167cc:	ffffffff ffffffff ffffffff ffffffff     ................
  4167dc:	ffffffff ffffffff ffffffff ffffffff     ................
  4167ec:	ffffffff ffffffff ffffffff ffffffff     ................
  4167fc:	ffffffff ffffffff ffffffff ffffffff     ................
  41680c:	ffffffff ffffffff ffffffff ffffffff     ................
  41681c:	ffffffff ffffffff ffffffff ffffffff     ................
  41682c:	ffffffff ffffffff ffffffff ffffffff     ................
  41683c:	ffffffff ffffffff ffffffff ffffffff     ................
  41684c:	ffffffff ffffffff ffffffff 000000ff     ................
	...
  416868:	ffffffff ffffffff ffffffff ffffffff     ................
  416878:	ffffffff ffffffff ffffffff ffffffff     ................
  416888:	ffffffff ffffffff ffffffff ffffffff     ................
  416898:	00ffffff 00000000 00000000 ff000000     ................
  4168a8:	ffffffff ffffffff 00000000 00000000     ................
  4168b8:	ffffff00 ffffffff ffffffff ffffffff     ................
  4168c8:	ffffffff ffffffff ffffffff ffffffff     ................
  4168d8:	ffffffff ffffffff ffffffff ffffffff     ................
  4168e8:	ffffffff ffffffff ffffffff ffffffff     ................
  4168f8:	ffffffff ffffffff ffffffff ffffffff     ................
  416908:	ffffffff ffffffff ffffffff ffffffff     ................
  416918:	ffffffff ffffffff ffffffff ffffffff     ................
  416928:	ffffffff ffffffff ffffffff ffffffff     ................
  416938:	ffffffff ffffffff ffffffff ffffffff     ................
  416948:	ffffffff ffffffff ffffffff ffffffff     ................
  416958:	ffffffff ffffffff ffffffff 00000000     ................
	...
  416970:	ff000000 ffffffff ffffffff ffffffff     ................
  416980:	ffffffff ffffffff ffffffff ffffffff     ................
  416990:	ffffffff ffffffff ffffffff ffffffff     ................
  4169a0:	ffffffff ffffffff ffffffff 00000000     ................
  4169b0:	00000000 ffffff00 ffffffff 0000ffff     ................
  4169c0:	00000000 ff000000 ffffffff ffffffff     ................
  4169d0:	ffffffff ffffffff ffffffff ffffffff     ................
  4169e0:	ffffffff ffffffff ffffffff ffffffff     ................
  4169f0:	ffffffff ffffffff ffffffff ffffffff     ................
  416a00:	ffffffff ffffffff ffffffff ffffffff     ................
  416a10:	ffffffff ffffffff ffffffff ffffffff     ................
  416a20:	ffffffff ffffffff ffffffff ffffffff     ................
  416a30:	ffffffff ffffffff ffffffff ffffffff     ................
  416a40:	ffffffff ffffffff ffffffff ffffffff     ................
  416a50:	ffffffff 00ffffff 00000000 00000000     ................
	...
  416a6c:	00ffffff 00000000 00000000 00000000     ................
  416a7c:	ffff0000 ffffffff ffffffff ffffffff     ................
  416a8c:	ffffffff ffffffff ffffffff ffffffff     ................
  416a9c:	ffffffff ffffffff ffffffff ffffffff     ................
  416aac:	ffffffff ffffffff ffffffff 0000ffff     ................
  416abc:	00000000 ff000000 ffffffff ffffffff     ................
	...
  416ad4:	ffffff00 ffffffff ffffffff ffffffff     ................
  416ae4:	ffffffff ffffffff ffffffff ffffffff     ................
  416af4:	ffffffff ffffffff ffffffff ffffffff     ................
  416b04:	ffffffff ffffffff ffffffff ffffffff     ................
  416b14:	ffffffff ffffffff ffffffff ffffffff     ................
  416b24:	ffffffff ffffffff ffffffff ffffffff     ................
  416b34:	ffffffff ffffffff ffffffff ffffffff     ................
  416b44:	ffffffff ffffffff ffffffff ffffffff     ................
  416b54:	ffffffff ffffffff 00ffffff 00000000     ................
	...
  416b88:	ffffff00 ffffffff ffffffff ffffffff     ................
  416b98:	ffffffff ffffffff ffffffff ffffffff     ................
  416ba8:	ffffffff ffffffff ffffffff ffffffff     ................
  416bb8:	ffffffff ffffffff ffffffff ffffffff     ................
	...
  416bd0:	ffffff00 ffffffff 0000ffff 00000000     ................
  416be0:	00000000 ffff0000 ffffffff ffffffff     ................
  416bf0:	ffffffff ffffffff ffffffff ffffffff     ................
  416c00:	ffffffff ffffffff ffffffff ffffffff     ................
  416c10:	ffffffff ffffffff ffffffff ffffffff     ................
  416c20:	ffffffff ffffffff ffffffff ffffffff     ................
  416c30:	ffffffff ffffffff ffffffff ffffffff     ................
  416c40:	ffffffff ffffffff ffffffff ffffffff     ................
  416c50:	ffffffff ffffffff ffffffff ffffffff     ................
  416c60:	ffffffff ffffffff 0000ffff 00000000     ................
	...
  416c94:	ffffffff ffffffff ffffffff ffffffff     ................
  416ca4:	ffffffff ffffffff ffffffff ffffffff     ................
  416cb4:	ffffffff ffffffff ffffffff ffffffff     ................
  416cc4:	ffffffff ffffffff ffffffff ffffffff     ................
  416cd4:	0000ffff 00000000 ff000000 ffffffff     ................
  416ce4:	ffffffff 00ffffff 00000000 00000000     ................
  416cf4:	ffffffff ffffffff ffffffff ffffffff     ................
  416d04:	ffffffff ffffffff ffffffff ffffffff     ................
  416d14:	ffffffff ffffffff ffffffff ffffffff     ................
  416d24:	ffffffff ffffffff ffffffff ffffffff     ................
  416d34:	ffffffff ffffffff ffffffff ffffffff     ................
  416d44:	ffffffff ffffffff ffffffff ffffffff     ................
  416d54:	ffffffff ffffffff ffffffff ffffffff     ................
  416d64:	ffffffff ffffffff ffffffff ffffffff     ................
  416d74:	ffffffff 00000000 00000000 00000000     ................
  416d84:	ffffffff ffffffff ffffffff 00ffffff     ................
	...
  416d9c:	ff000000 ffffffff ffffffff ffffffff     ................
  416dac:	ffffffff ffffffff ffffffff ffffffff     ................
  416dbc:	ffffffff ffffffff ffffffff ffffffff     ................
  416dcc:	ffffffff ffffffff ffffffff ffffffff     ................
  416ddc:	ffffffff ffffffff 00000000 00000000     ................
  416dec:	ffffff00 ffffffff ffffffff 000000ff     ................
  416dfc:	00000000 ffff0000 ffffffff ffffffff     ................
  416e0c:	ffffffff ffffffff ffffffff ffffffff     ................
  416e1c:	ffffffff ffffffff ffffffff ffffffff     ................
  416e2c:	ffffffff ffffffff ffffffff ffffffff     ................
  416e3c:	ffffffff ffffffff ffffffff ffffffff     ................
  416e4c:	ffffffff ffffffff ffffffff ffffffff     ................
  416e5c:	ffffffff ffffffff ffffffff ffffffff     ................
  416e6c:	ffffffff ffffffff ffffffff ffffffff     ................
  416e7c:	ffffffff 00ffffff 00000000 00000000     ................
  416e8c:	ff000000 ffffffff ffffffff ffffffff     ................
  416e9c:	ffffffff ffffffff 00000000 00000000     ................
  416eac:	00000000 ffffffff ffffffff ffffffff     ................
  416ebc:	ffffffff ffffffff ffffffff ffffffff     ................
  416ecc:	ffffffff ffffffff ffffffff ffffffff     ................
  416edc:	ffffffff ffffffff ffffffff ffffffff     ................
  416eec:	ffffffff 0000ffff 00000000 00000000     ................
  416efc:	ffff0000 ffffffff 00ffffff 00000000     ................
  416f0c:	00000000 ffffffff ffffffff ffffffff     ................
  416f1c:	ffffffff ffffffff 000000ff 00000000     ................
	...
  416f7c:	ffffffff ffffffff ffffffff ffffffff     ................
  416f8c:	ffffffff 000000ff 00000000 ffff0000     ................
  416f9c:	ffffffff ffffffff ffffffff ffffffff     ................
  416fac:	ffffffff ffffffff 000000ff 00000000     ................
  416fbc:	ffff0000 ffffffff ffffffff ffffffff     ................
  416fcc:	ffffffff ffffffff ffffffff ffffffff     ................
  416fdc:	ffffffff ffffffff ffffffff ffffffff     ................
  416fec:	ffffffff ffffffff ffffffff ffffffff     ................
  416ffc:	ffffffff 00ffffff 00000000 00000000     ................
  41700c:	ffffffff ffffffff 000000ff 00000000     ................
  41701c:	ffff0000 ffffffff ffffffff ffffffff     ................
  41702c:	ffffffff 00ffffff 00000000 00000000     ................
	...
  41708c:	ffffff00 ffffffff ffffffff ffffffff     ................
	...
  4170a8:	ffffffff ffffffff ffffffff ffffffff     ................
  4170b8:	ffffffff ffffffff ffffffff 0000ffff     ................
  4170c8:	00000000 ff000000 ffffffff ffffffff     ................
  4170d8:	ffffffff ffffffff ffffffff ffffffff     ................
  4170e8:	ffffffff ffffffff ffffffff ffffffff     ................
  4170f8:	ffffffff ffffffff ffffffff ffffffff     ................
  417108:	ffffffff ffffffff 000000ff 00000000     ................
  417118:	ffff0000 ffffffff 00ffffff 00000000     ................
  417128:	00000000 ffffffff ffffffff ffffffff     ................
  417138:	ffffffff ffffffff 000000ff 00000000     ................
	...
  417198:	ffffffff ffffffff ffffffff ffffffff     ................
  4171a8:	0000ffff 00000000 ff000000 ffffffff     ................
  4171b8:	ffffffff ffffffff ffffffff ffffffff     ................
  4171c8:	ffffffff ffffffff ffffffff 00000000     ................
  4171d8:	00000000 ffffff00 ffffffff ffffffff     ................
  4171e8:	ffffffff ffffffff ffffffff ffffffff     ................
  4171f8:	ffffffff ffffffff ffffffff ffffffff     ................
  417208:	ffffffff ffffffff ffffffff ffffffff     ................
  417218:	ffffffff 00ffffff 00000000 00000000     ................
  417228:	ffffffff ffffffff 000000ff 00000000     ................
  417238:	ffff0000 ffffffff ffffffff ffffffff     ................
  417248:	ffffffff ffffffff ffffffff ffffffff     ................
  417258:	ffffffff ffffffff ffffffff ffffffff     ................
  417268:	ffffffff ffffffff ffffffff ffffffff     ................
  417278:	ffffffff ffffffff ffffffff ffffffff     ................
  417288:	ffffffff ffffffff ffffffff ffffffff     ................
  417298:	ffffffff ffffffff ffffffff ffffffff     ................
  4172a8:	ffffffff ffffffff ffffffff ffffffff     ................
	...
  4172c0:	ffffff00 ffffffff ffffffff ffffffff     ................
  4172d0:	ffffffff ffffffff ffffffff ffffffff     ................
  4172e0:	0000ffff 00000000 ff000000 ffffffff     ................
  4172f0:	ffffffff ffffffff ffffffff ffffffff     ................
  417300:	ffffffff ffffffff ffffffff ffffffff     ................
  417310:	ffffffff ffffffff ffffffff ffffffff     ................
  417320:	ffffffff ffffffff ffffffff 000000ff     ................
  417330:	00000000 ffff0000 ffffffff 00ffffff     ................
	...
  417348:	ffffffff ffffffff ffffffff ffffffff     ................
  417358:	ffffffff ffffffff ffffffff ffffffff     ................
  417368:	ffffffff ffffffff ffffffff ffffffff     ................
  417378:	ffffffff ffffffff ffffffff ffffffff     ................
  417388:	ffffffff ffffffff ffffffff ffffffff     ................
  417398:	ffffffff ffffffff ffffffff ffffffff     ................
  4173a8:	ffffffff ffffffff ffffffff ffffffff     ................
  4173b8:	ffffffff ffffffff ffffffff ffffffff     ................
  4173c8:	000000ff 00000000 ffff0000 ffffffff     ................
  4173d8:	ffffffff ffffffff ffffffff ffffffff     ................
  4173e8:	ffffffff 000000ff 00000000 ffff0000     ................
  4173f8:	ffffffff ffffffff ffffffff ffffffff     ................
  417408:	ffffffff ffffffff ffffffff ffffffff     ................
  417418:	ffffffff ffffffff ffffffff ffffffff     ................
  417428:	ffffffff ffffffff ffffffff ffffffff     ................
	...
  417444:	ffffffff ffffffff 000000ff 00000000     ................
  417454:	ffff0000 ffffffff ffffffff ffffffff     ................
  417464:	ffffffff ffffffff ffffffff ffffffff     ................
  417474:	ffffffff ffffffff ffffffff ffffffff     ................
  417484:	ffffffff ffffffff ffffffff ffffffff     ................
  417494:	ffffffff ffffffff ffffffff ffffffff     ................
  4174a4:	ffffffff ffffffff ffffffff ffffffff     ................
  4174b4:	ffffffff ffffffff ffffffff ffffffff     ................
  4174c4:	ffffffff ffffffff ffffffff ffffffff     ................
  4174d4:	00ffffff 00000000 00000000 ffffffff     ................
  4174e4:	ffffffff ffffffff ffffffff ffffffff     ................
  4174f4:	ffffffff 00ffffff 00000000 00000000     ................
  417504:	ffffffff ffffffff ffffffff ffffffff     ................
  417514:	ffffffff ffffffff ffffffff ffffffff     ................
  417524:	ffffffff ffffffff ffffffff ffffffff     ................
  417534:	ffffffff ffffffff ffffffff ffffffff     ................
  417544:	0000ffff 00000000 ff000000 ffffffff     ................
  417554:	ffffffff 00ffffff 00000000 00000000     ................
  417564:	ffffffff ffffffff ffffffff ffffffff     ................
  417574:	ffffffff ffffffff ffffffff ffffffff     ................
  417584:	ffffffff ffffffff ffffffff ffffffff     ................
  417594:	ffffffff ffffffff ffffffff ffffffff     ................
  4175a4:	ffffffff ffffffff ffffffff ffffffff     ................
  4175b4:	ffffffff ffffffff ffffffff ffffffff     ................
  4175c4:	ffffffff ffffffff ffffffff ffffffff     ................
  4175d4:	ffffffff ffffffff ffffffff ffffffff     ................
  4175e4:	000000ff 00000000 00000000 ffffff00     ................
  4175f4:	ffffffff ffffffff ffffffff ffffffff     ................
  417604:	0000ffff 00000000 00000000 ffff0000     ................
  417614:	ffffffff ffffffff ffffffff ffffffff     ................
  417624:	ffffffff ffffffff ffffffff ffffffff     ................
  417634:	ffffffff ffffffff ffffffff ffffffff     ................
  417644:	ffffffff ffffffff ffffffff ffffffff     ................
	...
  41765c:	ffffff00 ffffffff ffffffff 000000ff     ................
  41766c:	00000000 ffff0000 ffffffff ffffffff     ................
  41767c:	ffffffff ffffffff ffffffff ffffffff     ................
  41768c:	ffffffff ffffffff ffffffff ffffffff     ................
  41769c:	ffffffff ffffffff ffffffff ffffffff     ................
  4176ac:	ffffffff ffffffff ffffffff ffffffff     ................
  4176bc:	ffffffff ffffffff ffffffff ffffffff     ................
  4176cc:	ffffffff ffffffff ffffffff ffffffff     ................
  4176dc:	ffffffff ffffffff ffffffff ffffffff     ................
  4176ec:	ffffffff ffffffff 0000ffff 00000000     ................
	...
  417704:	ffffff00 ffffffff 0000ffff 00000000     ................
	...
  41771c:	ffffff00 ffffffff ffffffff ffffffff     ................
  41772c:	ffffffff ffffffff ffffffff ffffffff     ................
  41773c:	ffffffff ffffffff ffffffff ffffffff     ................
  41774c:	ffffffff ffffffff ffffffff ffffffff     ................
  41775c:	ffffffff 0000ffff 00000000 ff000000     ................
  41776c:	ffffffff ffffffff 00000000 00000000     ................
  41777c:	00000000 ffffffff ffffffff ffffffff     ................
  41778c:	ffffffff ffffffff ffffffff ffffffff     ................
  41779c:	ffffffff ffffffff ffffffff ffffffff     ................
  4177ac:	ffffffff ffffffff ffffffff ffffffff     ................
  4177bc:	ffffffff ffffffff ffffffff ffffffff     ................
  4177cc:	ffffffff ffffffff ffffffff ffffffff     ................
  4177dc:	ffffffff ffffffff ffffffff ffffffff     ................
  4177ec:	ffffffff ffffffff ffffffff ffffffff     ................
  4177fc:	ffffffff ffffffff 00ffffff 00000000     ................
	...
  417828:	ffffffff ffffffff ffffffff ffffffff     ................
  417838:	ffffffff ffffffff ffffffff ffffffff     ................
  417848:	ffffffff ffffffff ffffffff ffffffff     ................
  417858:	ffffffff ffffffff ffffffff ffffffff     ................
  417868:	ffffffff ffffffff 00000000 00000000     ................
  417878:	ffffff00 ffffffff 0000ffff 00000000     ................
  417888:	ff000000 ffffffff ffffffff ffffffff     ................
  417898:	ffffffff ffffffff ffffffff ffffffff     ................
  4178a8:	ffffffff ffffffff ffffffff ffffffff     ................
  4178b8:	ffffffff ffffffff ffffffff ffffffff     ................
  4178c8:	ffffffff ffffffff ffffffff ffffffff     ................
  4178d8:	ffffffff ffffffff ffffffff ffffffff     ................
  4178e8:	ffffffff ffffffff ffffffff ffffffff     ................
  4178f8:	ffffffff ffffffff ffffffff ffffffff     ................
  417908:	ffffffff ffffffff ffffffff ffffffff     ................
	...
  417930:	ff000000 ffffffff ffffffff ffffffff     ................
  417940:	ffffffff ffffffff ffffffff ffffffff     ................
  417950:	ffffffff ffffffff ffffffff ffffffff     ................
  417960:	ffffffff ffffffff ffffffff ffffffff     ................
  417970:	ffffffff ffffffff ffffffff 0000ffff     ................
  417980:	00000000 ff000000 ffffffff ffffffff     ................
	...
  417998:	ffffff00 ffffffff ffffffff ffffffff     ................
  4179a8:	ffffffff ffffffff ffffffff ffffffff     ................
  4179b8:	ffffffff ffffffff ffffffff ffffffff     ................
  4179c8:	ffffffff ffffffff ffffffff ffffffff     ................
  4179d8:	ffffffff ffffffff ffffffff ffffffff     ................
  4179e8:	ffffffff ffffffff ffffffff ffffffff     ................
  4179f8:	ffffffff ffffffff ffffffff ffffffff     ................
  417a08:	ffffffff ffffffff ffffffff ffffffff     ................
  417a18:	ffffffff ffffffff ffffffff ffffffff     ................
  417a28:	ffffffff 00000000 00000000 00000000     ................
  417a38:	ff000000 ffffffff ffffffff ffffffff     ................
  417a48:	ffffffff ffffffff ffffffff ffffffff     ................
  417a58:	ffffffff ffffffff ffffffff ffffffff     ................
  417a68:	ffffffff ffffffff ffffffff ffffffff     ................
  417a78:	ffffffff ffffffff ffffffff ffffffff     ................
  417a88:	000000ff 00000000 00000000 ffffff00     ................
  417a98:	ffffffff 0000ffff 00000000 ff000000     ................
  417aa8:	ffffffff ffffffff ffffffff ffffffff     ................
  417ab8:	ffffffff ffffffff ffffffff ffffffff     ................
  417ac8:	ffffffff ffffffff ffffffff ffffffff     ................
  417ad8:	ffffffff ffffffff ffffffff ffffffff     ................
  417ae8:	ffffffff ffffffff ffffffff ffffffff     ................
  417af8:	ffffffff ffffffff ffffffff ffffffff     ................
  417b08:	ffffffff ffffffff ffffffff ffffffff     ................
  417b18:	ffffffff ffffffff ffffffff ffffffff     ................
  417b28:	ffffffff ffffffff ffffffff ffffffff     ................
  417b38:	ffffffff ffffffff ffffffff ffffffff     ................
  417b48:	ffffffff ffffffff ffffffff ffffffff     ................
  417b58:	ffffffff ffffffff ffffffff ffffffff     ................
  417b68:	ffffffff ffffffff ffffffff ffffffff     ................
  417b78:	ffffffff ffffffff ffffffff ffffffff     ................
  417b88:	ffffffff ffffffff ffffffff 00ffffff     ................
	...
  417ba0:	ffffffff ffffffff ffffffff 00000000     ................
  417bb0:	00000000 ffffff00 ffffffff ffffffff     ................
  417bc0:	ffffffff ffffffff ffffffff ffffffff     ................
  417bd0:	ffffffff ffffffff ffffffff ffffffff     ................
  417be0:	ffffffff ffffffff ffffffff ffffffff     ................
  417bf0:	ffffffff ffffffff ffffffff ffffffff     ................
  417c00:	ffffffff ffffffff ffffffff ffffffff     ................
  417c10:	ffffffff ffffffff ffffffff ffffffff     ................
  417c20:	ffffffff ffffffff ffffffff ffffffff     ................
  417c30:	ffffffff ffffffff ffffffff ffffffff     ................
  417c40:	ffffffff ffffffff ffffffff ffffffff     ................
  417c50:	ffffffff ffffffff ffffffff ffffffff     ................
  417c60:	ffffffff ffffffff ffffffff ffffffff     ................
  417c70:	ffffffff ffffffff ffffffff ffffffff     ................
  417c80:	ffffffff ffffffff ffffffff ffffffff     ................
  417c90:	ffffffff ffffffff ffffffff ffffffff     ................
  417ca0:	ffffffff 000000ff 00000000 ffff0000     ................
  417cb0:	ffffffff 00ffffff 00000000 00000000     ................
  417cc0:	ff000000 ffffffff 000000ff 00000000     ................
	...
  417d20:	ffffffff ffffffff ffffffff ffffffff     ................
  417d30:	ffffffff ffffffff ffffffff ffffffff     ................
  417d40:	ffffffff ffffffff ffffffff ffffffff     ................
  417d50:	ffffffff ffffffff ffffffff ffffffff     ................
  417d60:	ffffffff ffffffff ffffffff ffffffff     ................
  417d70:	ffffffff ffffffff ffffffff ffffffff     ................
  417d80:	ffffffff ffffffff ffffffff ffffffff     ................
  417d90:	ffffffff ffffffff ffffffff ffffffff     ................
  417da0:	ffffffff ffffffff ffffffff ffffffff     ................
	...
  417dbc:	ffffffff ffffffff 000000ff 00000000     ................
  417dcc:	ffff0000 ffffffff 00000000 00000000     ................
	...
  417e2c:	ffff0000 ffffffff ffffffff ffffffff     ................
  417e3c:	ffffffff ffffffff ffffffff ffffffff     ................
  417e4c:	ffffffff ffffffff ffffffff ffffffff     ................
  417e5c:	ffffffff ffffffff ffffffff ffffffff     ................
  417e6c:	ffffffff ffffffff ffffffff ffffffff     ................
  417e7c:	ffffffff ffffffff ffffffff ffffffff     ................
  417e8c:	ffffffff ffffffff ffffffff ffffffff     ................
  417e9c:	ffffffff ffffffff ffffffff ffffffff     ................
  417eac:	ffffffff ffffffff ffffffff ffffffff     ................
  417ebc:	0000ffff 00000000 ff000000 ffffffff     ................
  417ecc:	ffffffff 00ffffff 00000000 00000000     ................
  417edc:	ffffffff ffffffff 000000ff 00000000     ................
	...
  417f3c:	ffffffff ffffffff ffffffff ffffffff     ................
  417f4c:	ffffffff ffffffff ffffffff ffffffff     ................
  417f5c:	ffffffff ffffffff ffffffff ffffffff     ................
  417f6c:	ffffffff ffffffff ffffffff ffffffff     ................
  417f7c:	ffffffff ffffffff ffffffff ffffffff     ................
  417f8c:	ffffffff ffffffff ffffffff ffffffff     ................
  417f9c:	ffffffff ffffffff ffffffff ffffffff     ................
  417fac:	ffffffff ffffffff ffffffff ffffffff     ................
  417fbc:	ffffffff ffffffff ffffffff 000000ff     ................
	...
  417fd4:	ffffff00 ffffffff 0000ffff 00000000     ................
  417fe4:	00000000 ffff0000 ffffffff ffffffff     ................
  417ff4:	ffffffff ffffffff ffffffff ffffffff     ................
  418004:	ffffffff ffffffff ffffffff ffffffff     ................
  418014:	ffffffff ffffffff ffffffff ffffffff     ................
  418024:	ffffffff ffffffff ffffffff ffffffff     ................
  418034:	ffffffff ffffffff ffffffff ffffffff     ................
  418044:	ffffffff ffffffff ffffffff ffffffff     ................
  418054:	ffffffff ffffffff ffffffff ffffffff     ................
  418064:	ffffffff ffffffff ffffffff ffffffff     ................
  418074:	ffffffff ffffffff ffffffff ffffffff     ................
  418084:	ffffffff ffffffff ffffffff ffffffff     ................
  418094:	ffffffff ffffffff ffffffff ffffffff     ................
  4180a4:	ffffffff ffffffff ffffffff ffffffff     ................
  4180b4:	ffffffff ffffffff ffffffff ffffffff     ................
  4180c4:	ffffffff ffffffff ffffffff ffffffff     ................
  4180d4:	00ffffff 00000000 00000000 ffffffff     ................
  4180e4:	ffffffff ffffffff 00000000 00000000     ................
  4180f4:	ffffff00 ffffffff ffffffff ffffffff     ................
  418104:	ffffffff ffffffff ffffffff ffffffff     ................
  418114:	ffffffff ffffffff ffffffff ffffffff     ................
  418124:	ffffffff ffffffff ffffffff ffffffff     ................
  418134:	ffffffff ffffffff ffffffff ffffffff     ................
  418144:	ffffffff ffffffff ffffffff ffffffff     ................
  418154:	ffffffff ffffffff ffffffff ffffffff     ................
  418164:	ffffffff ffffffff ffffffff ffffffff     ................
  418174:	ffffffff ffffffff ffffffff ffffffff     ................
  418184:	ffffffff ffffffff ffffffff ffffffff     ................
  418194:	ffffffff ffffffff ffffffff ffffffff     ................
  4181a4:	ffffffff ffffffff ffffffff ffffffff     ................
  4181b4:	ffffffff ffffffff ffffffff ffffffff     ................
  4181c4:	ffffffff ffffffff ffffffff ffffffff     ................
  4181d4:	ffffffff ffffffff ffffffff 0000ffff     ................
	...
  4181ec:	ffff0000 ffffffff 00ffffff 00000000     ................
  4181fc:	00000000 ff000000 ffffffff ffffffff     ................
  41820c:	ffffffff ffffffff ffffffff ffffffff     ................
  41821c:	ffffffff ffffffff ffffffff ffffffff     ................
  41822c:	ffffffff ffffffff ffffffff ffffffff     ................
  41823c:	ffffffff ffffffff ffffffff ffffffff     ................
  41824c:	ffffffff ffffffff ffffffff ffffffff     ................
  41825c:	ffffffff ffffffff ffffffff ffffffff     ................
  41826c:	ffffffff ffffffff ffffffff ffffffff     ................
  41827c:	ffffffff ffffffff ffffffff ffffffff     ................
  41828c:	ffffffff ffffffff ffffffff ffffffff     ................
  41829c:	ffffffff ffffffff ffffffff ffffffff     ................
  4182ac:	ffffffff ffffffff ffffffff ffffffff     ................
  4182bc:	ffffffff ffffffff ffffffff ffffffff     ................
  4182cc:	ffffffff ffffffff ffffffff ffffffff     ................
  4182dc:	ffffffff ffffffff ffffffff ffffffff     ................
  4182ec:	ffffffff 00000000 00000000 ffffff00     ................
  4182fc:	ffffffff ffffffff 000000ff 00000000     ................
  41830c:	ffff0000 ffffffff ffffffff ffffffff     ................
  41831c:	ffffffff ffffffff ffffffff ffffffff     ................
  41832c:	ffffffff ffffffff ffffffff ffffffff     ................
  41833c:	ffffffff ffffffff ffffffff ffffffff     ................
  41834c:	ffffffff ffffffff ffffffff ffffffff     ................
  41835c:	ffffffff ffffffff ffffffff ffffffff     ................
  41836c:	ffffffff ffffffff ffffffff ffffffff     ................
  41837c:	ffffffff ffffffff ffffffff ffffffff     ................
  41838c:	ffffffff ffffffff ffffffff ffffffff     ................
  41839c:	ffffffff ffffffff ffffffff ffffffff     ................
  4183ac:	ffffffff ffffffff ffffffff ffffffff     ................
  4183bc:	ffffffff ffffffff ffffffff ffffffff     ................
  4183cc:	ffffffff ffffffff ffffffff ffffffff     ................
  4183dc:	ffffffff ffffffff ffffffff ffffffff     ................
  4183ec:	ffffffff ffffffff ffffffff 00ffffff     ................
	...
  418404:	ff000000 ffffffff ffffffff 00000000     ................
	...
  41841c:	ffffffff ffffffff ffffffff ffffffff     ................
  41842c:	ffffffff ffffffff ffffffff ffffffff     ................
  41843c:	ffffffff ffffffff ffffffff ffffffff     ................
  41844c:	ffffffff ffffffff ffffffff ffffffff     ................
  41845c:	ffffffff ffffffff ffffffff ffffffff     ................
  41846c:	ffffffff ffffffff ffffffff ffffffff     ................
  41847c:	ffffffff ffffffff ffffffff ffffffff     ................
  41848c:	ffffffff ffffffff ffffffff ffffffff     ................
  41849c:	ffffffff ffffffff ffffffff ffffffff     ................
  4184ac:	ffffffff ffffffff ffffffff ffffffff     ................
  4184bc:	ffffffff ffffffff ffffffff ffffffff     ................
  4184cc:	ffffffff ffffffff ffffffff ffffffff     ................
  4184dc:	ffffffff ffffffff ffffffff ffffffff     ................
  4184ec:	ffffffff ffffffff ffffffff ffffffff     ................
  4184fc:	ffffffff ffffffff 0000ffff 00000000     ................
  41850c:	00000000 ffff0000 ffffffff ffffffff     ................
  41851c:	0000ffff 00000000 ff000000 ffffffff     ................
  41852c:	ffffffff ffffffff ffffffff ffffffff     ................
  41853c:	ffffffff ffffffff ffffffff ffffffff     ................
  41854c:	ffffffff ffffffff ffffffff ffffffff     ................
  41855c:	ffffffff ffffffff ffffffff ffffffff     ................
  41856c:	ffffffff ffffffff ffffffff ffffffff     ................
  41857c:	ffffffff ffffffff ffffffff ffffffff     ................
  41858c:	ffffffff ffffffff ffffffff ffffffff     ................
  41859c:	ffffffff ffffffff ffffffff ffffffff     ................
  4185ac:	ffffffff ffffffff ffffffff ffffffff     ................
  4185bc:	ffffffff ffffffff ffffffff ffffffff     ................
  4185cc:	ffffffff ffffffff ffffffff ffffffff     ................
  4185dc:	ffffffff ffffffff ffffffff ffffffff     ................
  4185ec:	ffffffff ffffffff ffffffff ffffffff     ................
  4185fc:	ffffffff ffffffff ffffffff ffffffff     ................
  41860c:	ffffffff 000000ff 00000000 00000000     ................
  41861c:	ffffff00 ffffffff ffffffff 000000ff     ................
	...
  418634:	ffffff00 ffffffff ffffffff ffffffff     ................
  418644:	ffffffff ffffffff ffffffff ffffffff     ................
  418654:	ffffffff ffffffff ffffffff ffffffff     ................
  418664:	ffffffff ffffffff ffffffff ffffffff     ................
  418674:	ffffffff ffffffff ffffffff ffffffff     ................
  418684:	ffffffff ffffffff ffffffff ffffffff     ................
  418694:	ffffffff ffffffff ffffffff ffffffff     ................
  4186a4:	ffffffff ffffffff ffffffff ffffffff     ................
  4186b4:	ffffffff ffffffff ffffffff ffffffff     ................
  4186c4:	ffffffff ffffffff ffffffff ffffffff     ................
  4186d4:	ffffffff ffffffff ffffffff ffffffff     ................
  4186e4:	ffffffff ffffffff ffffffff ffffffff     ................
  4186f4:	ffffffff ffffffff ffffffff ffffffff     ................
  418704:	ffffffff ffffffff ffffffff ffffffff     ................
  418714:	ffffffff ffffffff 00000000 00000000     ................
  418724:	00000000 ffffffff ffffffff ffffffff     ................
	...
  418740:	ffffffff ffffffff ffffffff ffffffff     ................
  418750:	ffffffff ffffffff ffffffff ffffffff     ................
  418760:	ffffffff ffffffff ffffffff ffffffff     ................
  418770:	ffffffff ffffffff ffffffff ffffffff     ................
  418780:	ffffffff ffffffff ffffffff ffffffff     ................
  418790:	ffffffff ffffffff ffffffff ffffffff     ................
  4187a0:	ffffffff ffffffff ffffffff ffffffff     ................
  4187b0:	ffffffff ffffffff ffffffff ffffffff     ................
  4187c0:	ffffffff ffffffff ffffffff ffffffff     ................
  4187d0:	ffffffff ffffffff ffffffff ffffffff     ................
  4187e0:	ffffffff ffffffff ffffffff ffffffff     ................
  4187f0:	ffffffff ffffffff ffffffff ffffffff     ................
  418800:	ffffffff ffffffff ffffffff ffffffff     ................
  418810:	ffffffff ffffffff ffffffff ffffffff     ................
  418820:	ffffffff 00ffffff 00000000 00000000     ................
  418830:	00000000 ffff0000 ffffffff ffffffff     ................
  418840:	0000ffff 00000000 ff000000 ffffffff     ................
  418850:	ffffffff ffffffff ffffffff ffffffff     ................
  418860:	ffffffff ffffffff ffffffff ffffffff     ................
  418870:	ffffffff ffffffff ffffffff ffffffff     ................
  418880:	ffffffff ffffffff ffffffff ffffffff     ................
  418890:	ffffffff ffffffff ffffffff ffffffff     ................
  4188a0:	ffffffff ffffffff ffffffff ffffffff     ................
  4188b0:	ffffffff ffffffff ffffffff ffffffff     ................
  4188c0:	ffffffff ffffffff ffffffff ffffffff     ................
  4188d0:	ffffffff ffffffff ffffffff ffffffff     ................
  4188e0:	ffffffff ffffffff ffffffff ffffffff     ................
  4188f0:	ffffffff ffffffff ffffffff ffffffff     ................
  418900:	ffffffff ffffffff ffffffff ffffffff     ................
  418910:	ffffffff ffffffff ffffffff ffffffff     ................
  418920:	ffffffff ffffffff ffffffff ffffffff     ................
  418930:	0000ffff 00000000 00000000 00000000     ................
  418940:	ffffff00 ffffffff ffffffff 000000ff     ................
	...
  418958:	ffffff00 ffffffff ffffffff ffffffff     ................
  418968:	ffffffff ffffffff ffffffff ffffffff     ................
  418978:	ffffffff ffffffff ffffffff ffffffff     ................
  418988:	ffffffff ffffffff ffffffff ffffffff     ................
  418998:	ffffffff ffffffff ffffffff ffffffff     ................
  4189a8:	ffffffff ffffffff ffffffff ffffffff     ................
  4189b8:	ffffffff ffffffff ffffffff ffffffff     ................
  4189c8:	ffffffff ffffffff ffffffff ffffffff     ................
  4189d8:	ffffffff ffffffff ffffffff ffffffff     ................
  4189e8:	ffffffff ffffffff ffffffff ffffffff     ................
  4189f8:	ffffffff ffffffff ffffffff ffffffff     ................
  418a08:	ffffffff ffffffff ffffffff ffffffff     ................
  418a18:	ffffffff ffffffff ffffffff ffffffff     ................
  418a28:	ffffffff ffffffff ffffffff ffffffff     ................
  418a38:	ffffffff 000000ff 00000000 00000000     ................
  418a48:	00000000 ffffffff ffffffff ffffffff     ................
	...
  418a64:	ffffffff ffffffff ffffffff ffffffff     ................
  418a74:	ffffffff ffffffff ffffffff ffffffff     ................
  418a84:	ffffffff ffffffff ffffffff ffffffff     ................
  418a94:	ffffffff ffffffff ffffffff ffffffff     ................
  418aa4:	ffffffff ffffffff ffffffff ffffffff     ................
  418ab4:	ffffffff ffffffff ffffffff ffffffff     ................
  418ac4:	ffffffff ffffffff ffffffff ffffffff     ................
  418ad4:	ffffffff ffffffff 00ffffff 00000000     ................
  418ae4:	ffffff00 ffffffff ffffffff ffffffff     ................
  418af4:	ffffffff ffffffff ffffffff ffffffff     ................
  418b04:	ffffffff ffffffff ffffffff ffffffff     ................
  418b14:	ffffffff ffffffff ffffffff ffffffff     ................
  418b24:	ffffffff ffffffff ffffffff ffffffff     ................
  418b34:	ffffffff ffffffff ffffffff ffffffff     ................
  418b44:	ffffffff 00000000 00000000 00000000     ................
  418b54:	ff000000 ffffffff ffffffff 00ffffff     ................
	...
  418b6c:	ff000000 ffffffff ffffffff ffffffff     ................
  418b7c:	ffffffff ffffffff ffffffff ffffffff     ................
  418b8c:	ffffffff ffffffff ffffffff ffffffff     ................
  418b9c:	ffffffff ffffffff ffffffff ffffffff     ................
  418bac:	ffffffff ffffffff ffffffff ffffffff     ................
  418bbc:	ffffffff ffffffff ffffffff ffffffff     ................
  418bcc:	ffffffff 0000ffff 00000000 ffffffff     ................
  418bdc:	ffffffff ffffffff ffffffff 0000ffff     ................
	...
  418bf8:	ffffff00 ffffffff ffffffff ffffffff     ................
  418c08:	ffffffff ffffffff ffffffff ffffffff     ................
  418c18:	ffffffff ffffffff ffffffff ffffffff     ................
  418c28:	ffffffff ffffffff ffffffff ffffffff     ................
  418c38:	ffffffff ffffffff ffffffff ffffffff     ................
  418c48:	ffffffff ffffffff 00000000 00000000     ................
  418c58:	00000000 ff000000 ffffffff ffffffff     ................
  418c68:	ffffffff 0000ffff 00000000 00000000     ................
  418c78:	ffff0000 ffffffff ffffffff ffffffff     ................
  418c88:	ffffffff ffffffff ffffffff ffffffff     ................
  418c98:	ffffffff ffffffff ffffffff ffffffff     ................
  418ca8:	ffffffff ffffffff ffffffff ffffffff     ................
  418cb8:	ffffffff ffffffff ffffffff ffffffff     ................
  418cc8:	ffffffff ffffffff ffffffff ffffffff     ................
  418cd8:	ffffffff 000000ff 00000000 00000000     ................
  418ce8:	ffffff00 ffffffff ffffffff ffffffff     ................
  418cf8:	00ffffff 00000000 00000000 00000000     ................
  418d08:	ffff0000 ffffffff ffffffff ffffffff     ................
  418d18:	ffffffff ffffffff ffffffff ffffffff     ................
  418d28:	ffffffff ffffffff ffffffff ffffffff     ................
  418d38:	ffffffff ffffffff ffffffff ffffffff     ................
  418d48:	ffffffff ffffffff ffffffff ffffffff     ................
	...
  418d68:	ffff0000 ffffffff ffffffff ffffffff     ................
  418d78:	000000ff 00000000 00000000 00000000     ................
  418d88:	ffffffff ffffffff ffffffff ffffffff     ................
  418d98:	ffffffff ffffffff ffffffff ffffffff     ................
  418da8:	ffffffff ffffffff ffffffff ffffffff     ................
  418db8:	ffffffff ffffffff ffffffff ffffffff     ................
  418dc8:	ffffffff ffffffff ffffffff ffffffff     ................
  418dd8:	ffffffff ffffffff ffffffff ffffffff     ................
  418de8:	ffffffff 0000ffff 00000000 00000000     ................
  418df8:	ffff0000 ffffffff ffffffff ffffffff     ................
  418e08:	ffffffff 00000000 00000000 00000000     ................
	...
  418e20:	ffffff00 ffffffff ffffffff ffffffff     ................
  418e30:	ffffffff ffffffff ffffffff ffffffff     ................
  418e40:	ffffffff ffffffff ffffffff ffffffff     ................
  418e50:	ffffffff ffffffff ffffffff ffffffff     ................
	...
  418e74:	ffffff00 ffffffff ffffffff ffffffff     ................
	...
  418e90:	ff000000 ffffffff ffffffff ffffffff     ................
  418ea0:	ffffffff ffffffff ffffffff ffffffff     ................
  418eb0:	ffffffff ffffffff ffffffff ffffffff     ................
  418ec0:	ffffffff ffffffff ffffffff ffffffff     ................
  418ed0:	ffffffff ffffffff ffffffff ffffffff     ................
  418ee0:	ffffffff ffffffff ffffffff ffffffff     ................
  418ef0:	ffffffff ffffffff ffffffff 00ffffff     ................
	...
  418f08:	ff000000 ffffffff ffffffff ffffffff     ................
  418f18:	ffffffff ffffffff 00000000 00000000     ................
	...
  418f38:	ffffffff ffffffff ffffffff ffffffff     ................
  418f48:	ffffffff ffffffff ffffffff ffffffff     ................
  418f58:	ffffffff ffffffff ffffffff 000000ff     ................
	...
  418f7c:	ffffff00 ffffffff ffffffff ffffffff     ................
  418f8c:	00ffffff 00000000 00000000 ff000000     ................
  418f9c:	ffffffff ffffffff ffffffff ffffffff     ................
  418fac:	ffffffff ffffffff ffffffff ffffffff     ................
  418fbc:	ffffffff ffffffff ffffffff ffffffff     ................
  418fcc:	ffffffff ffffffff ffffffff ffffffff     ................
  418fdc:	ffffffff ffffffff ffffffff ffffffff     ................
  418fec:	ffffffff ffffffff ffffffff ffffffff     ................
  418ffc:	ffffffff ffffffff ffffffff ffffffff     ................
  41900c:	ffffffff 00000000 00000000 00000000     ................
  41901c:	ff000000 ffffffff ffffffff ffffffff     ................
  41902c:	ffffffff ffffffff 00000000 00000000     ................
	...
  419084:	ffffff00 ffffffff ffffffff ffffffff     ................
  419094:	00ffffff 00000000 00000000 00000000     ................
  4190a4:	ffff0000 ffffffff ffffffff ffffffff     ................
  4190b4:	ffffffff ffffffff ffffffff ffffffff     ................
  4190c4:	ffffffff ffffffff ffffffff ffffffff     ................
  4190d4:	ffffffff ffffffff ffffffff ffffffff     ................
  4190e4:	ffffffff ffffffff ffffffff ffffffff     ................
  4190f4:	ffffffff ffffffff ffffffff ffffffff     ................
  419104:	ffffffff ffffffff ffffffff ffffffff     ................
  419114:	ffffffff ffffffff ffffffff 000000ff     ................
	...
  419130:	ffffffff ffffffff ffffffff ffffffff     ................
  419140:	ffffffff ffffffff 00000000 00000000     ................
	...
  41918c:	ffffff00 ffffffff ffffffff ffffffff     ................
  41919c:	ffffffff 0000ffff 00000000 00000000     ................
  4191ac:	00000000 ffffff00 ffffffff ffffffff     ................
  4191bc:	ffffffff ffffffff ffffffff ffffffff     ................
  4191cc:	ffffffff ffffffff ffffffff ffffffff     ................
  4191dc:	ffffffff ffffffff ffffffff ffffffff     ................
  4191ec:	ffffffff ffffffff ffffffff ffffffff     ................
  4191fc:	ffffffff ffffffff ffffffff ffffffff     ................
  41920c:	ffffffff ffffffff ffffffff ffffffff     ................
  41921c:	ffffffff ffffffff ffffffff ffffffff     ................
  41922c:	ffffffff 0000ffff 00000000 00000000     ................
	...
  419244:	ffffffff ffffffff ffffffff ffffffff     ................
  419254:	ffffffff ffffffff 00ffffff 00000000     ................
	...
  41928c:	ff000000 ffffffff ffffffff ffffffff     ................
  41929c:	ffffffff ffffffff ffffffff 0000ffff     ................
	...
  4192bc:	ffffffff ffffffff ffffffff ffffffff     ................
  4192cc:	ffffffff ffffffff ffffffff ffffffff     ................
  4192dc:	ffffffff ffffffff ffffffff ffffffff     ................
  4192ec:	ffffffff ffffffff ffffffff ffffffff     ................
  4192fc:	ffffffff ffffffff ffffffff ffffffff     ................
  41930c:	ffffffff ffffffff ffffffff ffffffff     ................
  41931c:	ffffffff ffffffff ffffffff ffffffff     ................
  41932c:	ffffffff ffffffff ffffffff ffffffff     ................
  41933c:	ffffffff ffffffff 0000ffff 00000000     ................
	...
  419358:	ffffffff ffffffff ffffffff ffffffff     ................
  419368:	ffffffff ffffffff ffffffff ffffffff     ................
  419378:	ffffffff ffffffff 0000ffff 00000000     ................
  419388:	ff000000 ffffffff ffffffff ffffffff     ................
  419398:	ffffffff ffffffff ffffffff ffffffff     ................
  4193a8:	ffffffff ffffffff 0000ffff 00000000     ................
	...
  4193c4:	ffffffff ffffffff ffffffff ffffffff     ................
  4193d4:	ffffffff ffffffff ffffffff ffffffff     ................
  4193e4:	ffffffff ffffffff ffffffff ffffffff     ................
  4193f4:	ffffffff ffffffff ffffffff ffffffff     ................
  419404:	ffffffff ffffffff ffffffff ffffffff     ................
  419414:	ffffffff ffffffff ffffffff ffffffff     ................
  419424:	ffffffff ffffffff ffffffff ffffffff     ................
  419434:	ffffffff ffffffff ffffffff ffffffff     ................
  419444:	ffffffff ffffffff ffffffff ffffffff     ................
  419454:	00ffffff 00000000 00000000 00000000     ................
	...
  41946c:	ffffffff ffffffff ffffffff ffffffff     ................
  41947c:	ffffffff ffffffff ffffffff ffffffff     ................
  41948c:	ffffffff ffffffff ffffffff ffffffff     ................
  41949c:	ffffffff ffffffff ffffffff ffffffff     ................
  4194ac:	ffffffff ffffffff ffffffff 0000ffff     ................
	...
  4194cc:	ff000000 ffffffff ffffffff ffffffff     ................
  4194dc:	ffffffff ffffffff ffffffff ffffffff     ................
  4194ec:	ffffffff ffffffff ffffffff ffffffff     ................
  4194fc:	ffffffff ffffffff ffffffff ffffffff     ................
  41950c:	ffffffff ffffffff ffffffff ffffffff     ................
  41951c:	ffffffff ffffffff ffffffff ffffffff     ................
  41952c:	ffffffff ffffffff ffffffff ffffffff     ................
  41953c:	ffffffff ffffffff ffffffff ffffffff     ................
  41954c:	ffffffff ffffffff ffffffff ffffffff     ................
  41955c:	ffffffff ffffffff ffffffff 00ffffff     ................
	...
  419584:	ffff0000 ffffffff ffffffff ffffffff     ................
  419594:	ffffffff ffffffff ffffffff ffffffff     ................
  4195a4:	ffffffff ffffffff ffffffff ffffffff     ................
  4195b4:	ffffffff ffffffff 00ffffff 00000000     ................
	...
  4195d4:	ff000000 ffffffff ffffffff ffffffff     ................
  4195e4:	ffffffff ffffffff ffffffff ffffffff     ................
  4195f4:	ffffffff ffffffff ffffffff ffffffff     ................
  419604:	ffffffff ffffffff ffffffff ffffffff     ................
  419614:	ffffffff ffffffff ffffffff ffffffff     ................
  419624:	ffffffff ffffffff ffffffff ffffffff     ................
  419634:	ffffffff ffffffff ffffffff ffffffff     ................
  419644:	ffffffff ffffffff ffffffff ffffffff     ................
  419654:	ffffffff ffffffff ffffffff ffffffff     ................
  419664:	ffffffff ffffffff ffffffff ffffffff     ................
  419674:	ffffffff ffffffff 00ffffff 00000000     ................
	...
  4196a0:	ff000000 ffffffff ffffffff ffffffff     ................
  4196b0:	ffffffff ffffffff ffffffff 0000ffff     ................
	...
  4196dc:	ff000000 ffffffff ffffffff ffffffff     ................
  4196ec:	ffffffff ffffffff ffffffff ffffffff     ................
  4196fc:	ffffffff ffffffff ffffffff ffffffff     ................
  41970c:	ffffffff ffffffff ffffffff ffffffff     ................
  41971c:	ffffffff ffffffff ffffffff ffffffff     ................
  41972c:	ffffffff ffffffff ffffffff ffffffff     ................
  41973c:	ffffffff ffffffff ffffffff ffffffff     ................
  41974c:	ffffffff ffffffff ffffffff ffffffff     ................
  41975c:	ffffffff ffffffff ffffffff ffffffff     ................
  41976c:	ffffffff ffffffff ffffffff ffffffff     ................
  41977c:	ffffffff ffffffff ffffffff ffffffff     ................
  41978c:	ffffffff ffffffff 0000ffff 00000000     ................
	...
  4197e4:	ffffffff ffffffff ffffffff ffffffff     ................
  4197f4:	ffffffff ffffffff ffffffff ffffffff     ................
  419804:	ffffffff ffffffff ffffffff ffffffff     ................
  419814:	ffffffff ffffffff ffffffff ffffffff     ................
  419824:	ffffffff ffffffff ffffffff ffffffff     ................
  419834:	ffffffff ffffffff ffffffff ffffffff     ................
  419844:	ffffffff ffffffff ffffffff ffffffff     ................
  419854:	ffffffff ffffffff ffffffff ffffffff     ................
  419864:	ffffffff ffffffff ffffffff ffffffff     ................
  419874:	ffffffff ffffffff ffffffff ffffffff     ................
  419884:	ffffffff ffffffff ffffffff ffffffff     ................
  419894:	ffffffff ffffffff ffffffff ffffffff     ................
  4198a4:	ffffffff ffffffff 000000ff 00000000     ................
	...
  4198e8:	ffffff00 ffffffff ffffffff ffffffff     ................
  4198f8:	ffffffff ffffffff ffffffff ffffffff     ................
  419908:	ffffffff ffffffff ffffffff ffffffff     ................
  419918:	ffffffff ffffffff ffffffff ffffffff     ................
  419928:	ffffffff ffffffff ffffffff ffffffff     ................
  419938:	ffffffff ffffffff ffffffff ffffffff     ................
  419948:	ffffffff ffffffff ffffffff ffffffff     ................
  419958:	ffffffff ffffffff ffffffff ffffffff     ................
  419968:	ffffffff ffffffff ffffffff ffffffff     ................
  419978:	ffffffff ffffffff ffffffff ffffffff     ................
  419988:	ffffffff ffffffff ffffffff ffffffff     ................
  419998:	ffffffff ffffffff ffffffff ffffffff     ................
  4199a8:	ffffffff ffffffff ffffffff ffffffff     ................
  4199b8:	ffffffff ffffffff ffffffff ffffffff     ................
  4199c8:	0000ffff 00000000 00000000 00000000     ................
	...
  4199e8:	ffffffff ffffffff ffffffff ffffffff     ................
  4199f8:	ffffffff ffffffff ffffffff ffffffff     ................
  419a08:	ffffffff ffffffff ffffffff ffffffff     ................
  419a18:	ffffffff ffffffff ffffffff ffffffff     ................
  419a28:	ffffffff ffffffff ffffffff ffffffff     ................
  419a38:	ffffffff ffffffff ffffffff ffffffff     ................
  419a48:	ffffffff ffffffff ffffffff ffffffff     ................
  419a58:	ffffffff ffffffff ffffffff ffffffff     ................
  419a68:	ffffffff ffffffff ffffffff ffffffff     ................
  419a78:	ffffffff ffffffff ffffffff ffffffff     ................
  419a88:	ffffffff ffffffff ffffffff ffffffff     ................
  419a98:	ffffffff ffffffff ffffffff ffffffff     ................
  419aa8:	ffffffff ffffffff ffffffff ffffffff     ................
  419ab8:	ffffffff ffffffff ffffffff ffffffff     ................
  419ac8:	ffffffff ffffffff ffffffff ffffffff     ................
  419ad8:	ffffffff ffffffff ffffffff ffffffff     ................
  419ae8:	ffffffff ffffffff ffffffff ffffffff     ................
  419af8:	ffffffff ffffffff ffffffff ffffffff     ................
  419b08:	ffffffff ffffffff ffffffff ffffffff     ................
  419b18:	ffffffff ffffffff ffffffff ffffffff     ................
  419b28:	ffffffff ffffffff ffffffff ffffffff     ................
  419b38:	ffffffff ffffffff ffffffff ffffffff     ................
  419b48:	ffffffff ffffffff ffffffff ffffffff     ................
  419b58:	ffffffff                                ....

00419b5c <image_data_heavy>:
  419b5c:	ffffffff ffffffff ffffffff ffffffff     ................
  419b6c:	ffffffff ffffffff ffffffff ffffffff     ................
  419b7c:	ffffffff ffffffff ffffffff ffffffff     ................
  419b8c:	ffffffff ffffffff ffffffff ffffffff     ................
  419b9c:	ffffffff ffffffff ffffffff ffffffff     ................
  419bac:	ffffffff ffffffff ffffffff ffffffff     ................
  419bbc:	ffffffff ffffffff ffffffff ffffffff     ................
  419bcc:	ffffffff ffffffff ffffffff ffffffff     ................
  419bdc:	ffffffff ffffffff ffffffff ffffffff     ................
  419bec:	ffffffff ffffffff ffffffff ffffffff     ................
  419bfc:	ffffffff ffffffff ffffffff ffffffff     ................
  419c0c:	ffffffff ffffffff ffffffff ffffffff     ................
  419c1c:	ffffffff ffffffff ffffffff ffffffff     ................
  419c2c:	ffffffff ffffffff ffffffff ffffffff     ................
  419c3c:	ffffffff ffffffff ffffffff ffffffff     ................
  419c4c:	ffffffff ffffffff ffffffff ffffffff     ................
  419c5c:	ffffffff ffffffff ffffffff ffffffff     ................
  419c6c:	ffffffff ffffffff ffffffff ffffffff     ................
  419c7c:	ffffffff ffffffff ffffffff ffffffff     ................
  419c8c:	ffffffff ffffffff ffffffff ffffffff     ................
  419c9c:	ffffffff ffffffff ffffffff ffffffff     ................
  419cac:	ffffffff ffffffff ffffffff ffffffff     ................
  419cbc:	ffffffff ffffffff ffffffff ffffffff     ................
  419ccc:	ffffffff ffffffff ffffffff ffffffff     ................
  419cdc:	ffffffff 0000ffff 00000000 00000000     ................
	...
  419d00:	ffffffff ffffffff ffffffff ffffffff     ................
  419d10:	ffffffff ffffffff ffffffff ffffffff     ................
  419d20:	ffffffff ffffffff ffffffff ffffffff     ................
  419d30:	ffffffff ffffffff ffffffff ffffffff     ................
  419d40:	ffffffff ffffffff ffffffff ffffffff     ................
  419d50:	ffffffff ffffffff ffffffff ffffffff     ................
  419d60:	ffffffff ffffffff ffffffff ffffffff     ................
  419d70:	ffffffff ffffffff ffffffff ffffffff     ................
  419d80:	ffffffff ffffffff ffffffff ffffffff     ................
  419d90:	ffffffff ffffffff ffffffff ffffffff     ................
  419da0:	ffffffff ffffffff ffffffff ffffffff     ................
  419db0:	ffffffff ffffffff ffffffff ffffffff     ................
  419dc0:	ffffffff ffffffff ffffffff ffffffff     ................
  419dd0:	ffffffff ffffffff ffffffff ffffffff     ................
  419de0:	ffffffff 00ffffff 00000000 00000000     ................
	...
  419e14:	ff000000 ffffffff ffffffff ffffffff     ................
  419e24:	ffffffff ffffffff ffffffff ffffffff     ................
  419e34:	ffffffff ffffffff ffffffff ffffffff     ................
  419e44:	ffffffff ffffffff ffffffff ffffffff     ................
  419e54:	ffffffff ffffffff ffffffff ffffffff     ................
  419e64:	ffffffff ffffffff ffffffff ffffffff     ................
  419e74:	ffffffff ffffffff ffffffff ffffffff     ................
  419e84:	ffffffff ffffffff ffffffff ffffffff     ................
  419e94:	ffffffff ffffffff ffffffff ffffffff     ................
  419ea4:	ffffffff ffffffff ffffffff ffffffff     ................
  419eb4:	ffffffff ffffffff ffffffff ffffffff     ................
  419ec4:	ffffffff ffffffff ffffffff ffffffff     ................
  419ed4:	ffffffff ffffffff ffffffff ffffffff     ................
  419ee4:	ffffffff ffffffff 00ffffff 00000000     ................
	...
  419f28:	ff000000 ffffffff ffffffff ffffffff     ................
  419f38:	ffffffff ffffffff ffffffff ffffffff     ................
  419f48:	ffffffff ffffffff ffffffff ffffffff     ................
  419f58:	ffffffff ffffffff ffffffff ffffffff     ................
  419f68:	ffffffff ffffffff ffffffff ffffffff     ................
  419f78:	ffffffff ffffffff ffffffff ffffffff     ................
  419f88:	ffffffff ffffffff ffffffff ffffffff     ................
  419f98:	ffffffff ffffffff ffffffff ffffffff     ................
  419fa8:	ffffffff ffffffff ffffffff ffffffff     ................
  419fb8:	ffffffff ffffffff ffffffff ffffffff     ................
  419fc8:	ffffffff ffffffff ffffffff ffffffff     ................
  419fd8:	ffffffff ffffffff ffffffff ffffffff     ................
  419fe8:	ffffffff ffffffff ffffffff ffffffff     ................
  419ff8:	0000ffff 00000000 00000000 00000000     ................
	...
  41a03c:	ffffffff ffffffff ffffffff ffffffff     ................
  41a04c:	ffffffff ffffffff ffffffff ffffffff     ................
  41a05c:	ffffffff ffffffff ffffffff ffffffff     ................
  41a06c:	ffffffff ffffffff ffffffff ffffffff     ................
  41a07c:	ffffffff ffffffff ffffffff ffffffff     ................
  41a08c:	ffffffff ffffffff ffffffff ffffffff     ................
  41a09c:	ffffffff ffffffff ffffffff ffffffff     ................
  41a0ac:	ffffffff ffffffff ffffffff ffffffff     ................
  41a0bc:	ffffffff ffffffff ffffffff ffffffff     ................
  41a0cc:	ffffffff ffffffff ffffffff ffffffff     ................
  41a0dc:	ffffffff ffffffff ffffffff ffffffff     ................
  41a0ec:	ffffffff ffffffff ffffffff ffffffff     ................
  41a0fc:	ffffffff ffffffff 000000ff 00000000     ................
	...
  41a150:	ffffffff ffffffff ffffffff ffffffff     ................
  41a160:	ffffffff ffffffff ffffffff ffffffff     ................
  41a170:	ffffffff ffffffff ffffffff ffffffff     ................
  41a180:	ffffffff ffffffff ffffffff ffffffff     ................
  41a190:	ffffffff ffffffff ffffffff ffffffff     ................
  41a1a0:	ffffffff ffffffff ffffffff ffffffff     ................
  41a1b0:	ffffffff ffffffff ffffffff ffffffff     ................
  41a1c0:	ffffffff ffffffff ffffffff ffffffff     ................
  41a1d0:	ffffffff ffffffff ffffffff ffffffff     ................
  41a1e0:	ffffffff ffffffff ffffffff ffffffff     ................
  41a1f0:	ffffffff ffffffff ffffffff ffffffff     ................
  41a200:	ffffffff ffffffff ffffffff ffffffff     ................
	...
  41a260:	ffffff00 ffffffff ffffffff ffffffff     ................
  41a270:	ffffffff ffffffff ffffffff ffffffff     ................
  41a280:	ffffffff ffffffff ffffffff ffffffff     ................
  41a290:	ffffffff ffffffff ffffffff ffffffff     ................
  41a2a0:	ffffffff ffffffff ffffffff ffffffff     ................
  41a2b0:	ffffffff ffffffff ffffffff ffffffff     ................
  41a2c0:	ffffffff ffffffff ffffffff ffffffff     ................
  41a2d0:	ffffffff ffffffff ffffffff ffffffff     ................
  41a2e0:	ffffffff ffffffff ffffffff ffffffff     ................
  41a2f0:	ffffffff ffffffff ffffffff ffffffff     ................
  41a300:	ffffffff ffffffff ffffffff ffffffff     ................
  41a310:	ffffffff ffffffff 00ffffff 00000000     ................
	...
  41a338:	ffffff00 ffffffff ffffffff ffffffff     ................
  41a348:	ffffffff ffffffff ffffffff 00000000     ................
	...
  41a370:	ffff0000 ffffffff ffffffff ffffffff     ................
  41a380:	ffffffff ffffffff ffffffff ffffffff     ................
  41a390:	ffffffff ffffffff ffffffff ffffffff     ................
  41a3a0:	ffffffff ffffffff ffffffff ffffffff     ................
  41a3b0:	ffffffff ffffffff ffffffff ffffffff     ................
  41a3c0:	ffffffff ffffffff ffffffff ffffffff     ................
  41a3d0:	ffffffff ffffffff ffffffff ffffffff     ................
  41a3e0:	ffffffff ffffffff ffffffff ffffffff     ................
  41a3f0:	ffffffff ffffffff ffffffff ffffffff     ................
  41a400:	ffffffff ffffffff ffffffff ffffffff     ................
  41a410:	ffffffff ffffffff ffffffff ffffffff     ................
  41a420:	ffffffff 0000ffff 00000000 00000000     ................
	...
  41a440:	ffffff00 ffffffff ffffffff ffffffff     ................
  41a450:	ffffffff ffffffff ffffffff ffffffff     ................
  41a460:	ffffffff ffffffff 00000000 00000000     ................
	...
  41a480:	ffffffff ffffffff ffffffff ffffffff     ................
  41a490:	ffffffff ffffffff ffffffff ffffffff     ................
  41a4a0:	ffffffff ffffffff ffffffff ffffffff     ................
  41a4b0:	ffffffff ffffffff ffffffff ffffffff     ................
  41a4c0:	ffffffff ffffffff ffffffff ffffffff     ................
  41a4d0:	ffffffff ffffffff ffffffff ffffffff     ................
  41a4e0:	ffffffff ffffffff ffffffff ffffffff     ................
  41a4f0:	ffffffff ffffffff ffffffff ffffffff     ................
  41a500:	ffffffff ffffffff ffffffff ffffffff     ................
  41a510:	ffffffff ffffffff ffffffff ffffffff     ................
  41a520:	ffffffff ffffffff ffffffff ffffffff     ................
  41a530:	000000ff 00000000 00000000 00000000     ................
	...
  41a548:	ffffff00 ffffffff ffffffff ffffffff     ................
  41a558:	ffffffff ffffffff ffffffff ffffffff     ................
  41a568:	ffffffff ffffffff ffffffff ffffffff     ................
  41a578:	000000ff 00000000 00000000 00000000     ................
	...
  41a590:	ffffff00 ffffffff ffffffff ffffffff     ................
  41a5a0:	ffffffff ffffffff ffffffff ffffffff     ................
  41a5b0:	ffffffff ffffffff ffffffff ffffffff     ................
  41a5c0:	ffffffff ffffffff ffffffff ffffffff     ................
  41a5d0:	ffffffff ffffffff ffffffff ffffffff     ................
  41a5e0:	ffffffff ffffffff ffffffff ffffffff     ................
  41a5f0:	ffffffff ffffffff ffffffff ffffffff     ................
  41a600:	ffffffff ffffffff ffffffff ffffffff     ................
  41a610:	ffffffff ffffffff ffffffff ffffffff     ................
  41a620:	ffffffff ffffffff ffffffff ffffffff     ................
  41a630:	ffffffff ffffffff ffffffff 00ffffff     ................
	...
  41a654:	ffffffff ffffffff ffffffff ffffffff     ................
  41a664:	ffffffff ffffffff ffffffff ffffffff     ................
  41a674:	ffffffff ffffffff ffffffff ffffffff     ................
  41a684:	ffffffff 0000ffff 00000000 00000000     ................
	...
  41a6a0:	ffff0000 ffffffff ffffffff ffffffff     ................
  41a6b0:	ffffffff ffffffff ffffffff ffffffff     ................
  41a6c0:	ffffffff ffffffff ffffffff ffffffff     ................
  41a6d0:	ffffffff ffffffff ffffffff ffffffff     ................
  41a6e0:	ffffffff ffffffff ffffffff ffffffff     ................
  41a6f0:	ffffffff ffffffff ffffffff ffffffff     ................
  41a700:	ffffffff ffffffff ffffffff ffffffff     ................
  41a710:	ffffffff ffffffff ffffffff ffffffff     ................
  41a720:	ffffffff ffffffff ffffffff ffffffff     ................
  41a730:	ffffffff ffffffff ffffffff ffffffff     ................
  41a740:	ffffffff ffffffff 0000ffff 00000000     ................
	...
  41a75c:	ff000000 ffffffff ffffffff ffffffff     ................
  41a76c:	ffffffff ffffffff ffffffff ffffffff     ................
  41a77c:	ffffffff ffffffff ffffffff ffffffff     ................
  41a78c:	ffffffff ffffffff ffffffff 00ffffff     ................
	...
  41a7b0:	ffffffff ffffffff ffffffff ffffffff     ................
  41a7c0:	ffffffff ffffffff ffffffff ffffffff     ................
  41a7d0:	ffffffff ffffffff ffffffff ffffffff     ................
  41a7e0:	ffffffff ffffffff ffffffff ffffffff     ................
  41a7f0:	ffffffff ffffffff ffffffff ffffffff     ................
  41a800:	ffffffff ffffffff ffffffff ffffffff     ................
  41a810:	ffffffff ffffffff ffffffff ffffffff     ................
  41a820:	ffffffff ffffffff ffffffff ffffffff     ................
  41a830:	ffffffff ffffffff ffffffff ffffffff     ................
  41a840:	ffffffff ffffffff ffffffff ffffffff     ................
  41a850:	ffffffff ffffffff 00000000 00000000     ................
	...
  41a86c:	ffffff00 ffffffff ffffffff ffffffff     ................
  41a87c:	ffffffff ffffffff ffffffff ffffffff     ................
  41a88c:	ffffffff ffffffff ffffffff ffffffff     ................
  41a89c:	ffffffff ffffffff ffffffff ffffffff     ................
	...
  41a8bc:	ffff0000 ffffffff ffffffff ffffffff     ................
  41a8cc:	ffffffff ffffffff ffffffff ffffffff     ................
  41a8dc:	ffffffff ffffffff ffffffff ffffffff     ................
  41a8ec:	ffffffff ffffffff ffffffff ffffffff     ................
  41a8fc:	ffffffff ffffffff ffffffff ffffffff     ................
  41a90c:	ffffffff ffffffff ffffffff ffffffff     ................
  41a91c:	ffffffff ffffffff ffffffff ffffffff     ................
  41a92c:	ffffffff ffffffff ffffffff ffffffff     ................
  41a93c:	ffffffff ffffffff ffffffff ffffffff     ................
  41a94c:	ffffffff ffffffff ffffffff ffffffff     ................
  41a95c:	ffffffff 00ffffff 00000000 00000000     ................
	...
  41a978:	ffffffff ffffffff ffffffff ffffffff     ................
  41a988:	ffffffff ffffffff ffffffff ffffffff     ................
  41a998:	ffffffff ffffffff ffffffff ffffffff     ................
  41a9a8:	ffffffff ffffffff ffffffff ffffffff     ................
  41a9b8:	0000ffff 00000000 00000000 00000000     ................
  41a9c8:	00000000 ff000000 ffffffff ffffffff     ................
  41a9d8:	ffffffff ffffffff ffffffff ffffffff     ................
  41a9e8:	ffffffff ffffffff ffffffff ffffffff     ................
  41a9f8:	ffffffff ffffffff ffffffff ffffffff     ................
  41aa08:	ffffffff ffffffff ffffffff ffffffff     ................
  41aa18:	ffffffff ffffffff ffffffff ffffffff     ................
  41aa28:	ffffffff ffffffff ffffffff ffffffff     ................
  41aa38:	ffffffff ffffffff ffffffff ffffffff     ................
  41aa48:	ffffffff ffffffff ffffffff ffffffff     ................
  41aa58:	ffffffff ffffffff ffffffff ffffffff     ................
  41aa68:	ffffffff ffffffff 000000ff 00000000     ................
	...
  41aa80:	ff000000 ffffffff ffffffff ffffffff     ................
  41aa90:	ffffffff ffffffff ffffffff ffffffff     ................
  41aaa0:	ffffffff ffffffff ffffffff ffffffff     ................
  41aab0:	ffffffff ffffffff ffffffff ffffffff     ................
  41aac0:	ffffffff ffffffff 00ffffff 00000000     ................
	...
  41aadc:	ffffff00 ffffffff ffffffff ffffffff     ................
  41aaec:	ffffffff ffffffff ffffffff ffffffff     ................
  41aafc:	ffffffff ffffffff ffffffff ffffffff     ................
  41ab0c:	ffffffff ffffffff ffffffff ffffffff     ................
  41ab1c:	ffffffff ffffffff ffffffff ffffffff     ................
  41ab2c:	ffffffff ffffffff ffffffff ffffffff     ................
  41ab3c:	ffffffff ffffffff ffffffff ffffffff     ................
  41ab4c:	ffffffff ffffffff ffffffff ffffffff     ................
  41ab5c:	ffffffff ffffffff ffffffff ffffffff     ................
  41ab6c:	ffffffff ffffffff ffffffff ffffffff     ................
  41ab7c:	00ffffff 00000000 00000000 00000000     ................
  41ab8c:	00000000 ffffff00 ffffffff ffffffff     ................
  41ab9c:	ffffffff ffffffff ffffffff ffffffff     ................
  41abac:	ffffffff ffffffff ffffffff ffffffff     ................
  41abbc:	ffffffff ffffffff ffffffff ffffffff     ................
  41abcc:	ffffffff ffffffff ffffffff 000000ff     ................
	...
  41abe8:	ff000000 ffffffff ffffffff ffffffff     ................
  41abf8:	ffffffff ffffffff ffffffff ffffffff     ................
  41ac08:	ffffffff ffffffff ffffffff ffffffff     ................
  41ac18:	ffffffff ffffffff ffffffff ffffffff     ................
  41ac28:	ffffffff ffffffff ffffffff ffffffff     ................
  41ac38:	ffffffff ffffffff ffffffff ffffffff     ................
  41ac48:	ffffffff ffffffff ffffffff ffffffff     ................
  41ac58:	ffffffff ffffffff ffffffff ffffffff     ................
  41ac68:	ffffffff ffffffff ffffffff ffffffff     ................
  41ac78:	ffffffff ffffffff ffffffff ffffffff     ................
  41ac88:	ffffffff 000000ff 00000000 00000000     ................
  41ac98:	00000000 ff000000 ffffffff ffffffff     ................
  41aca8:	ffffffff ffffffff ffffffff ffffffff     ................
  41acb8:	ffffffff ffffffff ffffffff ffffffff     ................
  41acc8:	ffffffff ffffffff ffffffff ffffffff     ................
  41acd8:	ffffffff ffffffff ffffffff 00ffffff     ................
	...
  41acfc:	ffffffff ffffffff ffffffff ffffffff     ................
  41ad0c:	ffffffff ffffffff ffffffff ffffffff     ................
  41ad1c:	ffffffff ffffffff ffffffff ffffffff     ................
  41ad2c:	ffffffff ffffffff ffffffff ffffffff     ................
  41ad3c:	ffffffff ffffffff ffffffff ffffffff     ................
  41ad4c:	ffffffff ffffffff ffffffff ffffffff     ................
  41ad5c:	ffffffff ffffffff ffffffff ffffffff     ................
  41ad6c:	ffffffff ffffffff ffffffff ffffffff     ................
  41ad7c:	ffffffff ffffffff ffffffff ffffffff     ................
  41ad8c:	ffffffff ffffffff ffffffff 00ffffff     ................
	...
  41adac:	ffffff00 ffffffff ffffffff ffffffff     ................
  41adbc:	ffffffff ffffffff ffffffff ffffffff     ................
  41adcc:	ffffffff ffffffff ffffffff ffffffff     ................
  41addc:	ffffffff ffffffff ffffffff ffffffff     ................
  41adec:	ffffffff ffffffff ffffffff 00000000     ................
	...
  41ae08:	ffff0000 ffffffff ffffffff ffffffff     ................
  41ae18:	ffffffff ffffffff ffffffff ffffffff     ................
  41ae28:	ffffffff ffffffff ffffffff ffffffff     ................
  41ae38:	ffffffff ffffffff ffffffff ffffffff     ................
  41ae48:	ffffffff ffffffff ffffffff ffffffff     ................
  41ae58:	ffffffff ffffffff ffffffff ffffffff     ................
  41ae68:	ffffffff ffffffff ffffffff ffffffff     ................
  41ae78:	ffffffff ffffffff ffffffff ffffffff     ................
  41ae88:	ffffffff ffffffff ffffffff ffffffff     ................
  41ae98:	ffffffff ffffffff ffffffff ffffffff     ................
  41aea8:	000000ff 00000000 00000000 00000000     ................
  41aeb8:	ff000000 ffffffff ffffffff ffffffff     ................
  41aec8:	ffffffff ffffffff ffffffff ffffffff     ................
  41aed8:	ffffffff ffffffff ffffffff ffffffff     ................
  41aee8:	ffffffff ffffffff ffffffff ffffffff     ................
  41aef8:	ffffffff ffffffff ffffffff 0000ffff     ................
	...
  41af18:	ffffffff ffffffff ffffffff ffffffff     ................
  41af28:	ffffffff ffffffff ffffffff ffffffff     ................
  41af38:	ffffffff ffffffff ffffffff ffffffff     ................
  41af48:	ffffffff ffffffff ffffffff ffffffff     ................
  41af58:	ffffffff ffffffff ffffffff ffffffff     ................
  41af68:	ffffffff ffffffff ffffffff ffffffff     ................
  41af78:	ffffffff ffffffff ffffffff ffffffff     ................
  41af88:	ffffffff ffffffff ffffffff ffffffff     ................
  41af98:	ffffffff ffffffff ffffffff ffffffff     ................
  41afa8:	ffffffff ffffffff ffffffff 00ffffff     ................
	...
  41afc8:	ffffff00 ffffffff ffffffff ffffffff     ................
  41afd8:	ffffffff ffffffff ffffffff ffffffff     ................
  41afe8:	ffffffff ffffffff ffffffff ffffffff     ................
  41aff8:	ffffffff ffffffff ffffffff ffffffff     ................
  41b008:	ffffffff ffffffff ffffffff 00000000     ................
	...
  41b024:	ffff0000 ffffffff ffffffff ffffffff     ................
  41b034:	ffffffff ffffffff ffffffff ffffffff     ................
  41b044:	ffffffff ffffffff ffffffff ffffffff     ................
  41b054:	ffffffff ffffffff ffffffff ffffffff     ................
  41b064:	ffffffff ffffffff ffffffff ffffffff     ................
  41b074:	ffffffff ffffffff ffffffff ffffffff     ................
  41b084:	ffffffff ffffffff ffffffff ffffffff     ................
  41b094:	ffffffff ffffffff ffffffff ffffffff     ................
  41b0a4:	ffffffff ffffffff ffffffff ffffffff     ................
  41b0b4:	ffffffff ffffffff ffffffff ffffffff     ................
  41b0c4:	000000ff 00000000 00000000 00000000     ................
  41b0d4:	ff000000 ffffffff ffffffff ffffffff     ................
  41b0e4:	ffffffff ffffffff ffffffff ffffffff     ................
  41b0f4:	ffffffff ffffffff ffffffff ffffffff     ................
  41b104:	ffffffff ffffffff ffffffff ffffffff     ................
  41b114:	ffffffff ffffffff ffffffff 0000ffff     ................
	...
  41b134:	ffffffff ffffffff ffffffff ffffffff     ................
  41b144:	ffffffff ffffffff ffffffff ffffffff     ................
  41b154:	ffffffff ffffffff ffffffff ffffffff     ................
  41b164:	ffffffff ffffffff ffffffff ffffffff     ................
  41b174:	ffffffff ffffffff ffffffff ffffffff     ................
  41b184:	ffffffff ffffffff ffffffff ffffffff     ................
  41b194:	ffffffff ffffffff ffffffff ffffffff     ................
  41b1a4:	ffffffff ffffffff ffffffff ffffffff     ................
  41b1b4:	ffffffff ffffffff ffffffff ffffffff     ................
  41b1c4:	ffffffff ffffffff ffffffff 00ffffff     ................
	...
  41b1e4:	ffffff00 ffffffff ffffffff ffffffff     ................
  41b1f4:	ffffffff ffffffff ffffffff ffffffff     ................
  41b204:	ffffffff ffffffff ffffffff ffffffff     ................
  41b214:	ffffffff ffffffff ffffffff ffffffff     ................
  41b224:	ffffffff ffffffff ffffffff 00000000     ................
	...
  41b240:	ffff0000 ffffffff ffffffff ffffffff     ................
  41b250:	ffffffff ffffffff ffffffff ffffffff     ................
  41b260:	ffffffff ffffffff ffffffff ffffffff     ................
  41b270:	ffffffff ffffffff ffffffff ffffffff     ................
  41b280:	ffffffff ffffffff ffffffff ffffffff     ................
  41b290:	ffffffff ffffffff ffffffff ffffffff     ................
  41b2a0:	ffffffff ffffffff ffffffff ffffffff     ................
  41b2b0:	ffffffff ffffffff ffffffff ffffffff     ................
  41b2c0:	ffffffff ffffffff ffffffff ffffffff     ................
  41b2d0:	ffffffff ffffffff ffffffff ffffffff     ................
  41b2e0:	000000ff 00000000 00000000 00000000     ................
  41b2f0:	ff000000 ffffffff ffffffff ffffffff     ................
  41b300:	ffffffff ffffffff ffffffff ffffffff     ................
  41b310:	ffffffff ffffffff ffffffff ffffffff     ................
  41b320:	ffffffff ffffffff ffffffff ffffffff     ................
  41b330:	ffffffff ffffffff 00ffffff 00000000     ................
	...
  41b34c:	ffffff00 ffffffff ffffffff ffffffff     ................
  41b35c:	ffffffff ffffffff ffffffff ffffffff     ................
  41b36c:	ffffffff ffffffff ffffffff ffffffff     ................
  41b37c:	ffffffff ffffffff ffffffff ffffffff     ................
  41b38c:	ffffffff ffffffff ffffffff ffffffff     ................
  41b39c:	ffffffff ffffffff ffffffff ffffffff     ................
  41b3ac:	ffffffff ffffffff ffffffff ffffffff     ................
  41b3bc:	ffffffff ffffffff ffffffff ffffffff     ................
  41b3cc:	ffffffff ffffffff ffffffff ffffffff     ................
  41b3dc:	ffffffff ffffffff ffffffff ffffffff     ................
  41b3ec:	00ffffff 00000000 00000000 00000000     ................
  41b3fc:	00000000 ffffff00 ffffffff ffffffff     ................
  41b40c:	ffffffff ffffffff ffffffff ffffffff     ................
  41b41c:	ffffffff ffffffff ffffffff ffffffff     ................
  41b42c:	ffffffff ffffffff ffffffff ffffffff     ................
  41b43c:	ffffffff ffffffff ffffffff 000000ff     ................
	...
  41b458:	ff000000 ffffffff ffffffff ffffffff     ................
  41b468:	ffffffff ffffffff ffffffff ffffffff     ................
  41b478:	ffffffff ffffffff ffffffff ffffffff     ................
  41b488:	ffffffff ffffffff ffffffff ffffffff     ................
  41b498:	ffffffff ffffffff ffffffff ffffffff     ................
  41b4a8:	ffffffff ffffffff ffffffff ffffffff     ................
  41b4b8:	ffffffff ffffffff ffffffff ffffffff     ................
  41b4c8:	ffffffff ffffffff ffffffff ffffffff     ................
  41b4d8:	ffffffff ffffffff ffffffff ffffffff     ................
  41b4e8:	ffffffff ffffffff ffffffff ffffffff     ................
  41b4f8:	ffffffff 000000ff 00000000 00000000     ................
	...
  41b510:	ffff0000 ffffffff ffffffff ffffffff     ................
  41b520:	ffffffff ffffffff ffffffff ffffffff     ................
  41b530:	ffffffff ffffffff ffffffff ffffffff     ................
  41b540:	ffffffff ffffffff ffffffff ffffffff     ................
  41b550:	ffffffff 00ffffff 00000000 00000000     ................
	...
  41b568:	ffffff00 ffffffff ffffffff ffffffff     ................
  41b578:	ffffffff ffffffff ffffffff ffffffff     ................
  41b588:	ffffffff ffffffff ffffffff ffffffff     ................
  41b598:	ffffffff ffffffff ffffffff ffffffff     ................
  41b5a8:	ffffffff ffffffff ffffffff ffffffff     ................
  41b5b8:	ffffffff ffffffff ffffffff ffffffff     ................
  41b5c8:	ffffffff ffffffff ffffffff ffffffff     ................
  41b5d8:	ffffffff ffffffff ffffffff ffffffff     ................
  41b5e8:	ffffffff ffffffff ffffffff ffffffff     ................
  41b5f8:	ffffffff ffffffff ffffffff ffffffff     ................
  41b608:	ffffffff 0000ffff 00000000 00000000     ................
	...
  41b620:	ffffffff ffffffff ffffffff ffffffff     ................
  41b630:	ffffffff ffffffff ffffffff ffffffff     ................
  41b640:	ffffffff ffffffff ffffffff ffffffff     ................
  41b650:	ffffffff ffffffff ffffffff ffffffff     ................
  41b660:	0000ffff 00000000 00000000 00000000     ................
  41b670:	00000000 ff000000 ffffffff ffffffff     ................
  41b680:	ffffffff ffffffff ffffffff ffffffff     ................
  41b690:	ffffffff ffffffff ffffffff ffffffff     ................
  41b6a0:	ffffffff ffffffff ffffffff ffffffff     ................
  41b6b0:	ffffffff ffffffff ffffffff ffffffff     ................
  41b6c0:	ffffffff ffffffff ffffffff ffffffff     ................
  41b6d0:	ffffffff ffffffff ffffffff ffffffff     ................
  41b6e0:	ffffffff ffffffff ffffffff ffffffff     ................
  41b6f0:	ffffffff ffffffff ffffffff ffffffff     ................
  41b700:	ffffffff ffffffff ffffffff ffffffff     ................
  41b710:	ffffffff ffffffff ffffffff 00000000     ................
	...
  41b730:	ffffff00 ffffffff ffffffff ffffffff     ................
  41b740:	ffffffff ffffffff ffffffff ffffffff     ................
  41b750:	ffffffff ffffffff ffffffff ffffffff     ................
  41b760:	ffffffff ffffffff ffffffff 000000ff     ................
	...
  41b780:	ffff0000 ffffffff ffffffff ffffffff     ................
  41b790:	ffffffff ffffffff ffffffff ffffffff     ................
  41b7a0:	ffffffff ffffffff ffffffff ffffffff     ................
  41b7b0:	ffffffff ffffffff ffffffff ffffffff     ................
  41b7c0:	ffffffff ffffffff ffffffff ffffffff     ................
  41b7d0:	ffffffff ffffffff ffffffff ffffffff     ................
  41b7e0:	ffffffff ffffffff ffffffff ffffffff     ................
  41b7f0:	ffffffff ffffffff ffffffff ffffffff     ................
  41b800:	ffffffff ffffffff ffffffff 00000000     ................
	...
  41b8ac:	ffff0000 ffffffff ffffffff ffffffff     ................
  41b8bc:	ffffffff ffffffff ffffffff ffffffff     ................
  41b8cc:	ffffffff ffffffff ffffffff ffffffff     ................
  41b8dc:	ffffffff ffffffff ffffffff ffffffff     ................
  41b8ec:	ffffffff ffffffff ffffffff ffffffff     ................
  41b8fc:	ffffffff ffffffff ffffffff ffffffff     ................
  41b90c:	ffffffff ffffffff ffffffff 0000ffff     ................
	...
  41b9bc:	ff000000 ffffffff ffffffff ffffffff     ................
  41b9cc:	ffffffff ffffffff ffffffff ffffffff     ................
  41b9dc:	ffffffff ffffffff ffffffff ffffffff     ................
  41b9ec:	ffffffff ffffffff ffffffff ffffffff     ................
  41b9fc:	ffffffff ffffffff ffffffff ffffffff     ................
  41ba0c:	ffffffff ffffffff ffffffff ffffffff     ................
  41ba1c:	ffffffff ffffffff ffffffff 00000000     ................
	...
  41bacc:	ffffff00 ffffffff ffffffff ffffffff     ................
  41badc:	ffffffff ffffffff ffffffff ffffffff     ................
  41baec:	ffffffff ffffffff ffffffff ffffffff     ................
  41bafc:	ffffffff ffffffff ffffffff ffffffff     ................
  41bb0c:	ffffffff ffffffff ffffffff ffffffff     ................
  41bb1c:	ffffffff ffffffff ffffffff ffffffff     ................
  41bb2c:	ffffffff 00ffffff 00000000 00000000     ................
	...
  41bbd8:	ff000000 ffffffff ffffffff ffffffff     ................
  41bbe8:	ffffffff ffffffff ffffffff ffffffff     ................
  41bbf8:	ffffffff ffffffff ffffffff ffffffff     ................
  41bc08:	ffffffff ffffffff ffffffff ffffffff     ................
  41bc18:	ffffffff ffffffff ffffffff ffffffff     ................
  41bc28:	ffffffff ffffffff ffffffff ffffffff     ................
  41bc38:	ffffffff ffffffff 000000ff 00000000     ................
	...
  41bce8:	ffffff00 ffffffff ffffffff ffffffff     ................
  41bcf8:	ffffffff ffffffff ffffffff ffffffff     ................
  41bd08:	ffffffff ffffffff ffffffff ffffffff     ................
  41bd18:	ffffffff ffffffff ffffffff ffffffff     ................
  41bd28:	ffffffff ffffffff ffffffff ffffffff     ................
  41bd38:	ffffffff ffffffff ffffffff ffffffff     ................
  41bd48:	ffffffff 00ffffff 00000000 00000000     ................
	...
  41bdf8:	ffff0000 ffffffff ffffffff ffffffff     ................
  41be08:	ffffffff ffffffff ffffffff ffffffff     ................
  41be18:	ffffffff ffffffff ffffffff ffffffff     ................
  41be28:	ffffffff ffffffff ffffffff ffffffff     ................
  41be38:	ffffffff ffffffff ffffffff ffffffff     ................
  41be48:	ffffffff ffffffff ffffffff ffffffff     ................
  41be58:	ffffffff 000000ff 00000000 00000000     ................
  41be68:	00000000 ffffffff ffffffff ffffffff     ................
  41be78:	ffffffff ffffffff ffffffff ffffffff     ................
  41be88:	ffffffff ffffffff ffffffff ffffffff     ................
  41be98:	ffffffff ffffffff ffffffff ffffffff     ................
  41bea8:	ffffffff ffffffff ffffffff ffffffff     ................
  41beb8:	ffffffff ffffffff ffffffff ffffffff     ................
  41bec8:	ffffffff ffffffff ffffffff ffffffff     ................
  41bed8:	ffffffff ffffffff ffffffff ffffffff     ................
  41bee8:	ffffffff ffffffff ffffffff 0000ffff     ................
	...
  41bf08:	ffffffff ffffffff ffffffff ffffffff     ................
  41bf18:	ffffffff ffffffff ffffffff ffffffff     ................
  41bf28:	ffffffff ffffffff ffffffff ffffffff     ................
  41bf38:	ffffffff ffffffff ffffffff ffffffff     ................
  41bf48:	ffffffff ffffffff ffffffff ffffffff     ................
  41bf58:	ffffffff ffffffff ffffffff ffffffff     ................
	...
  41bf78:	ffff0000 ffffffff ffffffff ffffffff     ................
  41bf88:	ffffffff ffffffff ffffffff ffffffff     ................
  41bf98:	ffffffff ffffffff ffffffff ffffffff     ................
  41bfa8:	ffffffff ffffffff ffffffff ffffffff     ................
  41bfb8:	ffffffff ffffffff ffffffff ffffffff     ................
  41bfc8:	ffffffff ffffffff ffffffff ffffffff     ................
  41bfd8:	ffffffff ffffffff ffffffff ffffffff     ................
  41bfe8:	ffffffff ffffffff ffffffff ffffffff     ................
  41bff8:	ffffffff ffffffff ffffffff 00000000     ................
	...
  41c014:	ffff0000 ffffffff ffffffff ffffffff     ................
  41c024:	ffffffff ffffffff ffffffff ffffffff     ................
  41c034:	ffffffff ffffffff ffffffff ffffffff     ................
  41c044:	ffffffff ffffffff ffffffff ffffffff     ................
  41c054:	ffffffff ffffffff ffffffff ffffffff     ................
  41c064:	ffffffff ffffffff ffffffff ffffffff     ................
  41c074:	0000ffff 00000000 00000000 00000000     ................
  41c084:	00000000 ffffffff ffffffff ffffffff     ................
  41c094:	ffffffff ffffffff ffffffff ffffffff     ................
  41c0a4:	ffffffff ffffffff ffffffff ffffffff     ................
  41c0b4:	ffffffff ffffffff ffffffff ffffffff     ................
  41c0c4:	ffffffff ffffffff ffffffff ffffffff     ................
  41c0d4:	ffffffff ffffffff ffffffff ffffffff     ................
  41c0e4:	ffffffff ffffffff ffffffff ffffffff     ................
  41c0f4:	ffffffff ffffffff ffffffff ffffffff     ................
  41c104:	ffffffff ffffffff ffffffff ffffffff     ................
  41c114:	000000ff 00000000 00000000 00000000     ................
  41c124:	ffffffff ffffffff ffffffff ffffffff     ................
  41c134:	ffffffff ffffffff ffffffff ffffffff     ................
  41c144:	ffffffff ffffffff ffffffff ffffffff     ................
  41c154:	ffffffff ffffffff ffffffff ffffffff     ................
  41c164:	ffffffff ffffffff ffffffff ffffffff     ................
  41c174:	ffffffff ffffffff ffffffff ffffffff     ................
	...
  41c190:	ff000000 ffffffff ffffffff ffffffff     ................
  41c1a0:	ffffffff ffffffff ffffffff ffffffff     ................
  41c1b0:	ffffffff ffffffff ffffffff ffffffff     ................
  41c1c0:	ffffffff ffffffff ffffffff ffffffff     ................
  41c1d0:	ffffffff ffffffff ffffffff ffffffff     ................
  41c1e0:	ffffffff ffffffff ffffffff ffffffff     ................
  41c1f0:	ffffffff ffffffff ffffffff ffffffff     ................
  41c200:	ffffffff ffffffff ffffffff ffffffff     ................
  41c210:	ffffffff ffffffff ffffffff ffffffff     ................
  41c220:	00ffffff 00000000 00000000 00000000     ................
  41c230:	00000000 ffffff00 ffffffff ffffffff     ................
  41c240:	ffffffff ffffffff ffffffff ffffffff     ................
  41c250:	ffffffff ffffffff ffffffff ffffffff     ................
  41c260:	ffffffff ffffffff ffffffff ffffffff     ................
  41c270:	ffffffff ffffffff ffffffff ffffffff     ................
  41c280:	ffffffff ffffffff ffffffff ffffffff     ................
  41c290:	0000ffff 00000000 00000000 00000000     ................
  41c2a0:	ffffff00 ffffffff ffffffff ffffffff     ................
  41c2b0:	ffffffff ffffffff ffffffff ffffffff     ................
  41c2c0:	ffffffff ffffffff ffffffff ffffffff     ................
  41c2d0:	ffffffff ffffffff ffffffff ffffffff     ................
  41c2e0:	ffffffff ffffffff ffffffff ffffffff     ................
  41c2f0:	ffffffff ffffffff ffffffff ffffffff     ................
  41c300:	ffffffff ffffffff ffffffff ffffffff     ................
  41c310:	ffffffff ffffffff ffffffff ffffffff     ................
  41c320:	ffffffff ffffffff ffffffff ffffffff     ................
  41c330:	000000ff 00000000 00000000 00000000     ................
  41c340:	ff000000 ffffffff ffffffff ffffffff     ................
  41c350:	ffffffff ffffffff ffffffff ffffffff     ................
  41c360:	ffffffff ffffffff ffffffff ffffffff     ................
  41c370:	ffffffff ffffffff ffffffff ffffffff     ................
  41c380:	ffffffff ffffffff ffffffff ffffffff     ................
  41c390:	ffffffff ffffffff ffffffff 000000ff     ................
	...
  41c3ac:	ff000000 ffffffff ffffffff ffffffff     ................
  41c3bc:	ffffffff ffffffff ffffffff ffffffff     ................
  41c3cc:	ffffffff ffffffff ffffffff ffffffff     ................
  41c3dc:	ffffffff ffffffff ffffffff ffffffff     ................
  41c3ec:	ffffffff ffffffff ffffffff ffffffff     ................
  41c3fc:	ffffffff ffffffff ffffffff ffffffff     ................
  41c40c:	ffffffff ffffffff ffffffff ffffffff     ................
  41c41c:	ffffffff ffffffff ffffffff ffffffff     ................
  41c42c:	ffffffff ffffffff ffffffff ffffffff     ................
  41c43c:	00ffffff 00000000 00000000 00000000     ................
  41c44c:	00000000 ffffff00 ffffffff ffffffff     ................
  41c45c:	ffffffff ffffffff ffffffff ffffffff     ................
  41c46c:	ffffffff ffffffff ffffffff ffffffff     ................
  41c47c:	ffffffff ffffffff ffffffff ffffffff     ................
  41c48c:	ffffffff ffffffff ffffffff ffffffff     ................
  41c49c:	ffffffff ffffffff ffffffff 00ffffff     ................
	...
  41c4bc:	ffffff00 ffffffff ffffffff ffffffff     ................
  41c4cc:	ffffffff ffffffff ffffffff ffffffff     ................
  41c4dc:	ffffffff ffffffff ffffffff ffffffff     ................
  41c4ec:	ffffffff ffffffff ffffffff ffffffff     ................
  41c4fc:	ffffffff ffffffff ffffffff ffffffff     ................
  41c50c:	ffffffff ffffffff ffffffff ffffffff     ................
  41c51c:	ffffffff ffffffff ffffffff ffffffff     ................
  41c52c:	ffffffff ffffffff ffffffff ffffffff     ................
  41c53c:	ffffffff ffffffff ffffffff ffffffff     ................
  41c54c:	ffffffff 00000000 00000000 00000000     ................
  41c55c:	ff000000 ffffffff ffffffff ffffffff     ................
  41c56c:	ffffffff ffffffff ffffffff ffffffff     ................
  41c57c:	ffffffff ffffffff ffffffff ffffffff     ................
  41c58c:	ffffffff ffffffff ffffffff ffffffff     ................
  41c59c:	ffffffff ffffffff ffffffff ffffffff     ................
  41c5ac:	ffffffff ffffffff ffffffff 000000ff     ................
	...
  41c5c8:	ffffffff ffffffff ffffffff ffffffff     ................
  41c5d8:	ffffffff ffffffff ffffffff ffffffff     ................
  41c5e8:	ffffffff ffffffff ffffffff ffffffff     ................
  41c5f8:	ffffffff ffffffff ffffffff ffffffff     ................
  41c608:	ffffffff ffffffff ffffffff ffffffff     ................
  41c618:	ffffffff ffffffff ffffffff ffffffff     ................
  41c628:	ffffffff ffffffff ffffffff ffffffff     ................
  41c638:	ffffffff ffffffff ffffffff ffffffff     ................
  41c648:	ffffffff ffffffff ffffffff ffffffff     ................
  41c658:	ffffffff 0000ffff 00000000 00000000     ................
	...
  41c670:	ffffffff ffffffff ffffffff ffffffff     ................
  41c680:	ffffffff ffffffff ffffffff ffffffff     ................
  41c690:	ffffffff ffffffff ffffffff ffffffff     ................
  41c6a0:	ffffffff ffffffff ffffffff ffffffff     ................
  41c6b0:	ffffffff ffffffff ffffffff ffffffff     ................
  41c6c0:	ffffffff 00ffffff 00000000 00000000     ................
  41c6d0:	00000000 ffff0000 ffffffff ffffffff     ................
  41c6e0:	ffffffff ffffffff ffffffff ffffffff     ................
  41c6f0:	ffffffff ffffffff ffffffff ffffffff     ................
  41c700:	ffffffff ffffffff ffffffff ffffffff     ................
  41c710:	ffffffff ffffffff ffffffff ffffffff     ................
  41c720:	ffffffff ffffffff ffffffff ffffffff     ................
  41c730:	ffffffff ffffffff ffffffff ffffffff     ................
  41c740:	ffffffff ffffffff ffffffff ffffffff     ................
  41c750:	ffffffff ffffffff ffffffff ffffffff     ................
  41c760:	ffffffff ffffffff ffffffff 00000000     ................
	...
  41c77c:	ffff0000 ffffffff ffffffff ffffffff     ................
  41c78c:	ffffffff ffffffff ffffffff ffffffff     ................
  41c79c:	ffffffff ffffffff ffffffff ffffffff     ................
  41c7ac:	ffffffff ffffffff ffffffff ffffffff     ................
  41c7bc:	ffffffff ffffffff ffffffff ffffffff     ................
  41c7cc:	ffffffff 0000ffff 00000000 00000000     ................
	...
  41c7e4:	ffffffff ffffffff ffffffff ffffffff     ................
  41c7f4:	ffffffff ffffffff ffffffff ffffffff     ................
  41c804:	ffffffff ffffffff ffffffff ffffffff     ................
  41c814:	ffffffff ffffffff ffffffff ffffffff     ................
  41c824:	ffffffff ffffffff ffffffff ffffffff     ................
  41c834:	ffffffff ffffffff ffffffff ffffffff     ................
  41c844:	ffffffff ffffffff ffffffff ffffffff     ................
  41c854:	ffffffff ffffffff ffffffff ffffffff     ................
  41c864:	ffffffff ffffffff ffffffff ffffffff     ................
  41c874:	ffffffff 0000ffff 00000000 00000000     ................
	...
  41c88c:	ffffffff ffffffff ffffffff ffffffff     ................
  41c89c:	ffffffff ffffffff ffffffff ffffffff     ................
  41c8ac:	ffffffff ffffffff ffffffff ffffffff     ................
  41c8bc:	ffffffff ffffffff ffffffff ffffffff     ................
  41c8cc:	ffffffff ffffffff ffffffff ffffffff     ................
  41c8dc:	ffffffff 00000000 00000000 00000000     ................
  41c8ec:	00000000 ffff0000 ffffffff ffffffff     ................
  41c8fc:	ffffffff ffffffff ffffffff ffffffff     ................
  41c90c:	ffffffff ffffffff ffffffff ffffffff     ................
  41c91c:	ffffffff ffffffff ffffffff ffffffff     ................
  41c92c:	ffffffff ffffffff ffffffff ffffffff     ................
  41c93c:	ffffffff ffffffff ffffffff ffffffff     ................
  41c94c:	ffffffff ffffffff ffffffff ffffffff     ................
  41c95c:	ffffffff ffffffff ffffffff ffffffff     ................
  41c96c:	ffffffff ffffffff ffffffff ffffffff     ................
  41c97c:	ffffffff ffffffff ffffffff 00ffffff     ................
	...
  41c998:	ffff0000 ffffffff ffffffff ffffffff     ................
  41c9a8:	ffffffff ffffffff ffffffff ffffffff     ................
  41c9b8:	ffffffff ffffffff ffffffff ffffffff     ................
  41c9c8:	ffffffff ffffffff ffffffff ffffffff     ................
  41c9d8:	ffffffff ffffffff ffffffff ffffffff     ................
  41c9e8:	ffffffff 0000ffff 00000000 00000000     ................
  41c9f8:	00000000 ffffff00 ffffffff ffffffff     ................
  41ca08:	ffffffff ffffffff ffffffff ffffffff     ................
  41ca18:	ffffffff ffffffff ffffffff ffffffff     ................
  41ca28:	ffffffff ffffffff ffffffff ffffffff     ................
  41ca38:	ffffffff ffffffff ffffffff ffffffff     ................
  41ca48:	ffffffff ffffffff ffffffff ffffffff     ................
  41ca58:	ffffffff ffffffff ffffffff ffffffff     ................
  41ca68:	ffffffff ffffffff ffffffff ffffffff     ................
  41ca78:	ffffffff ffffffff ffffffff ffffffff     ................
  41ca88:	ffffffff ffffffff ffffffff ffffffff     ................
  41ca98:	000000ff 00000000 00000000 00000000     ................
  41caa8:	ff000000 ffffffff ffffffff ffffffff     ................
  41cab8:	ffffffff ffffffff ffffffff ffffffff     ................
  41cac8:	ffffffff ffffffff ffffffff ffffffff     ................
  41cad8:	ffffffff ffffffff ffffffff ffffffff     ................
  41cae8:	ffffffff ffffffff ffffffff ffffffff     ................
  41caf8:	ffffffff 00000000 00000000 00000000     ................
  41cb08:	ff000000 ffffffff ffffffff ffffffff     ................
  41cb18:	ffffffff ffffffff ffffffff ffffffff     ................
  41cb28:	ffffffff ffffffff ffffffff ffffffff     ................
  41cb38:	ffffffff ffffffff ffffffff ffffffff     ................
  41cb48:	ffffffff ffffffff ffffffff ffffffff     ................
  41cb58:	ffffffff ffffffff ffffffff ffffffff     ................
  41cb68:	ffffffff ffffffff ffffffff ffffffff     ................
  41cb78:	ffffffff ffffffff ffffffff ffffffff     ................
  41cb88:	ffffffff ffffffff ffffffff ffffffff     ................
  41cb98:	ffffffff ffffffff ffffffff 00ffffff     ................
	...
  41cbb8:	ffffff00 ffffffff ffffffff ffffffff     ................
  41cbc8:	ffffffff ffffffff ffffffff ffffffff     ................
  41cbd8:	ffffffff ffffffff ffffffff ffffffff     ................
  41cbe8:	ffffffff ffffffff ffffffff ffffffff     ................
  41cbf8:	ffffffff ffffffff ffffffff 00ffffff     ................
	...
  41cc18:	ffffff00 ffffffff ffffffff ffffffff     ................
  41cc28:	ffffffff ffffffff ffffffff ffffffff     ................
  41cc38:	ffffffff ffffffff ffffffff ffffffff     ................
  41cc48:	ffffffff ffffffff ffffffff ffffffff     ................
  41cc58:	ffffffff ffffffff ffffffff ffffffff     ................
  41cc68:	ffffffff ffffffff ffffffff ffffffff     ................
  41cc78:	ffffffff ffffffff ffffffff ffffffff     ................
  41cc88:	ffffffff ffffffff ffffffff ffffffff     ................
  41cc98:	ffffffff ffffffff ffffffff ffffffff     ................
  41cca8:	ffffffff ffffffff ffffffff 000000ff     ................
	...
  41ccc4:	ff000000 ffffffff ffffffff ffffffff     ................
  41ccd4:	ffffffff ffffffff ffffffff ffffffff     ................
  41cce4:	ffffffff ffffffff ffffffff ffffffff     ................
  41ccf4:	ffffffff ffffffff ffffffff ffffffff     ................
  41cd04:	ffffffff ffffffff ffffffff ffffffff     ................
  41cd14:	000000ff 00000000 00000000 00000000     ................
  41cd24:	ff000000 ffffffff ffffffff ffffffff     ................
  41cd34:	ffffffff ffffffff ffffffff ffffffff     ................
  41cd44:	ffffffff ffffffff ffffffff ffffffff     ................
  41cd54:	ffffffff ffffffff ffffffff ffffffff     ................
  41cd64:	ffffffff ffffffff ffffffff ffffffff     ................
  41cd74:	ffffffff ffffffff ffffffff ffffffff     ................
  41cd84:	ffffffff ffffffff ffffffff ffffffff     ................
  41cd94:	ffffffff ffffffff ffffffff ffffffff     ................
  41cda4:	ffffffff ffffffff ffffffff ffffffff     ................
  41cdb4:	ffffffff ffffffff ffffffff ffffffff     ................
  41cdc4:	0000ffff 00000000 00000000 00000000     ................
  41cdd4:	ffffff00 ffffffff ffffffff ffffffff     ................
  41cde4:	ffffffff ffffffff ffffffff ffffffff     ................
  41cdf4:	ffffffff ffffffff ffffffff ffffffff     ................
  41ce04:	ffffffff ffffffff ffffffff ffffffff     ................
  41ce14:	ffffffff ffffffff ffffffff 00ffffff     ................
	...
  41ce30:	ffff0000 ffffffff ffffffff ffffffff     ................
  41ce40:	ffffffff ffffffff ffffffff ffffffff     ................
  41ce50:	ffffffff ffffffff ffffffff ffffffff     ................
  41ce60:	ffffffff ffffffff ffffffff ffffffff     ................
  41ce70:	ffffffff ffffffff ffffffff ffffffff     ................
  41ce80:	ffffffff ffffffff ffffffff ffffffff     ................
  41ce90:	ffffffff ffffffff ffffffff ffffffff     ................
  41cea0:	ffffffff ffffffff ffffffff ffffffff     ................
  41ceb0:	ffffffff ffffffff ffffffff ffffffff     ................
  41cec0:	ffffffff ffffffff ffffffff ffffffff     ................
  41ced0:	ffffffff 00000000 00000000 00000000     ................
  41cee0:	00000000 ffff0000 ffffffff ffffffff     ................
  41cef0:	ffffffff ffffffff ffffffff ffffffff     ................
  41cf00:	ffffffff ffffffff ffffffff ffffffff     ................
  41cf10:	ffffffff ffffffff ffffffff ffffffff     ................
  41cf20:	ffffffff ffffffff ffffffff 0000ffff     ................
	...
  41cf40:	ffffffff ffffffff ffffffff ffffffff     ................
  41cf50:	ffffffff ffffffff ffffffff ffffffff     ................
  41cf60:	ffffffff ffffffff ffffffff ffffffff     ................
  41cf70:	ffffffff ffffffff ffffffff ffffffff     ................
  41cf80:	ffffffff ffffffff ffffffff ffffffff     ................
  41cf90:	ffffffff ffffffff ffffffff ffffffff     ................
  41cfa0:	ffffffff ffffffff ffffffff ffffffff     ................
  41cfb0:	ffffffff ffffffff ffffffff ffffffff     ................
  41cfc0:	ffffffff ffffffff ffffffff ffffffff     ................
  41cfd0:	ffffffff ffffffff ffffffff ffffffff     ................
  41cfe0:	0000ffff 00000000 00000000 00000000     ................
  41cff0:	00000000 ffffffff ffffffff ffffffff     ................
  41d000:	ffffffff ffffffff ffffffff ffffffff     ................
  41d010:	ffffffff ffffffff ffffffff ffffffff     ................
  41d020:	ffffffff ffffffff ffffffff ffffffff     ................
  41d030:	ffffffff ffffffff ffffffff 00000000     ................
	...
  41d04c:	ffff0000 ffffffff ffffffff ffffffff     ................
  41d05c:	ffffffff ffffffff ffffffff ffffffff     ................
  41d06c:	ffffffff ffffffff ffffffff ffffffff     ................
  41d07c:	ffffffff ffffffff ffffffff ffffffff     ................
  41d08c:	ffffffff ffffffff ffffffff ffffffff     ................
  41d09c:	ffffffff ffffffff ffffffff ffffffff     ................
  41d0ac:	ffffffff ffffffff ffffffff ffffffff     ................
  41d0bc:	ffffffff ffffffff ffffffff ffffffff     ................
  41d0cc:	ffffffff ffffffff ffffffff ffffffff     ................
  41d0dc:	ffffffff ffffffff ffffffff ffffffff     ................
  41d0ec:	ffffffff 00ffffff 00000000 00000000     ................
  41d0fc:	00000000 ffff0000 ffffffff ffffffff     ................
  41d10c:	ffffffff ffffffff ffffffff ffffffff     ................
  41d11c:	ffffffff ffffffff ffffffff ffffffff     ................
  41d12c:	ffffffff ffffffff ffffffff ffffffff     ................
  41d13c:	ffffffff ffffffff ffffffff 0000ffff     ................
	...
  41d15c:	ffffffff ffffffff ffffffff ffffffff     ................
  41d16c:	ffffffff ffffffff ffffffff ffffffff     ................
  41d17c:	ffffffff ffffffff ffffffff ffffffff     ................
  41d18c:	ffffffff ffffffff ffffffff ffffffff     ................
  41d19c:	ffffffff ffffffff ffffffff ffffffff     ................
  41d1ac:	ffffffff ffffffff ffffffff ffffffff     ................
  41d1bc:	ffffffff ffffffff ffffffff ffffffff     ................
  41d1cc:	ffffffff ffffffff ffffffff ffffffff     ................
  41d1dc:	ffffffff ffffffff ffffffff ffffffff     ................
  41d1ec:	ffffffff ffffffff ffffffff ffffffff     ................
  41d1fc:	ffffffff 000000ff 00000000 00000000     ................
  41d20c:	00000000 ffffffff ffffffff ffffffff     ................
  41d21c:	ffffffff ffffffff ffffffff ffffffff     ................
  41d22c:	ffffffff ffffffff ffffffff ffffffff     ................
  41d23c:	ffffffff ffffffff ffffffff ffffffff     ................
  41d24c:	ffffffff ffffffff ffffffff 00000000     ................
	...
  41d264:	ff000000 ffffffff ffffffff ffffffff     ................
  41d274:	ffffffff ffffffff ffffffff ffffffff     ................
  41d284:	ffffffff ffffffff ffffffff ffffffff     ................
  41d294:	ffffffff ffffffff ffffffff ffffffff     ................
  41d2a4:	ffffffff ffffffff ffffffff ffffffff     ................
  41d2b4:	ffffffff ffffffff ffffffff ffffffff     ................
  41d2c4:	ffffffff ffffffff ffffffff ffffffff     ................
  41d2d4:	ffffffff ffffffff ffffffff ffffffff     ................
  41d2e4:	ffffffff ffffffff ffffffff ffffffff     ................
  41d2f4:	ffffffff ffffffff ffffffff ffffffff     ................
  41d304:	ffffffff ffffffff 00ffffff 00000000     ................
	...
  41d320:	ffffff00 ffffffff ffffffff ffffffff     ................
  41d330:	ffffffff ffffffff ffffffff ffffffff     ................
  41d340:	ffffffff ffffffff ffffffff ffffffff     ................
  41d350:	ffffffff ffffffff ffffffff ffffffff     ................
  41d360:	00ffffff 00000000 00000000 00000000     ................
  41d370:	00000000 ffffff00 ffffffff ffffffff     ................
  41d380:	ffffffff ffffffff ffffffff ffffffff     ................
  41d390:	ffffffff ffffffff ffffffff ffffffff     ................
  41d3a0:	ffffffff ffffffff ffffffff ffffffff     ................
  41d3b0:	ffffffff ffffffff ffffffff ffffffff     ................
  41d3c0:	ffffffff ffffffff ffffffff ffffffff     ................
  41d3d0:	ffffffff ffffffff ffffffff ffffffff     ................
  41d3e0:	ffffffff ffffffff ffffffff ffffffff     ................
  41d3f0:	ffffffff ffffffff ffffffff ffffffff     ................
  41d400:	ffffffff ffffffff ffffffff ffffffff     ................
  41d410:	ffffffff ffffffff ffffffff 000000ff     ................
	...
  41d42c:	ff000000 ffffffff ffffffff ffffffff     ................
  41d43c:	ffffffff ffffffff ffffffff ffffffff     ................
  41d44c:	ffffffff ffffffff ffffffff ffffffff     ................
  41d45c:	ffffffff ffffffff ffffffff ffffffff     ................
  41d46c:	ffffffff 000000ff 00000000 00000000     ................
  41d47c:	00000000 ff000000 ffffffff ffffffff     ................
  41d48c:	ffffffff ffffffff ffffffff ffffffff     ................
  41d49c:	ffffffff ffffffff ffffffff ffffffff     ................
  41d4ac:	ffffffff ffffffff ffffffff ffffffff     ................
  41d4bc:	ffffffff ffffffff ffffffff ffffffff     ................
  41d4cc:	ffffffff ffffffff ffffffff ffffffff     ................
  41d4dc:	ffffffff ffffffff ffffffff ffffffff     ................
  41d4ec:	ffffffff ffffffff ffffffff ffffffff     ................
  41d4fc:	ffffffff ffffffff ffffffff ffffffff     ................
  41d50c:	ffffffff ffffffff ffffffff ffffffff     ................
  41d51c:	ffffffff ffffffff ffffffff ffffffff     ................
  41d52c:	0000ffff 00000000 00000000 00000000     ................
  41d53c:	ffffff00 ffffffff ffffffff ffffffff     ................
  41d54c:	ffffffff ffffffff ffffffff ffffffff     ................
  41d55c:	ffffffff ffffffff ffffffff ffffffff     ................
  41d56c:	ffffffff ffffffff ffffffff ffffffff     ................
  41d57c:	00ffffff 00000000 00000000 00000000     ................
  41d58c:	00000000 ffffff00 ffffffff ffffffff     ................
  41d59c:	ffffffff ffffffff ffffffff ffffffff     ................
  41d5ac:	ffffffff ffffffff ffffffff ffffffff     ................
  41d5bc:	ffffffff ffffffff ffffffff ffffffff     ................
  41d5cc:	ffffffff ffffffff ffffffff ffffffff     ................
  41d5dc:	ffffffff ffffffff ffffffff ffffffff     ................
  41d5ec:	ffffffff ffffffff ffffffff ffffffff     ................
  41d5fc:	ffffffff ffffffff ffffffff ffffffff     ................
  41d60c:	ffffffff ffffffff ffffffff ffffffff     ................
  41d61c:	ffffffff ffffffff ffffffff ffffffff     ................
  41d62c:	ffffffff ffffffff ffffffff ffffffff     ................
	...
  41d648:	ff000000 ffffffff ffffffff ffffffff     ................
  41d658:	ffffffff ffffffff ffffffff ffffffff     ................
  41d668:	ffffffff ffffffff ffffffff ffffffff     ................
  41d678:	ffffffff ffffffff ffffffff ffffffff     ................
  41d688:	ffffffff 000000ff 00000000 00000000     ................
  41d698:	00000000 ffffffff ffffffff ffffffff     ................
  41d6a8:	ffffffff ffffffff ffffffff ffffffff     ................
  41d6b8:	ffffffff ffffffff ffffffff ffffffff     ................
  41d6c8:	ffffffff ffffffff ffffffff ffffffff     ................
  41d6d8:	ffffffff ffffffff ffffffff ffffffff     ................
  41d6e8:	ffffffff ffffffff ffffffff ffffffff     ................
  41d6f8:	ffffffff ffffffff ffffffff ffffffff     ................
  41d708:	ffffffff ffffffff ffffffff ffffffff     ................
  41d718:	ffffffff ffffffff ffffffff ffffffff     ................
  41d728:	ffffffff ffffffff ffffffff ffffffff     ................
  41d738:	ffffffff ffffffff ffffffff ffffffff     ................
  41d748:	0000ffff 00000000 00000000 00000000     ................
  41d758:	00000000 ffffffff ffffffff ffffffff     ................
  41d768:	ffffffff ffffffff ffffffff ffffffff     ................
  41d778:	ffffffff ffffffff ffffffff ffffffff     ................
  41d788:	ffffffff ffffffff ffffffff ffffffff     ................
	...
  41d7a8:	ffff0000 ffffffff ffffffff ffffffff     ................
  41d7b8:	ffffffff ffffffff ffffffff ffffffff     ................
  41d7c8:	ffffffff ffffffff ffffffff ffffffff     ................
  41d7d8:	ffffffff ffffffff ffffffff ffffffff     ................
  41d7e8:	ffffffff ffffffff ffffffff ffffffff     ................
  41d7f8:	ffffffff ffffffff ffffffff ffffffff     ................
  41d808:	ffffffff ffffffff ffffffff ffffffff     ................
  41d818:	ffffffff ffffffff ffffffff ffffffff     ................
  41d828:	ffffffff ffffffff ffffffff ffffffff     ................
  41d838:	ffffffff ffffffff ffffffff ffffffff     ................
  41d848:	ffffffff ffffffff ffffffff ffffffff     ................
	...
  41d868:	ffff0000 ffffffff ffffffff ffffffff     ................
  41d878:	ffffffff ffffffff ffffffff ffffffff     ................
  41d888:	ffffffff ffffffff ffffffff ffffffff     ................
  41d898:	ffffffff ffffffff ffffffff 0000ffff     ................
	...
  41d8b8:	ffffffff ffffffff ffffffff ffffffff     ................
  41d8c8:	ffffffff ffffffff ffffffff ffffffff     ................
  41d8d8:	ffffffff ffffffff ffffffff ffffffff     ................
  41d8e8:	ffffffff ffffffff ffffffff ffffffff     ................
  41d8f8:	ffffffff ffffffff ffffffff ffffffff     ................
  41d908:	ffffffff ffffffff ffffffff ffffffff     ................
  41d918:	ffffffff ffffffff ffffffff ffffffff     ................
  41d928:	ffffffff ffffffff ffffffff ffffffff     ................
  41d938:	ffffffff ffffffff ffffffff ffffffff     ................
  41d948:	ffffffff ffffffff ffffffff ffffffff     ................
  41d958:	ffffffff ffffffff ffffffff ffffffff     ................
  41d968:	000000ff 00000000 00000000 00000000     ................
  41d978:	ffffffff ffffffff ffffffff ffffffff     ................
  41d988:	ffffffff ffffffff ffffffff ffffffff     ................
  41d998:	ffffffff ffffffff ffffffff ffffffff     ................
  41d9a8:	ffffffff ffffffff ffffffff 00000000     ................
	...
  41d9c4:	ffff0000 ffffffff ffffffff ffffffff     ................
  41d9d4:	ffffffff ffffffff ffffffff ffffffff     ................
  41d9e4:	ffffffff ffffffff ffffffff ffffffff     ................
  41d9f4:	ffffffff ffffffff ffffffff ffffffff     ................
  41da04:	ffffffff ffffffff ffffffff ffffffff     ................
  41da14:	ffffffff ffffffff ffffffff ffffffff     ................
  41da24:	ffffffff ffffffff ffffffff ffffffff     ................
  41da34:	ffffffff ffffffff ffffffff ffffffff     ................
  41da44:	ffffffff ffffffff ffffffff ffffffff     ................
  41da54:	ffffffff ffffffff ffffffff ffffffff     ................
  41da64:	ffffffff ffffffff ffffffff ffffffff     ................
  41da74:	00ffffff 00000000 00000000 00000000     ................
  41da84:	ffff0000 ffffffff ffffffff ffffffff     ................
  41da94:	ffffffff ffffffff ffffffff ffffffff     ................
  41daa4:	ffffffff ffffffff ffffffff ffffffff     ................
  41dab4:	ffffffff ffffffff ffffffff 0000ffff     ................
	...
  41dad0:	ffffff00 ffffffff ffffffff ffffffff     ................
  41dae0:	ffffffff ffffffff ffffffff ffffffff     ................
  41daf0:	ffffffff ffffffff ffffffff ffffffff     ................
  41db00:	ffffffff ffffffff ffffffff ffffffff     ................
  41db10:	ffffffff ffffffff ffffffff ffffffff     ................
  41db20:	ffffffff ffffffff ffffffff ffffffff     ................
  41db30:	ffffffff ffffffff ffffffff ffffffff     ................
  41db40:	ffffffff ffffffff ffffffff ffffffff     ................
  41db50:	ffffffff ffffffff ffffffff ffffffff     ................
  41db60:	ffffffff ffffffff ffffffff ffffffff     ................
  41db70:	ffffffff ffffffff ffffffff ffffffff     ................
  41db80:	ffffffff 000000ff 00000000 00000000     ................
  41db90:	00000000 ff000000 ffffffff ffffffff     ................
  41dba0:	ffffffff ffffffff ffffffff ffffffff     ................
  41dbb0:	ffffffff ffffffff ffffffff ffffffff     ................
  41dbc0:	ffffffff ffffffff ffffffff 000000ff     ................
	...
  41dbdc:	ff000000 ffffffff ffffffff ffffffff     ................
  41dbec:	ffffffff ffffffff ffffffff ffffffff     ................
  41dbfc:	ffffffff ffffffff ffffffff ffffffff     ................
  41dc0c:	ffffffff ffffffff ffffffff ffffffff     ................
  41dc1c:	ffffffff ffffffff ffffffff ffffffff     ................
  41dc2c:	ffffffff ffffffff ffffffff ffffffff     ................
  41dc3c:	ffffffff ffffffff ffffffff ffffffff     ................
  41dc4c:	ffffffff ffffffff ffffffff ffffffff     ................
  41dc5c:	ffffffff ffffffff ffffffff ffffffff     ................
  41dc6c:	ffffffff ffffffff ffffffff ffffffff     ................
  41dc7c:	ffffffff ffffffff ffffffff ffffffff     ................
  41dc8c:	ffffffff 00ffffff 00000000 00000000     ................
	...
  41dca4:	ffffff00 ffffffff ffffffff ffffffff     ................
  41dcb4:	ffffffff ffffffff ffffffff ffffffff     ................
  41dcc4:	ffffffff ffffffff ffffffff ffffffff     ................
  41dcd4:	ffffffff 00ffffff 00000000 00000000     ................
	...
  41dcec:	ffffff00 ffffffff ffffffff ffffffff     ................
  41dcfc:	ffffffff ffffffff ffffffff ffffffff     ................
  41dd0c:	ffffffff ffffffff ffffffff ffffffff     ................
  41dd1c:	ffffffff ffffffff ffffffff ffffffff     ................
  41dd2c:	ffffffff ffffffff ffffffff ffffffff     ................
  41dd3c:	ffffffff ffffffff ffffffff ffffffff     ................
  41dd4c:	ffffffff ffffffff ffffffff ffffffff     ................
  41dd5c:	ffffffff ffffffff ffffffff ffffffff     ................
  41dd6c:	ffffffff ffffffff ffffffff ffffffff     ................
  41dd7c:	ffffffff ffffffff ffffffff ffffffff     ................
  41dd8c:	ffffffff ffffffff ffffffff ffffffff     ................
  41dd9c:	ffffffff ffffffff 00000000 00000000     ................
  41ddac:	00000000 ff000000 ffffffff ffffffff     ................
  41ddbc:	ffffffff ffffffff ffffffff ffffffff     ................
  41ddcc:	ffffffff ffffffff ffffffff ffffffff     ................
  41dddc:	ffffffff ffffffff ffffffff 000000ff     ................
	...
  41ddf8:	ff000000 ffffffff ffffffff ffffffff     ................
  41de08:	ffffffff ffffffff ffffffff ffffffff     ................
  41de18:	ffffffff ffffffff ffffffff ffffffff     ................
  41de28:	ffffffff ffffffff ffffffff ffffffff     ................
  41de38:	ffffffff ffffffff ffffffff ffffffff     ................
  41de48:	ffffffff ffffffff ffffffff ffffffff     ................
  41de58:	ffffffff ffffffff ffffffff ffffffff     ................
  41de68:	ffffffff ffffffff ffffffff ffffffff     ................
  41de78:	ffffffff ffffffff ffffffff ffffffff     ................
  41de88:	ffffffff ffffffff ffffffff ffffffff     ................
  41de98:	ffffffff ffffffff ffffffff ffffffff     ................
  41dea8:	ffffffff ffffffff 0000ffff 00000000     ................
	...
  41dec0:	ffffff00 ffffffff ffffffff ffffffff     ................
  41ded0:	ffffffff ffffffff ffffffff ffffffff     ................
  41dee0:	ffffffff ffffffff ffffffff ffffffff     ................
  41def0:	ffffffff 00ffffff 00000000 00000000     ................
  41df00:	00000000 ffff0000 ffffffff ffffffff     ................
  41df10:	ffffffff ffffffff ffffffff ffffffff     ................
  41df20:	ffffffff ffffffff ffffffff ffffffff     ................
  41df30:	ffffffff ffffffff ffffffff ffffffff     ................
  41df40:	ffffffff ffffffff ffffffff ffffffff     ................
  41df50:	ffffffff ffffffff ffffffff ffffffff     ................
  41df60:	ffffffff ffffffff ffffffff ffffffff     ................
  41df70:	ffffffff ffffffff ffffffff ffffffff     ................
  41df80:	ffffffff ffffffff ffffffff ffffffff     ................
  41df90:	ffffffff ffffffff ffffffff ffffffff     ................
  41dfa0:	ffffffff ffffffff ffffffff ffffffff     ................
  41dfb0:	ffffffff ffffffff ffffffff ffffffff     ................
	...
  41dfd0:	ffff0000 ffffffff ffffffff ffffffff     ................
  41dfe0:	ffffffff ffffffff ffffffff ffffffff     ................
  41dff0:	ffffffff ffffffff ffffffff ffffffff     ................
  41e000:	0000ffff 00000000 00000000 00000000     ................
  41e010:	00000000 ffffffff ffffffff ffffffff     ................
  41e020:	ffffffff ffffffff ffffffff ffffffff     ................
  41e030:	ffffffff ffffffff ffffffff ffffffff     ................
  41e040:	ffffffff ffffffff ffffffff ffffffff     ................
  41e050:	ffffffff ffffffff ffffffff ffffffff     ................
  41e060:	ffffffff ffffffff ffffffff ffffffff     ................
  41e070:	ffffffff ffffffff ffffffff ffffffff     ................
  41e080:	ffffffff ffffffff ffffffff ffffffff     ................
  41e090:	ffffffff ffffffff ffffffff ffffffff     ................
  41e0a0:	ffffffff ffffffff ffffffff ffffffff     ................
  41e0b0:	ffffffff ffffffff ffffffff ffffffff     ................
  41e0c0:	ffffffff ffffffff ffffffff 0000ffff     ................
	...
  41e0e0:	ffffffff ffffffff ffffffff ffffffff     ................
  41e0f0:	ffffffff ffffffff ffffffff ffffffff     ................
  41e100:	ffffffff ffffffff ffffffff ffffffff     ................
	...
  41e120:	ffff0000 ffffffff ffffffff ffffffff     ................
  41e130:	ffffffff ffffffff ffffffff ffffffff     ................
  41e140:	ffffffff ffffffff ffffffff ffffffff     ................
  41e150:	ffffffff ffffffff ffffffff ffffffff     ................
  41e160:	ffffffff ffffffff ffffffff ffffffff     ................
  41e170:	ffffffff ffffffff ffffffff ffffffff     ................
  41e180:	ffffffff ffffffff ffffffff ffffffff     ................
  41e190:	ffffffff ffffffff ffffffff ffffffff     ................
  41e1a0:	ffffffff ffffffff ffffffff ffffffff     ................
  41e1b0:	ffffffff ffffffff ffffffff ffffffff     ................
  41e1c0:	ffffffff ffffffff ffffffff ffffffff     ................
  41e1d0:	ffffffff ffffffff ffffffff 00ffffff     ................
	...
  41e1ec:	ffff0000 ffffffff ffffffff ffffffff     ................
  41e1fc:	ffffffff ffffffff ffffffff ffffffff     ................
  41e20c:	ffffffff ffffffff ffffffff ffffffff     ................
  41e21c:	0000ffff 00000000 00000000 00000000     ................
  41e22c:	ffffff00 ffffffff ffffffff ffffffff     ................
  41e23c:	ffffffff ffffffff ffffffff ffffffff     ................
  41e24c:	ffffffff ffffffff ffffffff ffffffff     ................
  41e25c:	ffffffff ffffffff ffffffff ffffffff     ................
  41e26c:	ffffffff ffffffff ffffffff ffffffff     ................
  41e27c:	ffffffff ffffffff ffffffff ffffffff     ................
  41e28c:	ffffffff ffffffff ffffffff ffffffff     ................
  41e29c:	ffffffff ffffffff ffffffff ffffffff     ................
  41e2ac:	ffffffff ffffffff ffffffff ffffffff     ................
  41e2bc:	ffffffff ffffffff ffffffff ffffffff     ................
  41e2cc:	ffffffff ffffffff ffffffff ffffffff     ................
  41e2dc:	ffffffff ffffffff ffffffff ffffffff     ................
  41e2ec:	000000ff 00000000 00000000 00000000     ................
  41e2fc:	ffffffff ffffffff ffffffff ffffffff     ................
  41e30c:	ffffffff ffffffff ffffffff ffffffff     ................
  41e31c:	ffffffff ffffffff ffffffff ffffffff     ................
	...
  41e338:	ff000000 ffffffff ffffffff ffffffff     ................
  41e348:	ffffffff ffffffff ffffffff ffffffff     ................
  41e358:	ffffffff ffffffff ffffffff ffffffff     ................
  41e368:	ffffffff ffffffff ffffffff ffffffff     ................
  41e378:	ffffffff ffffffff ffffffff ffffffff     ................
  41e388:	ffffffff ffffffff ffffffff ffffffff     ................
  41e398:	ffffffff ffffffff ffffffff ffffffff     ................
  41e3a8:	ffffffff ffffffff ffffffff ffffffff     ................
  41e3b8:	ffffffff ffffffff ffffffff ffffffff     ................
  41e3c8:	ffffffff ffffffff ffffffff ffffffff     ................
  41e3d8:	ffffffff ffffffff ffffffff ffffffff     ................
  41e3e8:	ffffffff ffffffff ffffffff ffffffff     ................
  41e3f8:	00ffffff 00000000 00000000 00000000     ................
  41e408:	00000000 ffffff00 ffffffff ffffffff     ................
  41e418:	ffffffff ffffffff ffffffff ffffffff     ................
  41e428:	ffffffff ffffffff ffffffff 00ffffff     ................
	...
  41e448:	ffffff00 ffffffff ffffffff ffffffff     ................
  41e458:	ffffffff ffffffff ffffffff ffffffff     ................
  41e468:	ffffffff ffffffff ffffffff ffffffff     ................
  41e478:	ffffffff ffffffff ffffffff ffffffff     ................
  41e488:	ffffffff ffffffff ffffffff ffffffff     ................
  41e498:	ffffffff ffffffff ffffffff ffffffff     ................
  41e4a8:	ffffffff ffffffff ffffffff ffffffff     ................
  41e4b8:	ffffffff ffffffff ffffffff ffffffff     ................
  41e4c8:	ffffffff ffffffff ffffffff ffffffff     ................
  41e4d8:	ffffffff ffffffff ffffffff ffffffff     ................
  41e4e8:	ffffffff ffffffff ffffffff ffffffff     ................
  41e4f8:	ffffffff ffffffff ffffffff ffffffff     ................
  41e508:	000000ff 00000000 00000000 00000000     ................
  41e518:	ff000000 ffffffff ffffffff ffffffff     ................
  41e528:	ffffffff ffffffff ffffffff ffffffff     ................
  41e538:	ffffffff ffffffff ffffffff 000000ff     ................
	...
  41e554:	ff000000 ffffffff ffffffff ffffffff     ................
  41e564:	ffffffff ffffffff ffffffff ffffffff     ................
  41e574:	ffffffff ffffffff ffffffff ffffffff     ................
  41e584:	ffffffff ffffffff ffffffff ffffffff     ................
  41e594:	ffffffff ffffffff ffffffff ffffffff     ................
  41e5a4:	ffffffff ffffffff ffffffff ffffffff     ................
  41e5b4:	ffffffff ffffffff ffffffff ffffffff     ................
  41e5c4:	ffffffff ffffffff ffffffff ffffffff     ................
  41e5d4:	ffffffff ffffffff ffffffff ffffffff     ................
  41e5e4:	ffffffff ffffffff ffffffff ffffffff     ................
  41e5f4:	ffffffff ffffffff ffffffff ffffffff     ................
  41e604:	ffffffff ffffffff ffffffff ffffffff     ................
  41e614:	ffffffff 0000ffff 00000000 00000000     ................
  41e624:	00000000 ffffff00 ffffffff ffffffff     ................
  41e634:	ffffffff ffffffff ffffffff ffffffff     ................
  41e644:	ffffffff ffffffff ffffffff 00ffffff     ................
	...
  41e660:	ffff0000 ffffffff ffffffff ffffffff     ................
  41e670:	ffffffff ffffffff ffffffff ffffffff     ................
  41e680:	ffffffff ffffffff ffffffff ffffffff     ................
  41e690:	ffffffff ffffffff ffffffff ffffffff     ................
  41e6a0:	ffffffff ffffffff ffffffff ffffffff     ................
  41e6b0:	ffffffff ffffffff ffffffff ffffffff     ................
  41e6c0:	ffffffff ffffffff ffffffff ffffffff     ................
  41e6d0:	ffffffff ffffffff ffffffff ffffffff     ................
  41e6e0:	ffffffff ffffffff ffffffff ffffffff     ................
  41e6f0:	ffffffff ffffffff ffffffff ffffffff     ................
  41e700:	ffffffff ffffffff ffffffff ffffffff     ................
  41e710:	ffffffff ffffffff ffffffff ffffffff     ................
  41e720:	ffffffff ffffffff 00000000 00000000     ................
  41e730:	00000000 ff000000 ffffffff ffffffff     ................
  41e740:	ffffffff ffffffff ffffffff ffffffff     ................
  41e750:	ffffffff ffffffff ffffffff ffffffff     ................
  41e760:	000000ff 00000000 00000000 00000000     ................
  41e770:	ffffffff ffffffff ffffffff ffffffff     ................
  41e780:	ffffffff ffffffff ffffffff ffffffff     ................
  41e790:	ffffffff ffffffff ffffffff ffffffff     ................
  41e7a0:	ffffffff ffffffff ffffffff ffffffff     ................
  41e7b0:	ffffffff ffffffff ffffffff ffffffff     ................
  41e7c0:	ffffffff ffffffff ffffffff ffffffff     ................
  41e7d0:	ffffffff ffffffff ffffffff ffffffff     ................
  41e7e0:	ffffffff ffffffff ffffffff ffffffff     ................
  41e7f0:	ffffffff ffffffff ffffffff ffffffff     ................
  41e800:	ffffffff ffffffff ffffffff ffffffff     ................
  41e810:	ffffffff ffffffff ffffffff ffffffff     ................
  41e820:	ffffffff ffffffff ffffffff ffffffff     ................
  41e830:	ffffffff 0000ffff 00000000 00000000     ................
	...
  41e848:	ffffffff ffffffff ffffffff ffffffff     ................
  41e858:	ffffffff ffffffff ffffffff ffffffff     ................
  41e868:	ffffffff 00000000 00000000 00000000     ................
  41e878:	00000000 ffff0000 ffffffff ffffffff     ................
  41e888:	ffffffff ffffffff ffffffff ffffffff     ................
  41e898:	ffffffff ffffffff ffffffff ffffffff     ................
  41e8a8:	ffffffff ffffffff ffffffff ffffffff     ................
  41e8b8:	ffffffff ffffffff ffffffff ffffffff     ................
  41e8c8:	ffffffff ffffffff ffffffff ffffffff     ................
  41e8d8:	ffffffff ffffffff ffffffff ffffffff     ................
  41e8e8:	ffffffff ffffffff ffffffff ffffffff     ................
  41e8f8:	ffffffff ffffffff ffffffff ffffffff     ................
  41e908:	ffffffff ffffffff ffffffff ffffffff     ................
  41e918:	ffffffff ffffffff ffffffff ffffffff     ................
  41e928:	ffffffff ffffffff ffffffff ffffffff     ................
  41e938:	ffffffff ffffffff ffffffff 00000000     ................
	...
  41e954:	ffff0000 ffffffff ffffffff ffffffff     ................
  41e964:	ffffffff ffffffff ffffffff ffffffff     ................
  41e974:	ffffffff 0000ffff 00000000 00000000     ................
	...
  41e98c:	ffffffff ffffffff ffffffff ffffffff     ................
  41e99c:	ffffffff ffffffff ffffffff ffffffff     ................
  41e9ac:	ffffffff ffffffff ffffffff ffffffff     ................
  41e9bc:	ffffffff ffffffff ffffffff ffffffff     ................
  41e9cc:	ffffffff ffffffff ffffffff ffffffff     ................
  41e9dc:	ffffffff ffffffff ffffffff ffffffff     ................
  41e9ec:	ffffffff ffffffff ffffffff ffffffff     ................
  41e9fc:	ffffffff ffffffff ffffffff ffffffff     ................
  41ea0c:	ffffffff ffffffff ffffffff ffffffff     ................
  41ea1c:	ffffffff ffffffff ffffffff ffffffff     ................
  41ea2c:	ffffffff ffffffff ffffffff ffffffff     ................
  41ea3c:	ffffffff ffffffff ffffffff ffffffff     ................
  41ea4c:	ffffffff ffffffff 000000ff 00000000     ................
	...
  41ea64:	ffffffff ffffffff ffffffff ffffffff     ................
  41ea74:	ffffffff ffffffff ffffffff ffffffff     ................
  41ea84:	ffffffff 00000000 00000000 00000000     ................
  41ea94:	ff000000 ffffffff ffffffff ffffffff     ................
  41eaa4:	ffffffff ffffffff ffffffff ffffffff     ................
  41eab4:	ffffffff ffffffff ffffffff ffffffff     ................
  41eac4:	ffffffff ffffffff ffffffff ffffffff     ................
  41ead4:	ffffffff ffffffff ffffffff ffffffff     ................
  41eae4:	ffffffff ffffffff ffffffff ffffffff     ................
  41eaf4:	ffffffff ffffffff ffffffff ffffffff     ................
  41eb04:	ffffffff ffffffff ffffffff ffffffff     ................
  41eb14:	ffffffff ffffffff ffffffff ffffffff     ................
  41eb24:	ffffffff ffffffff ffffffff ffffffff     ................
  41eb34:	ffffffff ffffffff ffffffff ffffffff     ................
  41eb44:	ffffffff ffffffff ffffffff ffffffff     ................
  41eb54:	ffffffff ffffffff ffffffff 00ffffff     ................
	...
  41eb70:	ffff0000 ffffffff ffffffff ffffffff     ................
  41eb80:	ffffffff ffffffff ffffffff ffffffff     ................
  41eb90:	ffffffff 0000ffff 00000000 00000000     ................
  41eba0:	00000000 ffffff00 ffffffff ffffffff     ................
  41ebb0:	ffffffff ffffffff ffffffff ffffffff     ................
  41ebc0:	ffffffff ffffffff ffffffff ffffffff     ................
  41ebd0:	ffffffff ffffffff ffffffff ffffffff     ................
  41ebe0:	ffffffff ffffffff ffffffff ffffffff     ................
  41ebf0:	ffffffff ffffffff ffffffff ffffffff     ................
  41ec00:	ffffffff ffffffff ffffffff ffffffff     ................
  41ec10:	ffffffff ffffffff ffffffff ffffffff     ................
  41ec20:	ffffffff ffffffff ffffffff ffffffff     ................
  41ec30:	ffffffff ffffffff ffffffff ffffffff     ................
  41ec40:	ffffffff ffffffff ffffffff ffffffff     ................
  41ec50:	ffffffff ffffffff ffffffff ffffffff     ................
  41ec60:	ffffffff ffffffff ffffffff ffffffff     ................
  41ec70:	000000ff 00000000 00000000 00000000     ................
  41ec80:	ff000000 ffffffff ffffffff ffffffff     ................
  41ec90:	ffffffff ffffffff ffffffff ffffffff     ................
  41eca0:	000000ff 00000000 00000000 00000000     ................
  41ecb0:	ff000000 ffffffff ffffffff ffffffff     ................
  41ecc0:	ffffffff ffffffff ffffffff ffffffff     ................
  41ecd0:	ffffffff ffffffff ffffffff ffffffff     ................
  41ece0:	ffffffff ffffffff ffffffff ffffffff     ................
  41ecf0:	ffffffff ffffffff ffffffff ffffffff     ................
  41ed00:	ffffffff ffffffff ffffffff ffffffff     ................
  41ed10:	ffffffff ffffffff ffffffff ffffffff     ................
  41ed20:	ffffffff ffffffff ffffffff ffffffff     ................
  41ed30:	ffffffff ffffffff ffffffff ffffffff     ................
  41ed40:	ffffffff ffffffff ffffffff ffffffff     ................
  41ed50:	ffffffff ffffffff ffffffff ffffffff     ................
  41ed60:	ffffffff ffffffff ffffffff ffffffff     ................
  41ed70:	ffffffff ffffffff ffffffff 00ffffff     ................
	...
  41ed90:	ffffff00 ffffffff ffffffff ffffffff     ................
  41eda0:	ffffffff ffffffff ffffffff 00ffffff     ................
	...
  41edc0:	ffffff00 ffffffff ffffffff ffffffff     ................
  41edd0:	ffffffff ffffffff ffffffff ffffffff     ................
  41ede0:	ffffffff ffffffff ffffffff ffffffff     ................
  41edf0:	ffffffff ffffffff ffffffff ffffffff     ................
  41ee00:	ffffffff ffffffff ffffffff ffffffff     ................
  41ee10:	ffffffff ffffffff ffffffff ffffffff     ................
  41ee20:	ffffffff ffffffff ffffffff ffffffff     ................
  41ee30:	ffffffff ffffffff ffffffff ffffffff     ................
  41ee40:	ffffffff ffffffff ffffffff ffffffff     ................
  41ee50:	ffffffff ffffffff ffffffff ffffffff     ................
  41ee60:	ffffffff ffffffff ffffffff ffffffff     ................
  41ee70:	ffffffff ffffffff ffffffff ffffffff     ................
  41ee80:	ffffffff ffffffff ffffffff ffffffff     ................
	...
  41ee9c:	ff000000 ffffffff ffffffff ffffffff     ................
  41eeac:	ffffffff ffffffff ffffffff ffffffff     ................
  41eebc:	000000ff 00000000 00000000 00000000     ................
  41eecc:	ffffffff ffffffff ffffffff ffffffff     ................
  41eedc:	ffffffff ffffffff ffffffff ffffffff     ................
  41eeec:	ffffffff ffffffff ffffffff ffffffff     ................
  41eefc:	ffffffff ffffffff ffffffff ffffffff     ................
  41ef0c:	ffffffff ffffffff ffffffff ffffffff     ................
  41ef1c:	ffffffff ffffffff ffffffff ffffffff     ................
  41ef2c:	ffffffff ffffffff ffffffff ffffffff     ................
  41ef3c:	ffffffff ffffffff ffffffff ffffffff     ................
  41ef4c:	ffffffff ffffffff ffffffff ffffffff     ................
  41ef5c:	ffffffff ffffffff ffffffff ffffffff     ................
  41ef6c:	ffffffff ffffffff ffffffff ffffffff     ................
  41ef7c:	ffffffff ffffffff ffffffff ffffffff     ................
  41ef8c:	ffffffff ffffffff ffffffff ffffffff     ................
  41ef9c:	0000ffff 00000000 00000000 00000000     ................
  41efac:	ffffff00 ffffffff ffffffff ffffffff     ................
  41efbc:	ffffffff ffffffff ffffffff 00ffffff     ................
	...
  41efd8:	ffff0000 ffffffff ffffffff ffffffff     ................
  41efe8:	ffffffff ffffffff ffffffff ffffffff     ................
  41eff8:	ffffffff ffffffff ffffffff ffffffff     ................
  41f008:	ffffffff ffffffff ffffffff ffffffff     ................
  41f018:	ffffffff ffffffff ffffffff ffffffff     ................
  41f028:	ffffffff ffffffff ffffffff ffffffff     ................
  41f038:	ffffffff ffffffff ffffffff ffffffff     ................
  41f048:	ffffffff ffffffff ffffffff ffffffff     ................
  41f058:	ffffffff ffffffff ffffffff ffffffff     ................
  41f068:	ffffffff ffffffff ffffffff ffffffff     ................
  41f078:	ffffffff ffffffff ffffffff ffffffff     ................
  41f088:	ffffffff ffffffff ffffffff ffffffff     ................
  41f098:	ffffffff ffffffff ffffffff ffffffff     ................
  41f0a8:	ffffffff 00000000 00000000 00000000     ................
  41f0b8:	00000000 ffff0000 ffffffff ffffffff     ................
  41f0c8:	ffffffff ffffffff ffffffff 0000ffff     ................
	...
  41f0e8:	ffffffff ffffffff ffffffff ffffffff     ................
  41f0f8:	ffffffff ffffffff ffffffff ffffffff     ................
  41f108:	ffffffff ffffffff ffffffff ffffffff     ................
  41f118:	ffffffff ffffffff ffffffff ffffffff     ................
  41f128:	ffffffff ffffffff ffffffff ffffffff     ................
  41f138:	ffffffff ffffffff ffffffff ffffffff     ................
  41f148:	ffffffff ffffffff ffffffff ffffffff     ................
  41f158:	ffffffff ffffffff ffffffff ffffffff     ................
  41f168:	ffffffff ffffffff ffffffff ffffffff     ................
  41f178:	ffffffff ffffffff ffffffff ffffffff     ................
  41f188:	ffffffff ffffffff ffffffff ffffffff     ................
  41f198:	ffffffff ffffffff ffffffff ffffffff     ................
  41f1a8:	ffffffff ffffffff ffffffff ffffffff     ................
  41f1b8:	0000ffff 00000000 00000000 00000000     ................
  41f1c8:	00000000 ffffffff ffffffff ffffffff     ................
  41f1d8:	ffffffff ffffffff ffffffff 00000000     ................
	...
  41f1f4:	ffff0000 ffffffff ffffffff ffffffff     ................
  41f204:	ffffffff ffffffff ffffffff ffffffff     ................
  41f214:	ffffffff ffffffff ffffffff ffffffff     ................
  41f224:	ffffffff ffffffff ffffffff ffffffff     ................
  41f234:	ffffffff ffffffff ffffffff ffffffff     ................
  41f244:	ffffffff ffffffff ffffffff ffffffff     ................
  41f254:	ffffffff ffffffff ffffffff ffffffff     ................
  41f264:	ffffffff ffffffff ffffffff ffffffff     ................
  41f274:	ffffffff ffffffff ffffffff ffffffff     ................
  41f284:	ffffffff ffffffff ffffffff ffffffff     ................
  41f294:	ffffffff ffffffff ffffffff ffffffff     ................
  41f2a4:	ffffffff ffffffff ffffffff ffffffff     ................
  41f2b4:	ffffffff ffffffff ffffffff ffffffff     ................
  41f2c4:	ffffffff 00ffffff 00000000 00000000     ................
  41f2d4:	00000000 ffff0000 ffffffff ffffffff     ................
  41f2e4:	ffffffff ffffffff ffffffff 0000ffff     ................
	...
  41f300:	ffffff00 ffffffff ffffffff ffffffff     ................
  41f310:	ffffffff ffffffff ffffffff ffffffff     ................
  41f320:	ffffffff ffffffff ffffffff ffffffff     ................
  41f330:	ffffffff ffffffff ffffffff ffffffff     ................
  41f340:	ffffffff ffffffff ffffffff ffffffff     ................
  41f350:	ffffffff ffffffff ffffffff ffffffff     ................
  41f360:	ffffffff ffffffff ffffffff ffffffff     ................
  41f370:	ffffffff ffffffff ffffffff ffffffff     ................
  41f380:	ffffffff ffffffff ffffffff ffffffff     ................
  41f390:	ffffffff ffffffff ffffffff ffffffff     ................
  41f3a0:	ffffffff ffffffff ffffffff ffffffff     ................
  41f3b0:	ffffffff ffffffff ffffffff ffffffff     ................
  41f3c0:	ffffffff ffffffff ffffffff ffffffff     ................
  41f3d0:	ffffffff ffffffff 000000ff 00000000     ................
	...
  41f3e8:	ffffffff ffffffff ffffffff ffffffff     ................
  41f3f8:	ffffffff ffffffff 00000000 00000000     ................
	...
  41f4f8:	ffffff00 ffffffff ffffffff ffffffff     ................
  41f508:	00ffffff 00000000 00000000 00000000     ................
	...
  41f604:	ff000000 ffffffff ffffffff ffffffff     ................
  41f614:	ffffffff 000000ff 00000000 00000000     ................
	...
  41f714:	ffffff00 ffffffff ffffffff ffffffff     ................
  41f724:	00ffffff 00000000 00000000 00000000     ................
	...
  41f820:	ff000000 ffffffff ffffffff ffffffff     ................
  41f830:	ffffffff 000000ff 00000000 00000000     ................
	...
  41f934:	ffffffff ffffffff ffffffff 00ffffff     ................
	...
  41fa3c:	ff000000 ffffffff ffffffff              ............

0041fa48 <image_data_rinse>:
  41fa48:	ffffffff ffffffff ffffffff ffffffff     ................
  41fa58:	ffffffff ffffffff ffffffff ffffffff     ................
  41fa68:	ffffffff ffffffff ffffffff ffffffff     ................
  41fa78:	ffffffff ffffffff ffffffff ffffffff     ................
  41fa88:	ffffffff ffffffff ffffffff ffffffff     ................
  41fa98:	ffffffff ffffffff ffffffff ffffffff     ................
  41faa8:	ffffffff ffffffff ffffffff ffffffff     ................
  41fab8:	ffffffff ffffffff ffffffff ffffffff     ................
  41fac8:	ffffffff ffffffff ffffffff ffffffff     ................
  41fad8:	ffffffff ffffffff ffffffff ffffffff     ................
  41fae8:	ffffffff ffffffff ffffffff ffffffff     ................
  41faf8:	ffffffff ffffffff ffffffff ffffffff     ................
  41fb08:	ffffffff ffffffff ffffffff ffffffff     ................
  41fb18:	ffffffff ffffffff ffffffff ffffffff     ................
  41fb28:	ffffffff ffffffff ffffffff ffffffff     ................
  41fb38:	ffffffff ffffffff ffffffff ffffffff     ................
  41fb48:	ffffffff ffffffff ffffffff ffffffff     ................
  41fb58:	ffffffff ffffffff ffffffff ffffffff     ................
  41fb68:	ffffffff ffffffff ffffffff ffffffff     ................
  41fb78:	ffffffff ffffffff ffffffff ffffffff     ................
  41fb88:	ffffffff ffffffff ffffffff ffffffff     ................
  41fb98:	ffffffff ffffffff ffffffff ffffffff     ................
  41fba8:	ffffffff ffffffff ffffffff ffffffff     ................
  41fbb8:	ffffffff ffffffff ffffffff ffffffff     ................
  41fbc8:	ffffffff ffffffff ffffffff ffffffff     ................
  41fbd8:	ffffffff ffffffff ffffffff ffffffff     ................
  41fbe8:	ffffffff ffffffff ffffffff ffffffff     ................
  41fbf8:	ffffffff ffffffff ffffffff ffffffff     ................
  41fc08:	ffffffff ffffffff ffffffff ffffffff     ................
  41fc18:	ffffffff ffffffff ffffffff ffffffff     ................
  41fc28:	ffffffff ffffffff ffffffff ffffffff     ................
  41fc38:	ffffffff ffffffff ffffffff ffffffff     ................
  41fc48:	ffffffff ffffffff ffffffff ffffffff     ................
  41fc58:	ffffffff ffffffff ffffffff ffffffff     ................
  41fc68:	ffffffff ffffffff ffffffff ffffffff     ................
  41fc78:	ffffffff ffffffff ffffffff ffffffff     ................
  41fc88:	ffffffff ffffffff ffffffff ffffffff     ................
  41fc98:	ffffffff ffffffff ffffffff ffffffff     ................
  41fca8:	ffffffff ffffffff ffffffff ffffffff     ................
  41fcb8:	ffffffff ffffffff ffffffff ffffffff     ................
  41fcc8:	ffffffff ffffffff ffffffff ffffffff     ................
  41fcd8:	ffffffff ffffffff ffffffff ffffffff     ................
  41fce8:	ffffffff ffffffff ffffffff ffffffff     ................
  41fcf8:	ffffffff ffffffff ffffffff ffffffff     ................
  41fd08:	ffffffff ffffffff ffffffff ffffffff     ................
  41fd18:	ffffffff ffffffff ffffffff ffffffff     ................
  41fd28:	ffffffff ffffffff ffffffff ffffffff     ................
  41fd38:	ffffffff ffffffff ffffffff ffffffff     ................
  41fd48:	ffffffff ffffffff ffffffff ffffffff     ................
  41fd58:	ffffffff ffffffff ffffffff ffffffff     ................
  41fd68:	ffffffff ffffffff ffffffff ffffffff     ................
  41fd78:	ffffffff ffffffff ffffffff ffffffff     ................
  41fd88:	ffffffff ffffffff ffffffff ffffffff     ................
  41fd98:	ffffffff ffffffff ffffffff ffffffff     ................
  41fda8:	ffffffff ffffffff ffffffff ffffffff     ................
  41fdb8:	ffffffff ffffffff ffffffff ffffffff     ................
  41fdc8:	ffffffff ffffffff ffffffff ffffffff     ................
  41fdd8:	ffffffff ffffffff ffffffff ffffffff     ................
  41fde8:	ffffffff ffffffff ffffffff ffffffff     ................
  41fdf8:	ffffffff ffffffff ffffffff ffffffff     ................
  41fe08:	ffffffff ffffffff ffffffff ffffffff     ................
  41fe18:	ffffffff ffffffff ffffffff ffffffff     ................
  41fe28:	ffffffff ffffffff ffffffff ffffffff     ................
  41fe38:	ffffffff ffffffff ffffffff ffffffff     ................
  41fe48:	ffffffff ffffffff ffffffff ffffffff     ................
  41fe58:	ffffffff ffffffff ffffffff ffffffff     ................
  41fe68:	ffffffff ffffffff ffffffff ffffffff     ................
  41fe78:	ffffffff ffffffff ffffffff ffffffff     ................
  41fe88:	ffffffff ffffffff ffffffff ffffffff     ................
  41fe98:	ffffffff ffffffff ffffffff ffffffff     ................
  41fea8:	ffffffff ffffffff ffffffff ffffffff     ................
  41feb8:	ffffffff ffffffff ffffffff ffffffff     ................
  41fec8:	ffffffff ffffffff ffffffff ffffffff     ................
  41fed8:	ffffffff ffffffff ffffffff ffffffff     ................
  41fee8:	ffffffff ffffffff ffffffff ffffffff     ................
  41fef8:	ffffffff ffffffff ffffffff ffffffff     ................
  41ff08:	ffffffff ffffffff ffffffff ffffffff     ................
  41ff18:	ffffffff ffffffff ffffffff ffffffff     ................
  41ff28:	ffffffff ffffffff ffffffff ffffffff     ................
  41ff38:	ffffffff ffffffff ffffffff ffffffff     ................
  41ff48:	ffffffff ffffffff ffffffff ffffffff     ................
  41ff58:	ffffffff ffffffff ffffffff ffffffff     ................
  41ff68:	ffffffff ffffffff ffffffff ffffffff     ................
  41ff78:	ffffffff ffffffff ffffffff ffffffff     ................
  41ff88:	ffffffff ffffffff ffffffff ffffffff     ................
  41ff98:	ffffffff ffffffff ffffffff ffffffff     ................
  41ffa8:	ffffffff ffffffff ffffffff ffffffff     ................
  41ffb8:	ffffffff ffffffff ffffffff ffffffff     ................
  41ffc8:	ffffffff ffffffff ffffffff ffffffff     ................
  41ffd8:	ffffffff ffffffff ffffffff ffffffff     ................
  41ffe8:	ffffffff ffffffff ffffffff ffffffff     ................
  41fff8:	ffffffff ffffffff ffffffff ffffffff     ................
  420008:	ffffffff ffffffff ffffffff ffffffff     ................
  420018:	ffffffff ffffffff ffffffff ffffffff     ................
  420028:	ffffffff ffffffff ffffffff ffffffff     ................
  420038:	ffffffff ffffffff ffffffff ffffffff     ................
  420048:	ffffffff ffffffff ffffffff ffffffff     ................
  420058:	ffffffff ffffffff ffffffff ffffffff     ................
  420068:	ffffffff ffffffff ffffffff ffffffff     ................
  420078:	ffffffff ffffffff ffffffff ffffffff     ................
  420088:	ffffffff ffffffff ffffffff ffffffff     ................
  420098:	ffffffff ffffffff ffffffff ffffffff     ................
  4200a8:	ffffffff ffffffff ffffffff ffffffff     ................
  4200b8:	ffffffff ffffffff ffffffff ffffffff     ................
  4200c8:	ffffffff ffffffff ffffffff ffffffff     ................
  4200d8:	ffffffff ffffffff ffffffff ffffffff     ................
  4200e8:	ffffffff ffffffff ffffffff ffffffff     ................
  4200f8:	ffffffff ffffffff ffffffff ffffffff     ................
  420108:	ffffffff ffffffff ffffffff ffffffff     ................
  420118:	ffffffff ffffffff ffffffff ffffffff     ................
  420128:	ffffffff ffffffff ffffffff ffffffff     ................
  420138:	ffffffff ffffffff ffffffff ffffffff     ................
  420148:	ffffffff ffffffff ffffffff ffffffff     ................
  420158:	ffffffff ffffffff ffffffff ffffffff     ................
  420168:	ffffffff ffffffff ffffffff ffffffff     ................
  420178:	ffffffff ffffffff ffffffff ffffffff     ................
  420188:	ffffffff ffffffff ffffffff ffffffff     ................
  420198:	ffffffff ffffffff ffffffff ffffffff     ................
  4201a8:	ffffffff ffffffff ffffffff ffffffff     ................
  4201b8:	ffffffff ffffffff 0000ffff 00000000     ................
	...
  420218:	ffffff00 ffffffff ffffffff ffffffff     ................
  420228:	ffffffff ffffffff ffffffff ffffffff     ................
  420238:	ffffffff ffffffff ffffffff ffffffff     ................
  420248:	ffffffff 00ffffff 00000000 00000000     ................
	...
  4202a0:	ff000000 ffffffff ffffffff ffffffff     ................
  4202b0:	ffffffff ffffffff ffffffff ffffffff     ................
  4202c0:	ffffffff ffffffff ffffffff 000000ff     ................
	...
  420328:	ffff0000 ffffffff ffffffff ffffffff     ................
  420338:	ffffffff ffffffff ffffffff ffffffff     ................
  420348:	ffffffff ffffffff ffffffff ffffffff     ................
  420358:	ffffffff 000000ff 00000000 00000000     ................
	...
  4203b0:	ffffff00 ffffffff ffffffff ffffffff     ................
  4203c0:	ffffffff ffffffff ffffffff ffffffff     ................
  4203d0:	ffffffff ffffffff 00ffffff 00000000     ................
	...
  420438:	ffffffff ffffffff ffffffff ffffffff     ................
  420448:	ffffffff ffffffff ffffffff ffffffff     ................
  420458:	ffffffff ffffffff ffffffff ffffffff     ................
  420468:	00ffffff 00000000 00000000 00000000     ................
	...
  4204bc:	ff000000 ffffffff ffffffff ffffffff     ................
  4204cc:	ffffffff ffffffff ffffffff ffffffff     ................
  4204dc:	ffffffff ffffffff ffffffff 000000ff     ................
	...
  420544:	ffff0000 ffffffff ffffffff ffffffff     ................
  420554:	ffffffff ffffffff ffffffff ffffffff     ................
  420564:	ffffffff ffffffff ffffffff ffffffff     ................
  420574:	0000ffff 00000000 00000000 00000000     ................
	...
  4205d0:	ffffffff ffffffff ffffffff ffffffff     ................
  4205e0:	ffffffff ffffffff ffffffff ffffffff     ................
  4205f0:	ffffffff 00ffffff 00000000 00000000     ................
  420600:	ffffffff ffffffff ffffffff ffffffff     ................
  420610:	ffffffff ffffffff ffffffff ffffffff     ................
  420620:	ffffffff ffffffff ffffffff ffffffff     ................
  420630:	ffffffff ffffffff ffffffff ffffffff     ................
  420640:	ffffffff ffffffff 00ffffff 00000000     ................
  420650:	00000000 ffffffff ffffffff ffffffff     ................
  420660:	ffffffff ffffffff ffffffff ffffffff     ................
  420670:	ffffffff ffffffff ffffffff ffffffff     ................
  420680:	ffffffff 00000000 00000000 00000000     ................
  420690:	ffffffff ffffffff ffffffff ffffffff     ................
  4206a0:	ffffffff ffffffff ffffffff ffffffff     ................
  4206b0:	ffffffff ffffffff ffffffff ffffffff     ................
  4206c0:	ffffffff ffffffff ffffffff ffffffff     ................
  4206d0:	ffffffff 000000ff 00000000 ffff0000     ................
  4206e0:	ffffffff ffffffff ffffffff ffffffff     ................
  4206f0:	ffffffff ffffffff ffffffff ffffffff     ................
  420700:	ffffffff 000000ff 00000000 ffff0000     ................
  420710:	ffffffff ffffffff ffffffff ffffffff     ................
  420720:	ffffffff ffffffff ffffffff ffffffff     ................
  420730:	ffffffff ffffffff ffffffff ffffffff     ................
  420740:	ffffffff ffffffff ffffffff ffffffff     ................
  420750:	ffffffff ffffffff 000000ff 00000000     ................
  420760:	00000000 ffffff00 ffffffff ffffffff     ................
  420770:	ffffffff ffffffff ffffffff ffffffff     ................
  420780:	ffffffff ffffffff ffffffff ffffffff     ................
  420790:	0000ffff 00000000 ff000000 ffffffff     ................
  4207a0:	ffffffff ffffffff ffffffff ffffffff     ................
  4207b0:	ffffffff ffffffff ffffffff ffffffff     ................
  4207c0:	ffffffff ffffffff ffffffff ffffffff     ................
  4207d0:	ffffffff ffffffff ffffffff ffffffff     ................
  4207e0:	00ffffff 00000000 00000000 ffffffff     ................
  4207f0:	ffffffff ffffffff ffffffff ffffffff     ................
  420800:	ffffffff ffffffff ffffffff ffffffff     ................
	...
  42081c:	ffffffff ffffffff ffffffff ffffffff     ................
  42082c:	ffffffff ffffffff ffffffff ffffffff     ................
  42083c:	ffffffff ffffffff ffffffff ffffffff     ................
  42084c:	ffffffff ffffffff ffffffff ffffffff     ................
  42085c:	ffffffff ffffffff 00ffffff 00000000     ................
  42086c:	00000000 ff000000 ffffffff ffffffff     ................
  42087c:	ffffffff ffffffff ffffffff ffffffff     ................
  42088c:	ffffffff ffffffff ffffffff ffffffff     ................
  42089c:	000000ff 00000000 00000000 ffffff00     ................
  4208ac:	ffffffff ffffffff ffffffff ffffffff     ................
  4208bc:	ffffffff ffffffff ffffffff ffffffff     ................
  4208cc:	ffffffff ffffffff ffffffff ffffffff     ................
  4208dc:	ffffffff ffffffff ffffffff ffffffff     ................
  4208ec:	ffffffff 000000ff 00000000 ffff0000     ................
  4208fc:	ffffffff ffffffff ffffffff ffffffff     ................
  42090c:	ffffffff ffffffff ffffffff ffffffff     ................
  42091c:	0000ffff 00000000 00000000 ffff0000     ................
  42092c:	ffffffff ffffffff ffffffff ffffffff     ................
  42093c:	ffffffff ffffffff ffffffff ffffffff     ................
  42094c:	ffffffff ffffffff ffffffff ffffffff     ................
  42095c:	ffffffff ffffffff ffffffff ffffffff     ................
  42096c:	ffffffff ffffffff ffffffff 00000000     ................
	...
  420984:	ffffffff ffffffff ffffffff ffffffff     ................
  420994:	ffffffff ffffffff ffffffff ffffffff     ................
  4209a4:	ffffffff 00000000 00000000 00000000     ................
  4209b4:	ffffffff ffffffff ffffffff ffffffff     ................
  4209c4:	ffffffff ffffffff ffffffff ffffffff     ................
  4209d4:	ffffffff ffffffff ffffffff ffffffff     ................
  4209e4:	ffffffff ffffffff ffffffff ffffffff     ................
  4209f4:	ffffffff ffffffff 00ffffff 00000000     ................
  420a04:	00000000 ffffffff ffffffff ffffffff     ................
  420a14:	ffffffff ffffffff ffffffff ffffffff     ................
  420a24:	ffffffff ffffffff 00000000 00000000     ................
  420a34:	ffffff00 ffffffff ffffffff ffffffff     ................
  420a44:	ffffffff ffffffff ffffffff ffffffff     ................
  420a54:	ffffffff ffffffff ffffffff ffffffff     ................
  420a64:	ffffffff ffffffff ffffffff ffffffff     ................
  420a74:	ffffffff ffffffff ffffffff ffffffff     ................
  420a84:	ffffffff 000000ff 00000000 00000000     ................
  420a94:	00000000 ffffffff ffffffff ffffffff     ................
  420aa4:	ffffffff ffffffff ffffffff 00ffffff     ................
	...
  420ac0:	ffff0000 ffffffff ffffffff ffffffff     ................
  420ad0:	ffffffff ffffffff ffffffff ffffffff     ................
  420ae0:	ffffffff ffffffff ffffffff ffffffff     ................
  420af0:	ffffffff ffffffff ffffffff ffffffff     ................
  420b00:	ffffffff ffffffff ffffffff 000000ff     ................
	...
  420b18:	ffffff00 ffffffff ffffffff ffffffff     ................
  420b28:	ffffffff ffffffff ffffffff ffffffff     ................
  420b38:	0000ffff 00000000 ff000000 ffffffff     ................
  420b48:	ffffffff ffffffff ffffffff ffffffff     ................
  420b58:	ffffffff ffffffff ffffffff ffffffff     ................
  420b68:	ffffffff ffffffff ffffffff ffffffff     ................
  420b78:	ffffffff ffffffff ffffffff ffffffff     ................
  420b88:	ffffffff ffffffff ffffffff ffffffff     ................
  420b98:	0000ffff 00000000 00000000 00000000     ................
  420ba8:	00000000 ffffffff ffffffff ffffffff     ................
	...
  420bcc:	ffffff00 ffffffff ffffffff ffffffff     ................
  420bdc:	ffffffff ffffffff ffffffff ffffffff     ................
  420bec:	ffffffff ffffffff ffffffff ffffffff     ................
  420bfc:	ffffffff ffffffff ffffffff ffffffff     ................
  420c0c:	ffffffff ffffffff ffffffff ffffffff     ................
  420c1c:	0000ffff 00000000 ff000000 ffffffff     ................
  420c2c:	ffffffff ffffffff ffffffff ffffffff     ................
  420c3c:	ffffffff ffffffff ffffffff 00000000     ................
  420c4c:	00000000 ffffff00 ffffffff ffffffff     ................
  420c5c:	ffffffff ffffffff ffffffff ffffffff     ................
  420c6c:	ffffffff ffffffff ffffffff ffffffff     ................
  420c7c:	ffffffff ffffffff ffffffff ffffffff     ................
  420c8c:	ffffffff ffffffff ffffffff ffffffff     ................
  420c9c:	ffffffff ffffffff ffffffff 00ffffff     ................
	...
  420cd8:	ffffffff ffffffff ffffffff ffffffff     ................
  420ce8:	ffffffff ffffffff ffffffff ffffffff     ................
  420cf8:	ffffffff ffffffff ffffffff ffffffff     ................
  420d08:	ffffffff ffffffff ffffffff ffffffff     ................
  420d18:	ffffffff ffffffff ffffffff ffffffff     ................
  420d28:	ffffffff 00000000 00000000 ffffff00     ................
  420d38:	ffffffff ffffffff ffffffff ffffffff     ................
  420d48:	ffffffff ffffffff ffffffff 0000ffff     ................
  420d58:	00000000 ff000000 ffffffff ffffffff     ................
  420d68:	ffffffff ffffffff ffffffff ffffffff     ................
  420d78:	ffffffff ffffffff ffffffff ffffffff     ................
  420d88:	ffffffff ffffffff ffffffff ffffffff     ................
  420d98:	ffffffff ffffffff ffffffff ffffffff     ................
  420da8:	ffffffff ffffffff ffffffff ffffffff     ................
  420db8:	ffffffff 00000000 00000000 00000000     ................
	...
  420de0:	ffffffff ffffffff ffffffff ffffffff     ................
  420df0:	ffffffff ffffffff ffffffff ffffffff     ................
  420e00:	ffffffff ffffffff ffffffff ffffffff     ................
  420e10:	ffffffff ffffffff ffffffff ffffffff     ................
  420e20:	ffffffff ffffffff ffffffff ffffffff     ................
  420e30:	ffffffff ffffffff 0000ffff 00000000     ................
  420e40:	ff000000 ffffffff ffffffff ffffffff     ................
  420e50:	ffffffff ffffffff ffffffff ffffffff     ................
  420e60:	000000ff 00000000 00000000 ffffff00     ................
  420e70:	ffffffff ffffffff ffffffff ffffffff     ................
  420e80:	ffffffff ffffffff ffffffff ffffffff     ................
  420e90:	ffffffff ffffffff ffffffff ffffffff     ................
  420ea0:	ffffffff ffffffff ffffffff ffffffff     ................
  420eb0:	ffffffff ffffffff ffffffff ffffffff     ................
  420ec0:	ffffffff ffffffff ffffffff ffffffff     ................
	...
  420ee8:	ffffffff ffffffff ffffffff ffffffff     ................
  420ef8:	ffffffff ffffffff ffffffff ffffffff     ................
  420f08:	ffffffff ffffffff ffffffff ffffffff     ................
  420f18:	ffffffff ffffffff ffffffff ffffffff     ................
  420f28:	ffffffff ffffffff ffffffff ffffffff     ................
  420f38:	ffffffff ffffffff ffffffff ffffffff     ................
	...
  420f50:	ffffff00 ffffffff ffffffff ffffffff     ................
  420f60:	ffffffff ffffffff ffffffff 00ffffff     ................
	...
  420f78:	ff000000 ffffffff ffffffff ffffffff     ................
  420f88:	ffffffff ffffffff ffffffff ffffffff     ................
  420f98:	ffffffff ffffffff ffffffff ffffffff     ................
  420fa8:	ffffffff ffffffff ffffffff ffffffff     ................
  420fb8:	ffffffff ffffffff ffffffff ffffffff     ................
  420fc8:	ffffffff ffffffff ffffffff ffffffff     ................
  420fd8:	ffffffff ffffffff ffffffff ffffffff     ................
  420fe8:	ffffffff ffffffff ffffffff ffffffff     ................
  420ff8:	ffffffff ffffffff ffffffff ffffffff     ................
  421008:	ffffffff ffffffff ffffffff ffffffff     ................
  421018:	ffffffff ffffffff ffffffff ffffffff     ................
  421028:	ffffffff ffffffff ffffffff ffffffff     ................
  421038:	ffffffff ffffffff ffffffff ffffffff     ................
  421048:	ffffffff ffffffff ffffffff 0000ffff     ................
  421058:	00000000 ff000000 ffffffff ffffffff     ................
  421068:	ffffffff ffffffff ffffffff ffffffff     ................
  421078:	ffffffff 000000ff 00000000 ffff0000     ................
  421088:	ffffffff ffffffff ffffffff ffffffff     ................
  421098:	ffffffff ffffffff ffffffff ffffffff     ................
  4210a8:	ffffffff ffffffff ffffffff ffffffff     ................
  4210b8:	ffffffff ffffffff ffffffff ffffffff     ................
  4210c8:	ffffffff ffffffff ffffffff ffffffff     ................
  4210d8:	ffffffff ffffffff ffffffff ffffffff     ................
  4210e8:	ffffffff ffffffff ffffffff ffffffff     ................
  4210f8:	ffffffff ffffffff ffffffff ffffffff     ................
  421108:	ffffffff ffffffff ffffffff ffffffff     ................
  421118:	ffffffff ffffffff ffffffff ffffffff     ................
  421128:	ffffffff ffffffff ffffffff ffffffff     ................
  421138:	ffffffff ffffffff ffffffff ffffffff     ................
  421148:	ffffffff ffffffff ffffffff ffffffff     ................
  421158:	ffffffff ffffffff ffffffff 00000000     ................
	...
  421170:	ffffffff ffffffff ffffffff ffffffff     ................
  421180:	ffffffff ffffffff 00ffffff 00000000     ................
  421190:	00000000 ffffffff ffffffff ffffffff     ................
  4211a0:	ffffffff ffffffff ffffffff ffffffff     ................
  4211b0:	ffffffff ffffffff ffffffff ffffffff     ................
  4211c0:	ffffffff ffffffff ffffffff ffffffff     ................
  4211d0:	ffffffff ffffffff ffffffff ffffffff     ................
  4211e0:	ffffffff ffffffff ffffffff ffffffff     ................
  4211f0:	ffffffff ffffffff ffffffff ffffffff     ................
  421200:	ffffffff ffffffff ffffffff ffffffff     ................
  421210:	ffffffff ffffffff ffffffff ffffffff     ................
  421220:	ffffffff ffffffff ffffffff ffffffff     ................
  421230:	ffffffff ffffffff ffffffff ffffffff     ................
  421240:	ffffffff ffffffff ffffffff ffffffff     ................
  421250:	ffffffff ffffffff ffffffff ffffffff     ................
  421260:	ffffffff ffffffff ffffffff ffffffff     ................
  421270:	ffffffff 000000ff 00000000 ffff0000     ................
  421280:	ffffffff ffffffff ffffffff ffffffff     ................
  421290:	ffffffff ffffffff 000000ff 00000000     ................
  4212a0:	ffff0000 ffffffff ffffffff ffffffff     ................
  4212b0:	ffffffff ffffffff ffffffff ffffffff     ................
  4212c0:	ffffffff ffffffff ffffffff ffffffff     ................
  4212d0:	ffffffff ffffffff ffffffff ffffffff     ................
  4212e0:	ffffffff ffffffff ffffffff ffffffff     ................
  4212f0:	ffffffff ffffffff ffffffff ffffffff     ................
  421300:	ffffffff ffffffff ffffffff ffffffff     ................
  421310:	ffffffff ffffffff ffffffff ffffffff     ................
  421320:	ffffffff ffffffff ffffffff ffffffff     ................
  421330:	ffffffff ffffffff ffffffff ffffffff     ................
  421340:	ffffffff ffffffff ffffffff ffffffff     ................
  421350:	ffffffff ffffffff ffffffff ffffffff     ................
  421360:	ffffffff ffffffff ffffffff ffffffff     ................
  421370:	ffffffff ffffffff ffffffff ffffffff     ................
  421380:	00ffffff 00000000 00000000 ffffffff     ................
  421390:	ffffffff ffffffff ffffffff ffffffff     ................
  4213a0:	ffffffff 00000000 00000000 00000000     ................
  4213b0:	ffffffff ffffffff ffffffff ffffffff     ................
  4213c0:	ffffffff ffffffff ffffffff ffffffff     ................
  4213d0:	ffffffff ffffffff ffffffff ffffffff     ................
  4213e0:	ffffffff ffffffff ffffffff ffffffff     ................
  4213f0:	ffffffff ffffffff ffffffff ffffffff     ................
  421400:	ffffffff ffffffff ffffffff ffffffff     ................
  421410:	ffffffff ffffffff ffffffff ffffffff     ................
  421420:	ffffffff ffffffff ffffffff ffffffff     ................
  421430:	ffffffff ffffffff ffffffff ffffffff     ................
  421440:	ffffffff ffffffff ffffffff ffffffff     ................
  421450:	ffffffff ffffffff ffffffff ffffffff     ................
  421460:	ffffffff ffffffff ffffffff ffffffff     ................
  421470:	ffffffff ffffffff ffffffff ffffffff     ................
  421480:	ffffffff ffffffff ffffffff ffffffff     ................
  421490:	000000ff 00000000 ffff0000 ffffffff     ................
  4214a0:	ffffffff ffffffff ffffffff ffffffff     ................
  4214b0:	0000ffff 00000000 00000000 ffff0000     ................
  4214c0:	ffffffff ffffffff ffffffff ffffffff     ................
  4214d0:	ffffffff ffffffff ffffffff ffffffff     ................
  4214e0:	ffffffff ffffffff ffffffff ffffffff     ................
  4214f0:	ffffffff ffffffff ffffffff ffffffff     ................
  421500:	ffffffff ffffffff ffffffff ffffffff     ................
  421510:	ffffffff ffffffff ffffffff ffffffff     ................
  421520:	ffffffff ffffffff ffffffff ffffffff     ................
  421530:	ffffffff ffffffff ffffffff ffffffff     ................
  421540:	ffffffff ffffffff ffffffff ffffffff     ................
  421550:	ffffffff ffffffff ffffffff ffffffff     ................
  421560:	ffffffff ffffffff ffffffff ffffffff     ................
  421570:	ffffffff ffffffff ffffffff ffffffff     ................
  421580:	ffffffff ffffffff ffffffff ffffffff     ................
  421590:	ffffffff ffffffff ffffffff 00ffffff     ................
	...
  4215a8:	ffffffff ffffffff ffffffff ffffffff     ................
  4215b8:	ffffffff ffffffff 00000000 00000000     ................
  4215c8:	ffffff00 ffffffff ffffffff ffffffff     ................
  4215d8:	ffffffff ffffffff ffffffff ffffffff     ................
  4215e8:	ffffffff ffffffff ffffffff ffffffff     ................
  4215f8:	ffffffff ffffffff ffffffff ffffffff     ................
  421608:	ffffffff ffffffff ffffffff ffffffff     ................
  421618:	ffffffff ffffffff ffffffff ffffffff     ................
  421628:	ffffffff ffffffff ffffffff ffffffff     ................
  421638:	ffffffff ffffffff ffffffff ffffffff     ................
  421648:	ffffffff ffffffff ffffffff ffffffff     ................
  421658:	ffffffff ffffffff ffffffff ffffffff     ................
  421668:	ffffffff ffffffff ffffffff ffffffff     ................
  421678:	ffffffff ffffffff ffffffff ffffffff     ................
  421688:	ffffffff ffffffff ffffffff ffffffff     ................
  421698:	ffffffff ffffffff ffffffff ffffffff     ................
  4216a8:	ffffffff 000000ff 00000000 00000000     ................
  4216b8:	ffffff00 ffffffff ffffffff ffffffff     ................
  4216c8:	ffffffff 0000ffff 00000000 ff000000     ................
  4216d8:	ffffffff ffffffff ffffffff ffffffff     ................
  4216e8:	ffffffff ffffffff ffffffff ffffffff     ................
  4216f8:	ffffffff ffffffff ffffffff ffffffff     ................
  421708:	ffffffff ffffffff ffffffff ffffffff     ................
  421718:	ffffffff ffffffff ffffffff ffffffff     ................
  421728:	ffffffff ffffffff ffffffff ffffffff     ................
  421738:	ffffffff ffffffff ffffffff ffffffff     ................
  421748:	ffffffff ffffffff ffffffff ffffffff     ................
  421758:	ffffffff ffffffff ffffffff ffffffff     ................
  421768:	ffffffff ffffffff ffffffff ffffffff     ................
  421778:	ffffffff ffffffff ffffffff ffffffff     ................
  421788:	ffffffff ffffffff ffffffff ffffffff     ................
  421798:	ffffffff ffffffff ffffffff ffffffff     ................
  4217a8:	ffffffff ffffffff ffffffff ffffffff     ................
  4217b8:	ffffffff 0000ffff 00000000 ff000000     ................
  4217c8:	ffffffff ffffffff ffffffff ffffffff     ................
  4217d8:	ffffffff 00000000 00000000 ffffff00     ................
  4217e8:	ffffffff ffffffff ffffffff ffffffff     ................
  4217f8:	ffffffff ffffffff ffffffff ffffffff     ................
  421808:	ffffffff ffffffff ffffffff ffffffff     ................
  421818:	ffffffff ffffffff ffffffff ffffffff     ................
  421828:	ffffffff ffffffff ffffffff ffffffff     ................
  421838:	ffffffff ffffffff ffffffff ffffffff     ................
  421848:	ffffffff ffffffff ffffffff ffffffff     ................
  421858:	ffffffff ffffffff ffffffff ffffffff     ................
  421868:	ffffffff ffffffff ffffffff ffffffff     ................
  421878:	ffffffff ffffffff ffffffff ffffffff     ................
  421888:	ffffffff ffffffff ffffffff ffffffff     ................
  421898:	ffffffff ffffffff ffffffff ffffffff     ................
  4218a8:	ffffffff ffffffff ffffffff ffffffff     ................
  4218b8:	ffffffff ffffffff ffffffff ffffffff     ................
  4218c8:	ffffffff 00000000 00000000 ffffff00     ................
  4218d8:	ffffffff ffffffff ffffffff 00ffffff     ................
	...
  4218f0:	ff000000 ffffffff ffffffff ffffffff     ................
  421900:	ffffffff ffffffff ffffffff ffffffff     ................
  421910:	ffffffff 00ffffff 00000000 00000000     ................
  421920:	ffffffff ffffffff ffffffff ffffffff     ................
  421930:	ffffffff ffffffff ffffffff ffffffff     ................
  421940:	ffffffff ffffffff ffffffff ffffffff     ................
  421950:	ffffffff ffffffff ffffffff ffffffff     ................
  421960:	ffffffff ffffffff ffffffff ffffffff     ................
  421970:	ffffffff ffffffff ffffffff ffffffff     ................
  421980:	ffffffff ffffffff ffffffff ffffffff     ................
  421990:	ffffffff ffffffff ffffffff ffffffff     ................
  4219a0:	ffffffff ffffffff ffffffff 000000ff     ................
  4219b0:	00000000 ffff0000 ffffffff ffffffff     ................
  4219c0:	ffffffff ffffffff ffffffff ffffffff     ................
  4219d0:	ffffffff ffffffff 0000ffff 00000000     ................
  4219e0:	ff000000 ffffffff ffffffff ffffffff     ................
  4219f0:	ffffffff 000000ff 00000000 00000000     ................
  421a00:	ffffff00 ffffffff ffffffff ffffffff     ................
  421a10:	ffffffff ffffffff ffffffff ffffffff     ................
  421a20:	ffffffff 000000ff 00000000 00000000     ................
  421a30:	ffffff00 ffffffff ffffffff ffffffff     ................
  421a40:	ffffffff ffffffff ffffffff ffffffff     ................
  421a50:	ffffffff ffffffff ffffffff ffffffff     ................
  421a60:	ffffffff ffffffff ffffffff ffffffff     ................
  421a70:	ffffffff ffffffff ffffffff ffffffff     ................
  421a80:	ffffffff ffffffff ffffffff ffffffff     ................
  421a90:	ffffffff ffffffff ffffffff ffffffff     ................
  421aa0:	ffffffff ffffffff ffffffff ffffffff     ................
  421ab0:	ffffffff ffffffff 00ffffff 00000000     ................
  421ac0:	00000000 ffffffff ffffffff ffffffff     ................
  421ad0:	ffffffff ffffffff ffffffff ffffffff     ................
  421ae0:	ffffffff ffffffff 00000000 00000000     ................
  421af0:	ffffff00 ffffffff ffffffff ffffffff     ................
  421b00:	00ffffff 00000000 00000000 ffffffff     ................
  421b10:	ffffffff ffffffff ffffffff ffffffff     ................
  421b20:	ffffffff ffffffff ffffffff ffffffff     ................
  421b30:	00ffffff 00000000 00000000 ff000000     ................
  421b40:	ffffffff ffffffff ffffffff ffffffff     ................
  421b50:	ffffffff ffffffff ffffffff ffffffff     ................
  421b60:	ffffffff ffffffff ffffffff ffffffff     ................
  421b70:	ffffffff ffffffff ffffffff ffffffff     ................
  421b80:	ffffffff ffffffff ffffffff ffffffff     ................
  421b90:	ffffffff ffffffff ffffffff ffffffff     ................
  421ba0:	ffffffff ffffffff ffffffff ffffffff     ................
  421bb0:	ffffffff ffffffff ffffffff ffffffff     ................
  421bc0:	ffffffff ffffffff 000000ff 00000000     ................
  421bd0:	ffff0000 ffffffff ffffffff ffffffff     ................
  421be0:	ffffffff ffffffff ffffffff ffffffff     ................
  421bf0:	ffffffff 0000ffff 00000000 ff000000     ................
  421c00:	ffffffff ffffffff ffffffff ffffffff     ................
  421c10:	000000ff 00000000 ffff0000 ffffffff     ................
  421c20:	ffffffff ffffffff ffffffff ffffffff     ................
  421c30:	ffffffff ffffffff ffffffff ffffffff     ................
  421c40:	000000ff 00000000 ffff0000 ffffffff     ................
  421c50:	ffffffff ffffffff ffffffff ffffffff     ................
  421c60:	ffffffff ffffffff ffffffff ffffffff     ................
  421c70:	ffffffff ffffffff ffffffff ffffffff     ................
  421c80:	ffffffff ffffffff ffffffff ffffffff     ................
  421c90:	ffffffff ffffffff ffffffff ffffffff     ................
  421ca0:	ffffffff ffffffff ffffffff ffffffff     ................
  421cb0:	ffffffff ffffffff ffffffff ffffffff     ................
  421cc0:	ffffffff ffffffff ffffffff ffffffff     ................
  421cd0:	ffffffff 00ffffff 00000000 00000000     ................
  421ce0:	ffffffff ffffffff ffffffff ffffffff     ................
  421cf0:	ffffffff ffffffff ffffffff ffffffff     ................
  421d00:	ffffffff 00000000 00000000 00000000     ................
  421d10:	ffffffff ffffffff ffffffff 00ffffff     ................
	...
  421d28:	ffffffff ffffffff ffffffff ffffffff     ................
  421d38:	ffffffff ffffffff ffffffff ffffffff     ................
  421d48:	ffffffff 00ffffff 00000000 00000000     ................
  421d58:	ffffffff ffffffff ffffffff ffffffff     ................
  421d68:	ffffffff ffffffff ffffffff ffffffff     ................
  421d78:	ffffffff ffffffff ffffffff ffffffff     ................
  421d88:	ffffffff ffffffff ffffffff ffffffff     ................
  421d98:	ffffffff ffffffff ffffffff ffffffff     ................
  421da8:	ffffffff ffffffff ffffffff ffffffff     ................
  421db8:	ffffffff ffffffff ffffffff ffffffff     ................
  421dc8:	ffffffff ffffffff ffffffff ffffffff     ................
  421dd8:	ffffffff ffffffff ffffffff 000000ff     ................
  421de8:	00000000 ffff0000 ffffffff ffffffff     ................
  421df8:	ffffffff ffffffff ffffffff ffffffff     ................
  421e08:	ffffffff ffffffff ffffffff 000000ff     ................
  421e18:	00000000 ffff0000 ffffffff ffffffff     ................
  421e28:	ffffffff 000000ff 00000000 ffff0000     ................
  421e38:	ffffffff ffffffff ffffffff ffffffff     ................
  421e48:	ffffffff ffffffff ffffffff ffffffff     ................
  421e58:	ffffffff 000000ff 00000000 ffff0000     ................
  421e68:	ffffffff ffffffff ffffffff ffffffff     ................
  421e78:	ffffffff ffffffff ffffffff ffffffff     ................
  421e88:	ffffffff ffffffff ffffffff ffffffff     ................
  421e98:	ffffffff ffffffff ffffffff ffffffff     ................
  421ea8:	ffffffff ffffffff ffffffff ffffffff     ................
  421eb8:	ffffffff ffffffff ffffffff ffffffff     ................
  421ec8:	ffffffff ffffffff ffffffff ffffffff     ................
  421ed8:	ffffffff ffffffff ffffffff ffffffff     ................
  421ee8:	ffffffff ffffffff 00ffffff 00000000     ................
  421ef8:	00000000 ffffffff ffffffff ffffffff     ................
  421f08:	ffffffff ffffffff ffffffff ffffffff     ................
  421f18:	ffffffff ffffffff 00ffffff 00000000     ................
  421f28:	00000000 ffffffff ffffffff ffffffff     ................
	...
  421f44:	ffffffff ffffffff ffffffff ffffffff     ................
  421f54:	ffffffff ffffffff ffffffff ffffffff     ................
  421f64:	ffffffff 00000000 00000000 00000000     ................
  421f74:	ffffffff ffffffff ffffffff ffffffff     ................
  421f84:	ffffffff ffffffff ffffffff ffffffff     ................
  421f94:	ffffffff ffffffff ffffffff ffffffff     ................
  421fa4:	ffffffff ffffffff ffffffff ffffffff     ................
  421fb4:	ffffffff ffffffff ffffffff ffffffff     ................
  421fc4:	ffffffff ffffffff ffffffff ffffffff     ................
  421fd4:	ffffffff ffffffff ffffffff ffffffff     ................
  421fe4:	ffffffff ffffffff ffffffff ffffffff     ................
  421ff4:	ffffffff ffffffff ffffffff 000000ff     ................
  422004:	00000000 ffff0000 ffffffff ffffffff     ................
  422014:	ffffffff ffffffff ffffffff ffffffff     ................
  422024:	ffffffff ffffffff ffffffff 000000ff     ................
  422034:	00000000 ffff0000 ffffffff ffffffff     ................
  422044:	0000ffff 00000000 ff000000 ffffffff     ................
  422054:	ffffffff ffffffff ffffffff ffffffff     ................
  422064:	ffffffff ffffffff ffffffff ffffffff     ................
  422074:	0000ffff 00000000 00000000 ffff0000     ................
  422084:	ffffffff ffffffff ffffffff ffffffff     ................
  422094:	ffffffff ffffffff ffffffff ffffffff     ................
  4220a4:	ffffffff ffffffff ffffffff ffffffff     ................
  4220b4:	ffffffff ffffffff ffffffff ffffffff     ................
  4220c4:	ffffffff ffffffff ffffffff ffffffff     ................
  4220d4:	ffffffff ffffffff ffffffff ffffffff     ................
  4220e4:	ffffffff ffffffff ffffffff ffffffff     ................
  4220f4:	ffffffff ffffffff ffffffff ffffffff     ................
  422104:	ffffffff ffffffff 00ffffff 00000000     ................
  422114:	00000000 ff000000 ffffffff ffffffff     ................
  422124:	ffffffff ffffffff ffffffff ffffffff     ................
  422134:	ffffffff ffffffff 00ffffff 00000000     ................
  422144:	00000000 ffffffff ffffffff ffffffff     ................
	...
  42215c:	ffffff00 ffffffff ffffffff ffffffff     ................
  42216c:	ffffffff ffffffff ffffffff ffffffff     ................
  42217c:	ffffffff ffffffff 00000000 00000000     ................
  42218c:	00000000 ffffffff ffffffff ffffffff     ................
  42219c:	ffffffff ffffffff ffffffff ffffffff     ................
  4221ac:	ffffffff ffffffff ffffffff ffffffff     ................
  4221bc:	ffffffff ffffffff ffffffff ffffffff     ................
  4221cc:	ffffffff ffffffff ffffffff ffffffff     ................
  4221dc:	ffffffff ffffffff ffffffff ffffffff     ................
  4221ec:	ffffffff ffffffff ffffffff ffffffff     ................
  4221fc:	ffffffff ffffffff ffffffff ffffffff     ................
  42220c:	ffffffff ffffffff ffffffff ffffffff     ................
  42221c:	000000ff 00000000 00000000 ffffff00     ................
  42222c:	ffffffff ffffffff ffffffff ffffffff     ................
  42223c:	ffffffff ffffffff ffffffff ffffffff     ................
  42224c:	000000ff 00000000 00000000 ffffff00     ................
  42225c:	ffffffff 0000ffff 00000000 ff000000     ................
  42226c:	ffffffff ffffffff ffffffff ffffffff     ................
  42227c:	ffffffff ffffffff ffffffff ffffffff     ................
  42228c:	ffffffff 0000ffff 00000000 00000000     ................
  42229c:	ffff0000 ffffffff ffffffff ffffffff     ................
  4222ac:	ffffffff ffffffff ffffffff ffffffff     ................
  4222bc:	ffffffff ffffffff ffffffff ffffffff     ................
  4222cc:	ffffffff ffffffff ffffffff ffffffff     ................
  4222dc:	ffffffff ffffffff ffffffff ffffffff     ................
  4222ec:	ffffffff ffffffff ffffffff ffffffff     ................
  4222fc:	ffffffff ffffffff ffffffff ffffffff     ................
  42230c:	ffffffff ffffffff ffffffff ffffffff     ................
  42231c:	ffffffff ffffffff ffffffff ffffffff     ................
  42232c:	0000ffff 00000000 ff000000 ffffffff     ................
  42233c:	ffffffff ffffffff ffffffff ffffffff     ................
  42234c:	ffffffff ffffffff ffffffff ffffffff     ................
  42235c:	0000ffff 00000000 ff000000 ffffffff     ................
  42236c:	ffffffff 00000000 00000000 ffffff00     ................
  42237c:	ffffffff ffffffff ffffffff ffffffff     ................
  42238c:	ffffffff ffffffff ffffffff ffffffff     ................
  42239c:	ffffffff 00000000 00000000 00000000     ................
  4223ac:	ffffffff ffffffff ffffffff ffffffff     ................
  4223bc:	ffffffff ffffffff ffffffff ffffffff     ................
  4223cc:	ffffffff ffffffff ffffffff ffffffff     ................
  4223dc:	ffffffff ffffffff ffffffff ffffffff     ................
  4223ec:	ffffffff ffffffff ffffffff ffffffff     ................
  4223fc:	ffffffff ffffffff ffffffff ffffffff     ................
  42240c:	ffffffff ffffffff ffffffff ffffffff     ................
  42241c:	ffffffff ffffffff ffffffff ffffffff     ................
  42242c:	ffffffff ffffffff ffffffff ffffffff     ................
	...
  422444:	ffffff00 ffffffff ffffffff ffffffff     ................
  422454:	ffffffff ffffffff ffffffff ffffffff     ................
  422464:	ffffffff ffffffff 00000000 00000000     ................
  422474:	ffffff00 00ffffff 00000000 00000000     ................
  422484:	ff000000 ffffffff ffffffff ffffffff     ................
  422494:	ffffffff ffffffff ffffffff ffffffff     ................
  4224a4:	ffffffff ffffffff 0000ffff 00000000     ................
  4224b4:	ff000000 ffffffff ffffffff ffffffff     ................
  4224c4:	ffffffff ffffffff ffffffff ffffffff     ................
  4224d4:	ffffffff ffffffff ffffffff ffffffff     ................
  4224e4:	ffffffff ffffffff ffffffff ffffffff     ................
  4224f4:	ffffffff ffffffff ffffffff ffffffff     ................
  422504:	ffffffff ffffffff ffffffff ffffffff     ................
  422514:	ffffffff ffffffff ffffffff ffffffff     ................
  422524:	ffffffff ffffffff ffffffff ffffffff     ................
  422534:	ffffffff ffffffff ffffffff ffffffff     ................
  422544:	ffffffff 0000ffff 00000000 ff000000     ................
  422554:	ffffffff ffffffff ffffffff ffffffff     ................
  422564:	ffffffff ffffffff ffffffff ffffffff     ................
  422574:	ffffffff 0000ffff 00000000 ff000000     ................
  422584:	ffffffff 000000ff 00000000 00000000     ................
	...
  4225c4:	ffffff00 ffffffff ffffffff ffffffff     ................
  4225d4:	ffffffff ffffffff ffffffff ffffffff     ................
  4225e4:	ffffffff ffffffff ffffffff ffffffff     ................
  4225f4:	ffffffff ffffffff ffffffff ffffffff     ................
  422604:	ffffffff ffffffff ffffffff ffffffff     ................
  422614:	ffffffff ffffffff ffffffff ffffffff     ................
  422624:	ffffffff ffffffff ffffffff ffffffff     ................
  422634:	ffffffff ffffffff ffffffff ffffffff     ................
  422644:	ffffffff ffffffff ffffffff ffffffff     ................
  422654:	ffffffff 00000000 00000000 ffffff00     ................
  422664:	ffffffff ffffffff ffffffff ffffffff     ................
  422674:	ffffffff ffffffff ffffffff ffffffff     ................
  422684:	ffffffff 00000000 00000000 ffffff00     ................
  422694:	00ffffff 00000000 00000000 00000000     ................
	...
  4226d0:	ff000000 ffffffff ffffffff ffffffff     ................
  4226e0:	ffffffff ffffffff ffffffff ffffffff     ................
  4226f0:	ffffffff ffffffff ffffffff ffffffff     ................
  422700:	ffffffff ffffffff ffffffff ffffffff     ................
  422710:	ffffffff ffffffff ffffffff ffffffff     ................
  422720:	ffffffff ffffffff ffffffff ffffffff     ................
  422730:	ffffffff ffffffff ffffffff ffffffff     ................
  422740:	ffffffff ffffffff ffffffff ffffffff     ................
  422750:	ffffffff ffffffff ffffffff ffffffff     ................
  422760:	ffffffff 0000ffff 00000000 00000000     ................
	...
  4227a0:	ffff0000 000000ff 00000000 00000000     ................
	...
  4227e0:	ffffff00 ffffffff ffffffff ffffffff     ................
  4227f0:	ffffffff ffffffff ffffffff ffffffff     ................
  422800:	ffffffff ffffffff ffffffff ffffffff     ................
  422810:	ffffffff ffffffff ffffffff ffffffff     ................
  422820:	ffffffff ffffffff ffffffff ffffffff     ................
  422830:	ffffffff ffffffff ffffffff ffffffff     ................
  422840:	ffffffff ffffffff ffffffff ffffffff     ................
  422850:	ffffffff ffffffff ffffffff ffffffff     ................
  422860:	ffffffff ffffffff ffffffff ffffffff     ................
  422870:	ffffffff 00000000 00000000 00000000     ................
	...
  4228b0:	00ffffff 00000000 00000000 00000000     ................
	...
  4228ec:	ff000000 ffffffff ffffffff ffffffff     ................
  4228fc:	ffffffff ffffffff ffffffff ffffffff     ................
  42290c:	ffffffff ffffffff ffffffff ffffffff     ................
  42291c:	ffffffff ffffffff ffffffff ffffffff     ................
  42292c:	ffffffff ffffffff ffffffff ffffffff     ................
  42293c:	ffffffff ffffffff ffffffff ffffffff     ................
  42294c:	ffffffff ffffffff ffffffff ffffffff     ................
  42295c:	ffffffff ffffffff ffffffff ffffffff     ................
  42296c:	ffffffff ffffffff ffffffff ffffffff     ................
  42297c:	ffffffff 0000ffff 00000000 00000000     ................
	...
  4229bc:	ffff0000 ffffffff ffffffff ffffffff     ................
  4229cc:	ffffffff ffffffff ffffffff ffffffff     ................
  4229dc:	ffffffff ffffffff ffffffff ffffffff     ................
  4229ec:	ffffffff 000000ff 00000000 00000000     ................
  4229fc:	ffffff00 ffffffff ffffffff ffffffff     ................
  422a0c:	ffffffff ffffffff ffffffff ffffffff     ................
  422a1c:	ffffffff ffffffff ffffffff ffffffff     ................
  422a2c:	ffffffff ffffffff ffffffff ffffffff     ................
  422a3c:	ffffffff ffffffff ffffffff ffffffff     ................
  422a4c:	ffffffff ffffffff ffffffff ffffffff     ................
  422a5c:	ffffffff ffffffff ffffffff ffffffff     ................
  422a6c:	ffffffff ffffffff ffffffff ffffffff     ................
  422a7c:	ffffffff ffffffff ffffffff ffffffff     ................
  422a8c:	ffffffff 00000000 00000000 00000000     ................
  422a9c:	ffffffff ffffffff ffffffff ffffffff     ................
  422aac:	ffffffff ffffffff ffffffff ffffffff     ................
  422abc:	ffffffff ffffffff ffffffff ffffffff     ................
  422acc:	ffffffff ffffffff ffffffff ffffffff     ................
  422adc:	ffffffff ffffffff ffffffff ffffffff     ................
  422aec:	ffffffff ffffffff ffffffff ffffffff     ................
  422afc:	00ffffff 00000000 00000000 ff000000     ................
  422b0c:	ffffffff ffffffff ffffffff ffffffff     ................
  422b1c:	ffffffff ffffffff ffffffff ffffffff     ................
  422b2c:	ffffffff ffffffff ffffffff ffffffff     ................
  422b3c:	ffffffff ffffffff ffffffff ffffffff     ................
  422b4c:	ffffffff ffffffff ffffffff ffffffff     ................
  422b5c:	ffffffff ffffffff ffffffff ffffffff     ................
  422b6c:	ffffffff ffffffff ffffffff ffffffff     ................
  422b7c:	ffffffff ffffffff ffffffff ffffffff     ................
  422b8c:	ffffffff ffffffff ffffffff ffffffff     ................
  422b9c:	0000ffff 00000000 00000000 ffff0000     ................
  422bac:	ffffffff ffffffff ffffffff ffffffff     ................
  422bbc:	ffffffff ffffffff ffffffff ffffffff     ................
  422bcc:	ffffffff ffffffff ffffffff ffffffff     ................
  422bdc:	ffffffff ffffffff ffffffff ffffffff     ................
  422bec:	ffffffff ffffffff ffffffff ffffffff     ................
  422bfc:	ffffffff ffffffff ffffffff ffffffff     ................
  422c0c:	000000ff 00000000 00000000 ffffff00     ................
  422c1c:	ffffffff ffffffff ffffffff ffffffff     ................
  422c2c:	ffffffff ffffffff ffffffff ffffffff     ................
  422c3c:	ffffffff ffffffff ffffffff ffffffff     ................
  422c4c:	ffffffff ffffffff ffffffff ffffffff     ................
  422c5c:	ffffffff ffffffff ffffffff ffffffff     ................
  422c6c:	ffffffff ffffffff ffffffff ffffffff     ................
  422c7c:	ffffffff ffffffff ffffffff ffffffff     ................
  422c8c:	ffffffff ffffffff ffffffff ffffffff     ................
  422c9c:	ffffffff ffffffff ffffffff ffffffff     ................
  422cac:	00ffffff 00000000 00000000 ffffffff     ................
  422cbc:	ffffffff ffffffff ffffffff ffffffff     ................
  422ccc:	ffffffff ffffffff ffffffff ffffffff     ................
  422cdc:	ffffffff ffffffff ffffffff ffffffff     ................
  422cec:	ffffffff ffffffff ffffffff ffffffff     ................
  422cfc:	ffffffff ffffffff ffffffff ffffffff     ................
  422d0c:	ffffffff ffffffff ffffffff 00ffffff     ................
	...
  422d24:	ff000000 ffffffff ffffffff ffffffff     ................
  422d34:	ffffffff ffffffff ffffffff ffffffff     ................
  422d44:	ffffffff ffffffff ffffffff ffffffff     ................
  422d54:	ffffffff ffffffff ffffffff ffffffff     ................
  422d64:	ffffffff ffffffff ffffffff ffffffff     ................
  422d74:	ffffffff ffffffff ffffffff ffffffff     ................
  422d84:	ffffffff ffffffff ffffffff ffffffff     ................
  422d94:	ffffffff ffffffff ffffffff ffffffff     ................
  422da4:	ffffffff ffffffff ffffffff ffffffff     ................
  422db4:	ffffffff ffffffff 000000ff 00000000     ................
  422dc4:	ffff0000 ffffffff ffffffff ffffffff     ................
  422dd4:	ffffffff ffffffff ffffffff ffffffff     ................
  422de4:	ffffffff ffffffff ffffffff ffffffff     ................
  422df4:	ffffffff ffffffff ffffffff ffffffff     ................
  422e04:	ffffffff ffffffff ffffffff ffffffff     ................
  422e14:	ffffffff ffffffff ffffffff ffffffff     ................
  422e24:	ffffffff 000000ff 00000000 ffff0000     ................
  422e34:	ffffffff ffffffff ffffffff ffffffff     ................
  422e44:	ffffffff ffffffff ffffffff ffffffff     ................
  422e54:	ffffffff ffffffff ffffffff ffffffff     ................
  422e64:	ffffffff ffffffff ffffffff ffffffff     ................
  422e74:	ffffffff ffffffff ffffffff ffffffff     ................
  422e84:	ffffffff ffffffff ffffffff ffffffff     ................
  422e94:	ffffffff ffffffff ffffffff ffffffff     ................
  422ea4:	ffffffff ffffffff ffffffff ffffffff     ................
  422eb4:	ffffffff ffffffff ffffffff ffffffff     ................
  422ec4:	ffffffff 00ffffff 00000000 00000000     ................
  422ed4:	ffffffff ffffffff ffffffff ffffffff     ................
  422ee4:	ffffffff ffffffff ffffffff ffffffff     ................
  422ef4:	ffffffff ffffffff ffffffff ffffffff     ................
  422f04:	ffffffff ffffffff ffffffff ffffffff     ................
  422f14:	ffffffff ffffffff ffffffff ffffffff     ................
  422f24:	ffffffff ffffffff ffffffff ffffffff     ................
  422f34:	00ffffff 00000000 00000000 ffffffff     ................
  422f44:	ffffffff ffffffff ffffffff ffffffff     ................
  422f54:	ffffffff ffffffff ffffffff ffffffff     ................
  422f64:	ffffffff ffffffff ffffffff ffffffff     ................
  422f74:	ffffffff ffffffff ffffffff ffffffff     ................
  422f84:	ffffffff ffffffff ffffffff ffffffff     ................
  422f94:	ffffffff ffffffff ffffffff ffffffff     ................
  422fa4:	ffffffff ffffffff ffffffff ffffffff     ................
  422fb4:	ffffffff ffffffff ffffffff ffffffff     ................
  422fc4:	ffffffff ffffffff ffffffff ffffffff     ................
  422fd4:	ffffffff 000000ff 00000000 ffff0000     ................
  422fe4:	ffffffff ffffffff ffffffff ffffffff     ................
  422ff4:	ffffffff ffffffff ffffffff ffffffff     ................
  423004:	ffffffff ffffffff ffffffff ffffffff     ................
  423014:	ffffffff ffffffff ffffffff ffffffff     ................
  423024:	ffffffff ffffffff ffffffff ffffffff     ................
  423034:	0000ffff 00000000 00000000 00000000     ................
	...
  42304c:	ffff0000 ffffffff ffffffff ffffffff     ................
  42305c:	ffffffff ffffffff ffffffff ffffffff     ................
  42306c:	ffffffff ffffffff ffffffff ffffffff     ................
  42307c:	ffffffff ffffffff ffffffff ffffffff     ................
  42308c:	ffffffff ffffffff ffffffff ffffffff     ................
  42309c:	ffffffff ffffffff ffffffff ffffffff     ................
  4230ac:	ffffffff ffffffff ffffffff ffffffff     ................
  4230bc:	ffffffff ffffffff ffffffff ffffffff     ................
  4230cc:	ffffffff ffffffff ffffffff ffffffff     ................
  4230dc:	ffffffff ffffffff 00ffffff 00000000     ................
  4230ec:	00000000 ffffffff ffffffff ffffffff     ................
  4230fc:	ffffffff ffffffff ffffffff ffffffff     ................
  42310c:	ffffffff ffffffff ffffffff ffffffff     ................
  42311c:	ffffffff ffffffff ffffffff ffffffff     ................
	...
  42316c:	ffff0000 ffffffff ffffffff ffffffff     ................
  42317c:	ffffffff ffffffff ffffffff ffffffff     ................
  42318c:	ffffffff ffffffff ffffffff ffffffff     ................
  42319c:	ffffffff ffffffff ffffffff ffffffff     ................
  4231ac:	ffffffff ffffffff ffffffff 000000ff     ................
	...
  4231dc:	ffffff00 ffffffff ffffffff ffffffff     ................
  4231ec:	ffffffff ffffffff 000000ff 00000000     ................
  4231fc:	ffff0000 ffffffff ffffffff ffffffff     ................
  42320c:	ffffffff ffffffff ffffffff ffffffff     ................
  42321c:	ffffffff ffffffff ffffffff ffffffff     ................
  42322c:	ffffffff ffffffff 00ffffff 00000000     ................
	...
  423288:	ffffffff ffffffff ffffffff ffffffff     ................
  423298:	ffffffff ffffffff ffffffff ffffffff     ................
  4232a8:	ffffffff ffffffff 0000ffff 00000000     ................
	...
  4232f8:	ffff0000 ffffffff 00ffffff 00000000     ................
  423308:	00000000 ffffffff ffffffff ffffffff     ................
  423318:	ffffffff ffffffff ffffffff ffffffff     ................
  423328:	ffffffff ffffffff ffffffff ffffffff     ................
  423338:	ffffffff ffffffff ffffffff 000000ff     ................
	...
  42341c:	ffffff00 ffffffff ffffffff ffffffff     ................
  42342c:	ffffffff ffffffff ffffffff 00ffffff     ................
  42343c:	00000000 ffffff00 ffffffff ffffffff     ................
  42344c:	ffffffff ffffffff 0000ffff 00000000     ................
  42345c:	ffffffff ffffffff ffffffff ffffffff     ................
  42346c:	ffffffff ffffffff ffffffff 0000ffff     ................
  42347c:	00000000 ff000000 ffffffff ffffffff     ................
	...
  42354c:	ff000000 ffffffff ffffffff ffffffff     ................
  42355c:	ffffffff ffffffff ffffffff ffffffff     ................
  42356c:	ffffffff ffffffff ffffffff ffffffff     ................
  42357c:	ffffffff ffffffff ffffffff 00000000     ................
  42358c:	00000000 ffffff00 ffffffff ffffffff     ................
  42359c:	ffffffff ffffffff ffffffff 000000ff     ................
	...
  4235e4:	ffffff00 ffffffff ffffffff ffffffff     ................
  4235f4:	ffffffff ffffffff ffffffff ffffffff     ................
  423604:	ffffffff ffffffff ffffffff ffffffff     ................
  423614:	ffffffff ffffffff 0000ffff 00000000     ................
	...
  423660:	ffffffff ffffffff ffffffff ffffffff     ................
  423670:	ffffffff ffffffff ffffffff ffffffff     ................
  423680:	ffffffff ffffffff ffffffff ffffffff     ................
  423690:	ffffffff 0000ffff 00000000 ff000000     ................
  4236a0:	ffffffff ffffffff ffffffff ffffffff     ................
  4236b0:	ffffffff ffffffff ffffffff ffffffff     ................
  4236c0:	ffffffff ffffffff ffffffff 00000000     ................
	...
  4236d8:	ff000000 ffffffff ffffffff ffffffff     ................
  4236e8:	ffffffff ffffffff ffffffff ffffffff     ................
  4236f8:	ffffffff ffffffff ffffffff ffffffff     ................
  423708:	ffffffff ffffffff ffffffff ffffffff     ................
  423718:	ffffffff ffffffff ffffffff ffffffff     ................
  423728:	ffffffff ffffffff ffffffff ffffffff     ................
  423738:	00ffffff 00000000 00000000 00000000     ................
	...
  423768:	ff000000 ffffffff ffffffff ffffffff     ................
  423778:	ffffffff ffffffff ffffffff ffffffff     ................
  423788:	ffffffff ffffffff ffffffff ffffffff     ................
  423798:	ffffffff ffffffff ffffffff 00000000     ................
  4237a8:	00000000 ffffff00 ffffffff ffffffff     ................
  4237b8:	ffffffff ffffffff ffffffff ffffffff     ................
  4237c8:	ffffffff ffffffff ffffffff ffffffff     ................
  4237d8:	ffffffff ffffffff ffffffff ffffffff     ................
  4237e8:	ffffffff ffffffff ffffffff ffffffff     ................
  4237f8:	ffffffff ffffffff ffffffff ffffffff     ................
  423808:	ffffffff ffffffff ffffffff ffffffff     ................
  423818:	ffffffff ffffffff ffffffff ffffffff     ................
  423828:	ffffffff ffffffff ffffffff ffffffff     ................
  423838:	ffffffff ffffffff ffffffff ffffffff     ................
  423848:	ffffffff 00000000 00000000 ffffff00     ................
  423858:	ffffffff ffffffff ffffffff ffffffff     ................
  423868:	ffffffff ffffffff ffffffff ffffffff     ................
  423878:	ffffffff ffffffff ffffffff ffffffff     ................
  423888:	ffffffff ffffffff ffffffff ffffffff     ................
  423898:	ffffffff ffffffff ffffffff ffffffff     ................
  4238a8:	ffffffff ffffffff 0000ffff 00000000     ................
  4238b8:	ff000000 ffffffff ffffffff ffffffff     ................
  4238c8:	ffffffff ffffffff ffffffff ffffffff     ................
  4238d8:	ffffffff ffffffff ffffffff ffffffff     ................
  4238e8:	ffffffff ffffffff ffffffff ffffffff     ................
  4238f8:	ffffffff ffffffff ffffffff ffffffff     ................
  423908:	ffffffff ffffffff ffffffff ffffffff     ................
  423918:	ffffffff ffffffff ffffffff ffffffff     ................
  423928:	ffffffff ffffffff ffffffff ffffffff     ................
  423938:	ffffffff ffffffff ffffffff ffffffff     ................
  423948:	ffffffff ffffffff ffffffff ffffffff     ................
  423958:	0000ffff 00000000 ff000000 ffffffff     ................
  423968:	ffffffff ffffffff ffffffff ffffffff     ................
  423978:	ffffffff ffffffff ffffffff ffffffff     ................
  423988:	ffffffff ffffffff ffffffff ffffffff     ................
  423998:	ffffffff ffffffff ffffffff ffffffff     ................
  4239a8:	ffffffff ffffffff ffffffff ffffffff     ................
  4239b8:	ffffffff 000000ff 00000000 00000000     ................
  4239c8:	ffffff00 ffffffff ffffffff ffffffff     ................
  4239d8:	ffffffff ffffffff ffffffff ffffffff     ................
  4239e8:	ffffffff ffffffff ffffffff ffffffff     ................
  4239f8:	ffffffff ffffffff ffffffff ffffffff     ................
  423a08:	ffffffff ffffffff ffffffff ffffffff     ................
  423a18:	ffffffff ffffffff ffffffff ffffffff     ................
  423a28:	ffffffff ffffffff ffffffff ffffffff     ................
  423a38:	ffffffff ffffffff ffffffff ffffffff     ................
  423a48:	ffffffff ffffffff ffffffff ffffffff     ................
  423a58:	ffffffff ffffffff ffffffff ffffffff     ................
	...
  423a70:	ffffff00 ffffffff ffffffff ffffffff     ................
  423a80:	ffffffff ffffffff ffffffff ffffffff     ................
  423a90:	ffffffff ffffffff ffffffff ffffffff     ................
  423aa0:	ffffffff ffffffff ffffffff ffffffff     ................
  423ab0:	ffffffff ffffffff ffffffff ffffffff     ................
  423ac0:	ffffffff ffffffff 00ffffff 00000000     ................
  423ad0:	00000000 ff000000 ffffffff ffffffff     ................
  423ae0:	ffffffff ffffffff ffffffff ffffffff     ................
  423af0:	ffffffff ffffffff ffffffff ffffffff     ................
  423b00:	ffffffff ffffffff ffffffff ffffffff     ................
  423b10:	ffffffff ffffffff ffffffff ffffffff     ................
  423b20:	ffffffff ffffffff ffffffff ffffffff     ................
  423b30:	ffffffff ffffffff ffffffff ffffffff     ................
  423b40:	ffffffff ffffffff ffffffff ffffffff     ................
  423b50:	ffffffff ffffffff ffffffff ffffffff     ................
  423b60:	ffffffff ffffffff ffffffff ffffffff     ................
  423b70:	ffffffff 0000ffff 00000000 ff000000     ................
  423b80:	ffffffff ffffffff ffffffff ffffffff     ................
  423b90:	ffffffff ffffffff ffffffff ffffffff     ................
  423ba0:	ffffffff ffffffff ffffffff ffffffff     ................
  423bb0:	ffffffff ffffffff ffffffff ffffffff     ................
  423bc0:	ffffffff ffffffff ffffffff ffffffff     ................
  423bd0:	ffffffff ffffffff 000000ff 00000000     ................
  423be0:	00000000 ffffff00 ffffffff ffffffff     ................
  423bf0:	ffffffff ffffffff ffffffff ffffffff     ................
  423c00:	ffffffff ffffffff ffffffff ffffffff     ................
  423c10:	ffffffff ffffffff ffffffff ffffffff     ................
  423c20:	ffffffff ffffffff ffffffff ffffffff     ................
  423c30:	ffffffff ffffffff ffffffff ffffffff     ................
  423c40:	ffffffff ffffffff ffffffff ffffffff     ................
  423c50:	ffffffff ffffffff ffffffff ffffffff     ................
  423c60:	ffffffff ffffffff ffffffff ffffffff     ................
  423c70:	ffffffff ffffffff ffffffff ffffffff     ................
  423c80:	ffffffff 00000000 00000000 00000000     ................
  423c90:	ffffffff ffffffff ffffffff ffffffff     ................
  423ca0:	ffffffff ffffffff ffffffff ffffffff     ................
  423cb0:	ffffffff ffffffff ffffffff ffffffff     ................
  423cc0:	ffffffff ffffffff ffffffff ffffffff     ................
  423cd0:	ffffffff ffffffff ffffffff ffffffff     ................
  423ce0:	ffffffff 00ffffff 00000000 00000000     ................
  423cf0:	ffffffff ffffffff ffffffff ffffffff     ................
  423d00:	ffffffff ffffffff ffffffff ffffffff     ................
  423d10:	ffffffff ffffffff ffffffff ffffffff     ................
  423d20:	ffffffff ffffffff ffffffff ffffffff     ................
  423d30:	ffffffff ffffffff ffffffff ffffffff     ................
  423d40:	ffffffff ffffffff ffffffff ffffffff     ................
  423d50:	ffffffff ffffffff ffffffff ffffffff     ................
  423d60:	ffffffff ffffffff ffffffff ffffffff     ................
  423d70:	ffffffff ffffffff ffffffff ffffffff     ................
  423d80:	ffffffff ffffffff ffffffff ffffffff     ................
  423d90:	0000ffff 00000000 00000000 ffff0000     ................
  423da0:	ffffffff ffffffff ffffffff ffffffff     ................
  423db0:	ffffffff ffffffff ffffffff ffffffff     ................
  423dc0:	ffffffff ffffffff ffffffff ffffffff     ................
  423dd0:	ffffffff ffffffff ffffffff ffffffff     ................
  423de0:	ffffffff ffffffff ffffffff ffffffff     ................
  423df0:	ffffffff 000000ff 00000000 ffff0000     ................
  423e00:	ffffffff ffffffff ffffffff ffffffff     ................
  423e10:	ffffffff ffffffff ffffffff ffffffff     ................
  423e20:	ffffffff ffffffff ffffffff ffffffff     ................
  423e30:	ffffffff ffffffff ffffffff ffffffff     ................
  423e40:	ffffffff ffffffff ffffffff ffffffff     ................
  423e50:	ffffffff ffffffff ffffffff ffffffff     ................
  423e60:	ffffffff ffffffff ffffffff ffffffff     ................
  423e70:	ffffffff ffffffff ffffffff ffffffff     ................
  423e80:	ffffffff ffffffff ffffffff ffffffff     ................
  423e90:	ffffffff ffffffff ffffffff ffffffff     ................
	...
  423eac:	ffffffff ffffffff ffffffff ffffffff     ................
  423ebc:	ffffffff ffffffff ffffffff ffffffff     ................
  423ecc:	ffffffff ffffffff ffffffff ffffffff     ................
  423edc:	ffffffff ffffffff ffffffff ffffffff     ................
  423eec:	ffffffff ffffffff ffffffff ffffffff     ................
  423efc:	ffffffff 00ffffff 00000000 00000000     ................
  423f0c:	ffffffff ffffffff ffffffff ffffffff     ................
  423f1c:	ffffffff ffffffff ffffffff ffffffff     ................
  423f2c:	ffffffff ffffffff ffffffff ffffffff     ................
  423f3c:	ffffffff ffffffff ffffffff ffffffff     ................
  423f4c:	ffffffff ffffffff ffffffff ffffffff     ................
  423f5c:	ffffffff ffffffff ffffffff ffffffff     ................
  423f6c:	ffffffff ffffffff ffffffff ffffffff     ................
  423f7c:	ffffffff ffffffff ffffffff ffffffff     ................
  423f8c:	ffffffff ffffffff ffffffff ffffffff     ................
  423f9c:	ffffffff ffffffff ffffffff ffffffff     ................
  423fac:	ffffffff 000000ff 00000000 ffff0000     ................
  423fbc:	ffffffff ffffffff ffffffff ffffffff     ................
  423fcc:	ffffffff ffffffff ffffffff ffffffff     ................
  423fdc:	ffffffff ffffffff ffffffff ffffffff     ................
  423fec:	ffffffff ffffffff ffffffff ffffffff     ................
  423ffc:	ffffffff ffffffff ffffffff ffffffff     ................
  42400c:	ffffffff 000000ff 00000000 ffff0000     ................
  42401c:	ffffffff ffffffff ffffffff ffffffff     ................
  42402c:	ffffffff ffffffff ffffffff ffffffff     ................
  42403c:	ffffffff ffffffff ffffffff ffffffff     ................
  42404c:	ffffffff ffffffff ffffffff ffffffff     ................
  42405c:	ffffffff ffffffff ffffffff ffffffff     ................
  42406c:	ffffffff ffffffff ffffffff ffffffff     ................
  42407c:	ffffffff ffffffff ffffffff ffffffff     ................
  42408c:	ffffffff ffffffff ffffffff ffffffff     ................
  42409c:	ffffffff ffffffff ffffffff ffffffff     ................
  4240ac:	ffffffff ffffffff ffffffff ffffffff     ................
  4240bc:	00ffffff 00000000 00000000 ffffffff     ................
  4240cc:	ffffffff ffffffff ffffffff ffffffff     ................
  4240dc:	ffffffff ffffffff ffffffff ffffffff     ................
  4240ec:	ffffffff ffffffff ffffffff ffffffff     ................
  4240fc:	ffffffff ffffffff ffffffff ffffffff     ................
  42410c:	ffffffff ffffffff ffffffff ffffffff     ................
  42411c:	00ffffff 00000000 00000000 ffffffff     ................
  42412c:	ffffffff ffffffff ffffffff ffffffff     ................
  42413c:	ffffffff ffffffff ffffffff ffffffff     ................
  42414c:	ffffffff ffffffff ffffffff ffffffff     ................
  42415c:	ffffffff ffffffff ffffffff ffffffff     ................
  42416c:	ffffffff ffffffff ffffffff ffffffff     ................
  42417c:	ffffffff ffffffff ffffffff ffffffff     ................
  42418c:	ffffffff ffffffff ffffffff ffffffff     ................
  42419c:	ffffffff ffffffff ffffffff ffffffff     ................
  4241ac:	ffffffff ffffffff ffffffff ffffffff     ................
  4241bc:	ffffffff ffffffff ffffffff ffffffff     ................
  4241cc:	000000ff 00000000 ffff0000 ffffffff     ................
  4241dc:	ffffffff ffffffff ffffffff ffffffff     ................
  4241ec:	ffffffff ffffffff ffffffff ffffffff     ................
  4241fc:	ffffffff ffffffff ffffffff ffffffff     ................
  42420c:	ffffffff ffffffff ffffffff ffffffff     ................
  42421c:	ffffffff ffffffff ffffffff ffffffff     ................
  42422c:	000000ff 00000000 ffff0000 ffffffff     ................
  42423c:	ffffffff ffffffff ffffffff ffffffff     ................
  42424c:	ffffffff ffffffff ffffffff ffffffff     ................
  42425c:	ffffffff ffffffff ffffffff ffffffff     ................
  42426c:	ffffffff ffffffff ffffffff ffffffff     ................
  42427c:	ffffffff ffffffff ffffffff ffffffff     ................
  42428c:	ffffffff ffffffff ffffffff ffffffff     ................
  42429c:	ffffffff ffffffff ffffffff ffffffff     ................
  4242ac:	ffffffff ffffffff ffffffff ffffffff     ................
  4242bc:	ffffffff ffffffff ffffffff ffffffff     ................
  4242cc:	ffffffff ffffffff ffffffff 00ffffff     ................
	...
  4242e4:	ffffffff ffffffff ffffffff ffffffff     ................
  4242f4:	ffffffff ffffffff ffffffff ffffffff     ................
  424304:	ffffffff ffffffff ffffffff ffffffff     ................
  424314:	ffffffff ffffffff ffffffff ffffffff     ................
  424324:	ffffffff ffffffff ffffffff ffffffff     ................
  424334:	ffffffff 00000000 00000000 00000000     ................
  424344:	ffffffff ffffffff ffffffff ffffffff     ................
  424354:	ffffffff ffffffff ffffffff ffffffff     ................
  424364:	ffffffff ffffffff ffffffff ffffffff     ................
  424374:	ffffffff ffffffff ffffffff ffffffff     ................
  424384:	ffffffff ffffffff ffffffff ffffffff     ................
  424394:	ffffffff ffffffff ffffffff ffffffff     ................
  4243a4:	ffffffff ffffffff ffffffff ffffffff     ................
  4243b4:	ffffffff ffffffff ffffffff ffffffff     ................
  4243c4:	ffffffff ffffffff ffffffff ffffffff     ................
  4243d4:	ffffffff ffffffff ffffffff ffffffff     ................
  4243e4:	ffffffff 000000ff 00000000 ffff0000     ................
  4243f4:	ffffffff ffffffff ffffffff ffffffff     ................
  424404:	ffffffff ffffffff ffffffff ffffffff     ................
  424414:	ffffffff ffffffff ffffffff ffffffff     ................
  424424:	ffffffff ffffffff ffffffff ffffffff     ................
  424434:	ffffffff ffffffff ffffffff ffffffff     ................
  424444:	0000ffff 00000000 00000000 ffff0000     ................
  424454:	ffffffff ffffffff ffffffff ffffffff     ................
  424464:	ffffffff ffffffff ffffffff ffffffff     ................
  424474:	ffffffff ffffffff ffffffff ffffffff     ................
  424484:	ffffffff ffffffff ffffffff ffffffff     ................
  424494:	ffffffff ffffffff ffffffff ffffffff     ................
  4244a4:	ffffffff ffffffff ffffffff ffffffff     ................
  4244b4:	ffffffff ffffffff ffffffff ffffffff     ................
  4244c4:	ffffffff ffffffff ffffffff ffffffff     ................
  4244d4:	ffffffff ffffffff ffffffff ffffffff     ................
  4244e4:	ffffffff ffffffff ffffffff ffffffff     ................
  4244f4:	00ffffff 00000000 00000000 ffffffff     ................
  424504:	ffffffff ffffffff ffffffff ffffffff     ................
  424514:	ffffffff ffffffff ffffffff ffffffff     ................
  424524:	ffffffff ffffffff ffffffff ffffffff     ................
  424534:	ffffffff ffffffff ffffffff ffffffff     ................
  424544:	ffffffff ffffffff ffffffff ffffffff     ................
	...
  424560:	ffffffff ffffffff ffffffff ffffffff     ................
  424570:	ffffffff ffffffff ffffffff ffffffff     ................
  424580:	ffffffff ffffffff ffffffff ffffffff     ................
  424590:	ffffffff ffffffff ffffffff ffffffff     ................
  4245a0:	ffffffff ffffffff ffffffff ffffffff     ................
  4245b0:	ffffffff ffffffff ffffffff ffffffff     ................
  4245c0:	ffffffff ffffffff ffffffff ffffffff     ................
  4245d0:	ffffffff ffffffff ffffffff ffffffff     ................
  4245e0:	ffffffff ffffffff ffffffff ffffffff     ................
  4245f0:	ffffffff ffffffff ffffffff ffffffff     ................
  424600:	ffffffff 000000ff 00000000 00000000     ................
  424610:	ffffff00 ffffffff ffffffff ffffffff     ................
  424620:	ffffffff ffffffff ffffffff ffffffff     ................
  424630:	ffffffff ffffffff ffffffff ffffffff     ................
  424640:	ffffffff ffffffff ffffffff ffffffff     ................
  424650:	ffffffff ffffffff ffffffff ffffffff     ................
  424660:	0000ffff 00000000 ff000000 ffffffff     ................
  424670:	ffffffff ffffffff ffffffff ffffffff     ................
  424680:	ffffffff ffffffff ffffffff ffffffff     ................
  424690:	ffffffff ffffffff ffffffff ffffffff     ................
  4246a0:	ffffffff ffffffff ffffffff ffffffff     ................
  4246b0:	ffffffff ffffffff ffffffff ffffffff     ................
  4246c0:	ffffffff ffffffff ffffffff ffffffff     ................
  4246d0:	ffffffff ffffffff ffffffff ffffffff     ................
  4246e0:	ffffffff ffffffff ffffffff ffffffff     ................
  4246f0:	ffffffff ffffffff ffffffff ffffffff     ................
  424700:	ffffffff ffffffff ffffffff ffffffff     ................
  424710:	00ffffff 00000000 00000000 ff000000     ................
  424720:	ffffffff ffffffff ffffffff ffffffff     ................
  424730:	ffffffff ffffffff ffffffff ffffffff     ................
  424740:	ffffffff ffffffff ffffffff ffffffff     ................
  424750:	ffffffff ffffffff ffffffff ffffffff     ................
  424760:	ffffffff ffffffff ffffffff ffffffff     ................
	...
  424778:	ffffff00 ffffffff ffffffff ffffffff     ................
  424788:	ffffffff ffffffff ffffffff ffffffff     ................
  424798:	ffffffff ffffffff ffffffff ffffffff     ................
  4247a8:	ffffffff ffffffff ffffffff ffffffff     ................
  4247b8:	ffffffff ffffffff ffffffff ffffffff     ................
  4247c8:	ffffffff ffffffff ffffffff ffffffff     ................
  4247d8:	ffffffff ffffffff ffffffff ffffffff     ................
  4247e8:	ffffffff ffffffff ffffffff ffffffff     ................
  4247f8:	ffffffff ffffffff ffffffff ffffffff     ................
  424808:	ffffffff ffffffff ffffffff ffffffff     ................
  424818:	ffffffff ffffffff 000000ff 00000000     ................
  424828:	00000000 ffffff00 ffffffff ffffffff     ................
  424838:	ffffffff ffffffff ffffffff ffffffff     ................
  424848:	ffffffff ffffffff ffffffff ffffffff     ................
  424858:	ffffffff ffffffff ffffffff ffffffff     ................
  424868:	ffffffff ffffffff ffffffff ffffffff     ................
  424878:	ffffffff 0000ffff 00000000 ff000000     ................
  424888:	ffffffff ffffffff ffffffff ffffffff     ................
  424898:	ffffffff ffffffff ffffffff ffffffff     ................
  4248a8:	ffffffff ffffffff ffffffff ffffffff     ................
  4248b8:	ffffffff ffffffff ffffffff ffffffff     ................
  4248c8:	ffffffff ffffffff ffffffff ffffffff     ................
  4248d8:	ffffffff ffffffff ffffffff ffffffff     ................
  4248e8:	ffffffff ffffffff ffffffff ffffffff     ................
  4248f8:	ffffffff ffffffff ffffffff ffffffff     ................
  424908:	ffffffff ffffffff ffffffff ffffffff     ................
  424918:	ffffffff ffffffff ffffffff ffffffff     ................
  424928:	ffffffff ffffffff 0000ffff 00000000     ................
  424938:	ff000000 ffffffff ffffffff ffffffff     ................
  424948:	ffffffff ffffffff ffffffff ffffffff     ................
  424958:	ffffffff ffffffff ffffffff ffffffff     ................
  424968:	ffffffff ffffffff ffffffff ffffffff     ................
  424978:	ffffffff ffffffff ffffffff ffffffff     ................
  424988:	ffffffff 00000000 00000000 ffffff00     ................
  424998:	ffffffff ffffffff ffffffff ffffffff     ................
  4249a8:	ffffffff ffffffff ffffffff ffffffff     ................
  4249b8:	ffffffff ffffffff ffffffff ffffffff     ................
  4249c8:	ffffffff ffffffff ffffffff ffffffff     ................
  4249d8:	ffffffff ffffffff ffffffff ffffffff     ................
  4249e8:	ffffffff ffffffff ffffffff ffffffff     ................
  4249f8:	ffffffff ffffffff ffffffff ffffffff     ................
  424a08:	ffffffff ffffffff ffffffff ffffffff     ................
  424a18:	ffffffff ffffffff ffffffff ffffffff     ................
  424a28:	ffffffff ffffffff ffffffff ffffffff     ................
  424a38:	ffffffff ffffffff 00000000 00000000     ................
  424a48:	ffffff00 ffffffff ffffffff ffffffff     ................
  424a58:	ffffffff ffffffff ffffffff ffffffff     ................
  424a68:	ffffffff ffffffff ffffffff ffffffff     ................
  424a78:	ffffffff ffffffff ffffffff ffffffff     ................
  424a88:	ffffffff ffffffff ffffffff ffffffff     ................
  424a98:	0000ffff 00000000 ff000000 ffffffff     ................
  424aa8:	ffffffff ffffffff ffffffff ffffffff     ................
  424ab8:	ffffffff ffffffff ffffffff ffffffff     ................
  424ac8:	ffffffff ffffffff ffffffff ffffffff     ................
  424ad8:	ffffffff ffffffff ffffffff ffffffff     ................
  424ae8:	ffffffff ffffffff ffffffff ffffffff     ................
  424af8:	ffffffff ffffffff ffffffff ffffffff     ................
  424b08:	ffffffff ffffffff ffffffff ffffffff     ................
  424b18:	ffffffff ffffffff ffffffff ffffffff     ................
  424b28:	ffffffff ffffffff ffffffff ffffffff     ................
  424b38:	ffffffff ffffffff ffffffff ffffffff     ................
  424b48:	ffffffff 0000ffff 00000000 ff000000     ................
  424b58:	ffffffff ffffffff ffffffff ffffffff     ................
  424b68:	ffffffff ffffffff ffffffff ffffffff     ................
  424b78:	ffffffff ffffffff ffffffff ffffffff     ................
  424b88:	ffffffff ffffffff ffffffff ffffffff     ................
  424b98:	ffffffff ffffffff ffffffff 000000ff     ................
	...
  424bb0:	ffffff00 ffffffff ffffffff ffffffff     ................
  424bc0:	ffffffff ffffffff ffffffff ffffffff     ................
  424bd0:	ffffffff ffffffff ffffffff ffffffff     ................
  424be0:	ffffffff ffffffff ffffffff ffffffff     ................
  424bf0:	ffffffff ffffffff ffffffff ffffffff     ................
  424c00:	ffffffff ffffffff ffffffff ffffffff     ................
  424c10:	ffffffff ffffffff ffffffff ffffffff     ................
  424c20:	ffffffff ffffffff ffffffff ffffffff     ................
  424c30:	ffffffff ffffffff ffffffff ffffffff     ................
  424c40:	ffffffff ffffffff ffffffff ffffffff     ................
  424c50:	ffffffff ffffffff ffffffff 00000000     ................
  424c60:	00000000 ffffff00 ffffffff ffffffff     ................
  424c70:	ffffffff ffffffff ffffffff ffffffff     ................
  424c80:	ffffffff ffffffff ffffffff ffffffff     ................
  424c90:	ffffffff ffffffff ffffffff ffffffff     ................
  424ca0:	ffffffff ffffffff ffffffff ffffffff     ................
  424cb0:	00ffffff 00000000 00000000 ff000000     ................
  424cc0:	ffffffff ffffffff ffffffff ffffffff     ................
  424cd0:	ffffffff ffffffff ffffffff ffffffff     ................
  424ce0:	ffffffff ffffffff ffffffff ffffffff     ................
  424cf0:	ffffffff ffffffff ffffffff ffffffff     ................
  424d00:	ffffffff ffffffff ffffffff ffffffff     ................
  424d10:	ffffffff ffffffff ffffffff ffffffff     ................
  424d20:	ffffffff ffffffff ffffffff ffffffff     ................
  424d30:	ffffffff ffffffff ffffffff ffffffff     ................
  424d40:	ffffffff ffffffff ffffffff ffffffff     ................
  424d50:	ffffffff ffffffff ffffffff ffffffff     ................
  424d60:	ffffffff ffffffff 0000ffff 00000000     ................
  424d70:	ff000000 ffffffff ffffffff ffffffff     ................
  424d80:	ffffffff ffffffff ffffffff ffffffff     ................
  424d90:	ffffffff ffffffff ffffffff ffffffff     ................
  424da0:	ffffffff ffffffff ffffffff ffffffff     ................
  424db0:	ffffffff ffffffff ffffffff ffffffff     ................
  424dc0:	000000ff 00000000 00000000 ffffff00     ................
  424dd0:	ffffffff ffffffff ffffffff ffffffff     ................
  424de0:	ffffffff ffffffff ffffffff ffffffff     ................
  424df0:	ffffffff ffffffff ffffffff ffffffff     ................
  424e00:	ffffffff ffffffff ffffffff ffffffff     ................
  424e10:	ffffffff ffffffff ffffffff ffffffff     ................
  424e20:	ffffffff ffffffff ffffffff ffffffff     ................
  424e30:	ffffffff ffffffff ffffffff ffffffff     ................
  424e40:	ffffffff ffffffff ffffffff ffffffff     ................
  424e50:	ffffffff ffffffff ffffffff ffffffff     ................
  424e60:	ffffffff ffffffff ffffffff ffffffff     ................
  424e70:	ffffffff ffffffff 00000000 00000000     ................
  424e80:	00000000 ffffffff ffffffff ffffffff     ................
  424e90:	ffffffff ffffffff ffffffff ffffffff     ................
  424ea0:	ffffffff ffffffff ffffffff ffffffff     ................
  424eb0:	ffffffff ffffffff ffffffff ffffffff     ................
  424ec0:	ffffffff ffffffff ffffffff 00ffffff     ................
	...
  424ed8:	ffffffff ffffffff ffffffff ffffffff     ................
  424ee8:	ffffffff ffffffff ffffffff ffffffff     ................
  424ef8:	ffffffff ffffffff ffffffff ffffffff     ................
  424f08:	ffffffff ffffffff ffffffff ffffffff     ................
  424f18:	ffffffff ffffffff ffffffff ffffffff     ................
  424f28:	ffffffff ffffffff ffffffff ffffffff     ................
  424f38:	ffffffff ffffffff ffffffff ffffffff     ................
  424f48:	ffffffff ffffffff ffffffff ffffffff     ................
  424f58:	ffffffff ffffffff ffffffff ffffffff     ................
  424f68:	ffffffff ffffffff ffffffff ffffffff     ................
  424f78:	ffffffff ffffffff ffffffff 0000ffff     ................
	...
  424f90:	ffff0000 ffffffff ffffffff ffffffff     ................
  424fa0:	ffffffff ffffffff ffffffff ffffffff     ................
  424fb0:	ffffffff ffffffff ffffffff ffffffff     ................
  424fc0:	ffffffff ffffffff ffffffff ffffffff     ................
  424fd0:	ffffffff ffffffff ffffffff 000000ff     ................
	...
  4250a0:	ffffffff ffffffff ffffffff ffffffff     ................
  4250b0:	ffffffff ffffffff ffffffff ffffffff     ................
  4250c0:	ffffffff ffffffff ffffffff ffffffff     ................
  4250d0:	ffffffff ffffffff ffffffff ffffffff     ................
  4250e0:	ffffffff ffffffff 00ffffff 00000000     ................
	...
  4251ac:	ffff0000 ffffffff ffffffff ffffffff     ................
  4251bc:	ffffffff ffffffff ffffffff ffffffff     ................
  4251cc:	ffffffff ffffffff ffffffff ffffffff     ................
  4251dc:	ffffffff ffffffff ffffffff ffffffff     ................
  4251ec:	ffffffff ffffffff ffffffff 000000ff     ................
	...
  4252bc:	ffffffff ffffffff ffffffff ffffffff     ................
  4252cc:	ffffffff ffffffff ffffffff ffffffff     ................
  4252dc:	ffffffff ffffffff ffffffff ffffffff     ................
  4252ec:	ffffffff ffffffff ffffffff ffffffff     ................
  4252fc:	ffffffff ffffffff 00ffffff 00000000     ................
	...
  4253c8:	ffff0000 ffffffff ffffffff ffffffff     ................
  4253d8:	ffffffff ffffffff ffffffff ffffffff     ................
  4253e8:	ffffffff ffffffff ffffffff ffffffff     ................
  4253f8:	ffffffff ffffffff ffffffff ffffffff     ................
  425408:	ffffffff ffffffff ffffffff ffffffff     ................
  425418:	ffffffff ffffffff ffffffff ffffffff     ................
  425428:	ffffffff ffffffff ffffffff ffffffff     ................
  425438:	ffffffff ffffffff ffffffff ffffffff     ................
  425448:	ffffffff ffffffff ffffffff ffffffff     ................
  425458:	ffffffff ffffffff ffffffff ffffffff     ................
  425468:	ffffffff ffffffff ffffffff ffffffff     ................
  425478:	ffffffff ffffffff ffffffff ffffffff     ................
  425488:	ffffffff ffffffff ffffffff ffffffff     ................
  425498:	ffffffff ffffffff ffffffff ffffffff     ................
  4254a8:	ffffffff ffffffff ffffffff ffffffff     ................
  4254b8:	ffffffff ffffffff ffffffff ffffffff     ................
  4254c8:	ffffffff ffffffff ffffffff ffffffff     ................
  4254d8:	ffffffff ffffffff ffffffff ffffffff     ................
  4254e8:	ffffffff ffffffff ffffffff ffffffff     ................
  4254f8:	ffffffff ffffffff ffffffff ffffffff     ................
  425508:	ffffffff ffffffff ffffffff ffffffff     ................
  425518:	ffffffff ffffffff ffffffff ffffffff     ................
  425528:	ffffffff ffffffff ffffffff ffffffff     ................
  425538:	ffffffff ffffffff ffffffff ffffffff     ................
  425548:	ffffffff ffffffff ffffffff ffffffff     ................
  425558:	ffffffff ffffffff ffffffff ffffffff     ................
  425568:	ffffffff ffffffff ffffffff ffffffff     ................
  425578:	ffffffff ffffffff ffffffff ffffffff     ................
  425588:	ffffffff ffffffff ffffffff ffffffff     ................
  425598:	ffffffff ffffffff ffffffff ffffffff     ................
  4255a8:	ffffffff ffffffff ffffffff ffffffff     ................
  4255b8:	ffffffff ffffffff ffffffff ffffffff     ................
  4255c8:	ffffffff ffffffff ffffffff ffffffff     ................
  4255d8:	ffffffff ffffffff ffffffff ffffffff     ................
  4255e8:	ffffffff ffffffff ffffffff ffffffff     ................
  4255f8:	ffffffff ffffffff ffffffff ffffffff     ................
  425608:	ffffffff ffffffff ffffffff ffffffff     ................
  425618:	ffffffff ffffffff ffffffff ffffffff     ................
  425628:	ffffffff ffffffff ffffffff ffffffff     ................
  425638:	ffffffff ffffffff ffffffff ffffffff     ................
  425648:	ffffffff ffffffff ffffffff ffffffff     ................
  425658:	ffffffff ffffffff ffffffff ffffffff     ................
  425668:	ffffffff ffffffff ffffffff ffffffff     ................
  425678:	ffffffff ffffffff ffffffff ffffffff     ................
  425688:	ffffffff ffffffff ffffffff ffffffff     ................
  425698:	ffffffff ffffffff ffffffff ffffffff     ................
  4256a8:	ffffffff ffffffff ffffffff ffffffff     ................
  4256b8:	ffffffff ffffffff ffffffff ffffffff     ................
  4256c8:	ffffffff ffffffff ffffffff ffffffff     ................
  4256d8:	ffffffff ffffffff ffffffff ffffffff     ................
  4256e8:	ffffffff ffffffff ffffffff ffffffff     ................
  4256f8:	ffffffff ffffffff ffffffff ffffffff     ................
  425708:	ffffffff ffffffff ffffffff ffffffff     ................
  425718:	ffffffff ffffffff ffffffff ffffffff     ................
  425728:	ffffffff ffffffff ffffffff ffffffff     ................
  425738:	ffffffff ffffffff ffffffff ffffffff     ................
  425748:	ffffffff ffffffff ffffffff ffffffff     ................
  425758:	ffffffff ffffffff ffffffff ffffffff     ................
  425768:	ffffffff ffffffff ffffffff ffffffff     ................
  425778:	ffffffff ffffffff ffffffff ffffffff     ................
  425788:	ffffffff ffffffff ffffffff ffffffff     ................
  425798:	ffffffff ffffffff ffffffff ffffffff     ................
  4257a8:	ffffffff ffffffff ffffffff ffffffff     ................
  4257b8:	ffffffff ffffffff ffffffff ffffffff     ................
  4257c8:	ffffffff ffffffff ffffffff ffffffff     ................
  4257d8:	ffffffff ffffffff ffffffff ffffffff     ................
  4257e8:	ffffffff ffffffff ffffffff ffffffff     ................
  4257f8:	ffffffff ffffffff ffffffff ffffffff     ................
  425808:	ffffffff ffffffff ffffffff ffffffff     ................
  425818:	ffffffff ffffffff ffffffff ffffffff     ................
  425828:	ffffffff ffffffff ffffffff ffffffff     ................
  425838:	ffffffff ffffffff ffffffff ffffffff     ................
  425848:	ffffffff ffffffff ffffffff ffffffff     ................
  425858:	ffffffff ffffffff ffffffff ffffffff     ................
  425868:	ffffffff ffffffff ffffffff ffffffff     ................
  425878:	ffffffff ffffffff ffffffff ffffffff     ................
  425888:	ffffffff ffffffff ffffffff ffffffff     ................
  425898:	ffffffff ffffffff ffffffff ffffffff     ................
  4258a8:	ffffffff ffffffff ffffffff ffffffff     ................
  4258b8:	ffffffff ffffffff ffffffff ffffffff     ................
  4258c8:	ffffffff ffffffff ffffffff ffffffff     ................
  4258d8:	ffffffff ffffffff ffffffff ffffffff     ................
  4258e8:	ffffffff ffffffff ffffffff ffffffff     ................
  4258f8:	ffffffff ffffffff ffffffff ffffffff     ................
  425908:	ffffffff ffffffff ffffffff ffffffff     ................
  425918:	ffffffff ffffffff ffffffff ffffffff     ................
  425928:	ffffffff ffffffff ffffffff              ............

00425934 <_global_impure_ptr>:
  425934:	20400010                                ..@ 

00425938 <_init>:
  425938:	b5f8      	push	{r3, r4, r5, r6, r7, lr}
  42593a:	bf00      	nop
  42593c:	bcf8      	pop	{r3, r4, r5, r6, r7}
  42593e:	bc08      	pop	{r3}
  425940:	469e      	mov	lr, r3
  425942:	4770      	bx	lr

00425944 <__init_array_start>:
  425944:	00401c21 	.word	0x00401c21

00425948 <__frame_dummy_init_array_entry>:
  425948:	0040018d                                ..@.

0042594c <_fini>:
  42594c:	b5f8      	push	{r3, r4, r5, r6, r7, lr}
  42594e:	bf00      	nop
  425950:	bcf8      	pop	{r3, r4, r5, r6, r7}
  425952:	bc08      	pop	{r3}
  425954:	469e      	mov	lr, r3
  425956:	4770      	bx	lr

00425958 <__fini_array_start>:
  425958:	00400169 	.word	0x00400169
